
/Users/dylanwu/Desktop/IoTEngineering/CAPSTONE/target/CAPSTONE.elf:     file format elf32-littlearm

Sections:
Idx Name          Size      VMA       LMA       File off  Algn
  0 .module_info  00000018  000d4000  000d4000  00004000  2**2
                  CONTENTS, ALLOC, LOAD, READONLY, DATA
  1 .text         00008148  000d4018  000d4018  00004018  2**3
                  CONTENTS, ALLOC, LOAD, READONLY, CODE
  2 .backup       00000000  2003f400  2003f400  0001c25c  2**0
                  CONTENTS
  3 .data         000000d0  2003db6c  000dc160  0000db6c  2**2
                  CONTENTS, ALLOC, LOAD, DATA
  4 .bss          00000bb4  2003dc3c  2003dc3c  0001dc3c  2**2
                  ALLOC
  5 .module_info_suffix 00000028  000dc230  000dc230  0001c230  2**0
                  CONTENTS, ALLOC, LOAD, READONLY, DATA
  6 .module_info_crc 00000004  000dc258  000dc258  0001c258  2**0
                  CONTENTS, ALLOC, LOAD, READONLY, DATA
  7 .debug_info   0022486c  00000000  00000000  0001c25c  2**0
                  CONTENTS, READONLY, DEBUGGING
  8 .debug_abbrev 0002b6e2  00000000  00000000  00240ac8  2**0
                  CONTENTS, READONLY, DEBUGGING
  9 .debug_loc    00037b44  00000000  00000000  0026c1aa  2**0
                  CONTENTS, READONLY, DEBUGGING
 10 .debug_aranges 00003c58  00000000  00000000  002a3cee  2**0
                  CONTENTS, READONLY, DEBUGGING
 11 .debug_ranges 00007178  00000000  00000000  002a7946  2**0
                  CONTENTS, READONLY, DEBUGGING
 12 .debug_macro  00060e10  00000000  00000000  002aeabe  2**0
                  CONTENTS, READONLY, DEBUGGING
 13 .debug_line   00076eba  00000000  00000000  0030f8ce  2**0
                  CONTENTS, READONLY, DEBUGGING
 14 .debug_str    00127738  00000000  00000000  00386788  2**0
                  CONTENTS, READONLY, DEBUGGING
 15 .debug_frame  00011514  00000000  00000000  004adec0  2**2
                  CONTENTS, READONLY, DEBUGGING

Disassembly of section .text:

000d4018 <user_part_module>:
   d4018:	20 af 0d 00                                          ...

000d401c <module_user_pre_init>:
/**
 * Initializes this user module. Returns the start of the heap.
 */
void* module_user_pre_init() {

    if ( (&link_global_data_start!=&link_global_data_initial_values) && (link_global_data_size != 0))
   d401c:	4809      	ldr	r0, [pc, #36]	; (d4044 <module_user_pre_init+0x28>)
   d401e:	490a      	ldr	r1, [pc, #40]	; (d4048 <module_user_pre_init+0x2c>)
   d4020:	4288      	cmp	r0, r1
extern constructor_ptr_t link_constructors_end;

/**
 * Initializes this user module. Returns the start of the heap.
 */
void* module_user_pre_init() {
   d4022:	b508      	push	{r3, lr}

    if ( (&link_global_data_start!=&link_global_data_initial_values) && (link_global_data_size != 0))
   d4024:	d005      	beq.n	d4032 <module_user_pre_init+0x16>
   d4026:	4a09      	ldr	r2, [pc, #36]	; (d404c <module_user_pre_init+0x30>)
   d4028:	4282      	cmp	r2, r0
   d402a:	d002      	beq.n	d4032 <module_user_pre_init+0x16>
    {
        memcpy(&link_global_data_start, &link_global_data_initial_values, link_global_data_size);
   d402c:	1a12      	subs	r2, r2, r0
   d402e:	f006 fab3 	bl	da598 <memcpy>
    }

    memset(&link_bss_location, 0, link_bss_size );
   d4032:	4807      	ldr	r0, [pc, #28]	; (d4050 <module_user_pre_init+0x34>)
   d4034:	4a07      	ldr	r2, [pc, #28]	; (d4054 <module_user_pre_init+0x38>)
   d4036:	2100      	movs	r1, #0
   d4038:	1a12      	subs	r2, r2, r0
   d403a:	f006 fab8 	bl	da5ae <memset>
    return &link_global_data_start;
}
   d403e:	4801      	ldr	r0, [pc, #4]	; (d4044 <module_user_pre_init+0x28>)
   d4040:	bd08      	pop	{r3, pc}
   d4042:	bf00      	nop
   d4044:	2003db6c 	.word	0x2003db6c
   d4048:	000dc160 	.word	0x000dc160
   d404c:	2003dc3c 	.word	0x2003dc3c
   d4050:	2003dc3c 	.word	0x2003dc3c
   d4054:	2003e7f0 	.word	0x2003e7f0

000d4058 <module_user_init>:
extern constructor_ptr_t link_constructors_location[];
extern constructor_ptr_t link_constructors_end;
#define link_constructors_size   ((unsigned long)&link_constructors_end  -  (unsigned long)&link_constructors_location )

void module_user_init()
{
   d4058:	b570      	push	{r4, r5, r6, lr}
    module_user_init_hook();
   d405a:	f005 fb11 	bl	d9680 <module_user_init_hook>
   d405e:	4c07      	ldr	r4, [pc, #28]	; (d407c <module_user_init+0x24>)
   d4060:	4b07      	ldr	r3, [pc, #28]	; (d4080 <module_user_init+0x28>)
   d4062:	1ae4      	subs	r4, r4, r3
   d4064:	08a4      	lsrs	r4, r4, #2

    // invoke constructors
    int ctor_num;
    for (ctor_num=0; ctor_num < link_constructors_size/sizeof(constructor_ptr_t); ctor_num++ )
   d4066:	2500      	movs	r5, #0
   d4068:	461e      	mov	r6, r3
   d406a:	42a5      	cmp	r5, r4
   d406c:	d004      	beq.n	d4078 <module_user_init+0x20>
    {
        link_constructors_location[ctor_num]();
   d406e:	f856 3025 	ldr.w	r3, [r6, r5, lsl #2]
   d4072:	4798      	blx	r3
{
    module_user_init_hook();

    // invoke constructors
    int ctor_num;
    for (ctor_num=0; ctor_num < link_constructors_size/sizeof(constructor_ptr_t); ctor_num++ )
   d4074:	3501      	adds	r5, #1
   d4076:	e7f8      	b.n	d406a <module_user_init+0x12>
    {
        link_constructors_location[ctor_num]();
    }
}
   d4078:	bd70      	pop	{r4, r5, r6, pc}
   d407a:	bf00      	nop
   d407c:	000dc154 	.word	0x000dc154
   d4080:	000dc0a0 	.word	0x000dc0a0

000d4084 <module_user_setup>:

/**
 * Export these functions with a fuller name so they don't clash with the setup/loop wrappers in the system module.
 */
void module_user_setup() {
    setup();
   d4084:	f001 b8e2 	b.w	d524c <setup>

000d4088 <module_user_loop>:
}

void module_user_loop() {
   d4088:	b508      	push	{r3, lr}
    loop();
   d408a:	f000 fc5b 	bl	d4944 <loop>
    _post_loop();
}
   d408e:	e8bd 4008 	ldmia.w	sp!, {r3, lr}
    setup();
}

void module_user_loop() {
    loop();
    _post_loop();
   d4092:	f005 bac3 	b.w	d961c <_post_loop>

000d4096 <_Znwj>:
   d4096:	f003 be0d 	b.w	d7cb4 <malloc>

000d409a <_ZdlPv>:
   d409a:	f003 be13 	b.w	d7cc4 <free>

000d409e <_ZdaPv>:
	free(p);
}

void operator delete[](void *p)
{
	free(p);
   d409e:	f003 be11 	b.w	d7cc4 <free>
	...

000d40a4 <__cxa_pure_virtual>:
        ;
    }
}

/* Default implementation for call made to pure virtual function. */
void __cxa_pure_virtual() {
   d40a4:	b508      	push	{r3, lr}
  PANIC(PureVirtualCall,"Call on pure virtual");
   d40a6:	4a03      	ldr	r2, [pc, #12]	; (d40b4 <__cxa_pure_virtual+0x10>)
   d40a8:	2100      	movs	r1, #0
   d40aa:	200c      	movs	r0, #12
   d40ac:	f003 fd26 	bl	d7afc <panic_>
   d40b0:	e7fe      	b.n	d40b0 <__cxa_pure_virtual+0xc>
   d40b2:	bf00      	nop
   d40b4:	000d778d 	.word	0x000d778d

000d40b8 <__cxa_guard_acquire>:

/* Provide default implemenation for __cxa_guard_acquire() and
 * __cxa_guard_release(). Note: these must be revisited if a multitasking
 * OS is ported to this platform. */
__extension__ typedef int __guard __attribute__((mode (__DI__)));
int __cxa_guard_acquire(__guard *g) {return !*(char *)(g);};
   d40b8:	7800      	ldrb	r0, [r0, #0]
   d40ba:	fab0 f080 	clz	r0, r0
   d40be:	0940      	lsrs	r0, r0, #5
   d40c0:	4770      	bx	lr

000d40c2 <__cxa_guard_release>:
void __cxa_guard_release (__guard *g) {*(char *)g = 1;};
   d40c2:	2301      	movs	r3, #1
   d40c4:	7003      	strb	r3, [r0, #0]
   d40c6:	4770      	bx	lr

000d40c8 <_ZN15Adafruit_Sensor15enableAutoRangeEb>:
  // Constructor(s)
  Adafruit_Sensor() {}
  virtual ~Adafruit_Sensor() {}

  // These must be defined by the subclass
  virtual void enableAutoRange(bool enabled) {};
   d40c8:	4770      	bx	lr
	...

000d40cc <_Z7OnTimerv>:
    }
  }
}

void OnTimer() {
  timerDone = true;
   d40cc:	4b03      	ldr	r3, [pc, #12]	; (d40dc <_Z7OnTimerv+0x10>)
   d40ce:	2201      	movs	r2, #1
   d40d0:	601a      	str	r2, [r3, #0]
  timerOn = false;
   d40d2:	4b03      	ldr	r3, [pc, #12]	; (d40e0 <_Z7OnTimerv+0x14>)
   d40d4:	2200      	movs	r2, #0
   d40d6:	601a      	str	r2, [r3, #0]
   d40d8:	4770      	bx	lr
   d40da:	bf00      	nop
   d40dc:	2003dc90 	.word	0x2003dc90
   d40e0:	2003ddbc 	.word	0x2003ddbc

000d40e4 <_ZNSt17_Function_handlerIFvvEPS0_E9_M_invokeERKSt9_Any_data>:

     public:
      static void
      _M_invoke(const _Any_data& __functor, _ArgTypes&&... __args)
      {
	(*_Base::_M_get_pointer(__functor))(
   d40e4:	6803      	ldr	r3, [r0, #0]
   d40e6:	4718      	bx	r3

000d40e8 <_ZNSt14_Function_base13_Base_managerIPFvvEE10_M_managerERSt9_Any_dataRKS4_St18_Manager_operation>:
      public:
	static bool
	_M_manager(_Any_data& __dest, const _Any_data& __source,
		   _Manager_operation __op)
	{
	  switch (__op)
   d40e8:	2a01      	cmp	r2, #1
   d40ea:	d002      	beq.n	d40f2 <_ZNSt14_Function_base13_Base_managerIPFvvEE10_M_managerERSt9_Any_dataRKS4_St18_Manager_operation+0xa>
   d40ec:	2a02      	cmp	r2, #2
   d40ee:	d002      	beq.n	d40f6 <_ZNSt14_Function_base13_Base_managerIPFvvEE10_M_managerERSt9_Any_dataRKS4_St18_Manager_operation+0xe>
   d40f0:	e004      	b.n	d40fc <_ZNSt14_Function_base13_Base_managerIPFvvEE10_M_managerERSt9_Any_dataRKS4_St18_Manager_operation+0x14>
	    case __get_type_info:
	      __dest._M_access<const type_info*>() = &typeid(_Functor);
	      break;
#endif
	    case __get_functor_ptr:
	      __dest._M_access<_Functor*>() = _M_get_pointer(__source);
   d40f2:	6001      	str	r1, [r0, #0]
	      break;
   d40f4:	e002      	b.n	d40fc <_ZNSt14_Function_base13_Base_managerIPFvvEE10_M_managerERSt9_Any_dataRKS4_St18_Manager_operation+0x14>
	// Clone a location-invariant function object that fits within
	// an _Any_data structure.
	static void
	_M_clone(_Any_data& __dest, const _Any_data& __source, true_type)
	{
	  new (__dest._M_access()) _Functor(__source._M_access<_Functor>());
   d40f6:	680b      	ldr	r3, [r1, #0]
   d40f8:	b100      	cbz	r0, d40fc <_ZNSt14_Function_base13_Base_managerIPFvvEE10_M_managerERSt9_Any_dataRKS4_St18_Manager_operation+0x14>
   d40fa:	6003      	str	r3, [r0, #0]
	    case __destroy_functor:
	      _M_destroy(__dest, _Local_storage());
	      break;
	    }
	  return false;
	}
   d40fc:	2000      	movs	r0, #0
   d40fe:	4770      	bx	lr

000d4100 <_ZN15Adafruit_BNO055D1Ev>:

/*!
 *  @brief  Class that stores state and functions for interacting with
 *          BNO055 Sensor
 */
class Adafruit_BNO055 : public Adafruit_Sensor {
   d4100:	4770      	bx	lr

000d4102 <_ZN6Thread3runEPv>:
        return *this;
    }

private:

    static os_thread_return_t run(void* param) {
   d4102:	b510      	push	{r4, lr}
        Data* th = (Data*)param;
        th->started = true;
   d4104:	2301      	movs	r3, #1
   d4106:	7403      	strb	r3, [r0, #16]
        if (th->func) {
   d4108:	6883      	ldr	r3, [r0, #8]
        return *this;
    }

private:

    static os_thread_return_t run(void* param) {
   d410a:	4604      	mov	r4, r0
        Data* th = (Data*)param;
        th->started = true;
        if (th->func) {
   d410c:	b113      	cbz	r3, d4114 <_ZN6Thread3runEPv+0x12>
            (*(th->func))(th->func_param);
   d410e:	68c0      	ldr	r0, [r0, #12]
   d4110:	4798      	blx	r3
   d4112:	e007      	b.n	d4124 <_ZN6Thread3runEPv+0x22>
      }

      /// Return the stored pointer.
      pointer
      get() const noexcept
      { return std::get<0>(_M_t); }
   d4114:	6800      	ldr	r0, [r0, #0]
        } else if (th->wrapper) {
   d4116:	b128      	cbz	r0, d4124 <_ZN6Thread3runEPv+0x22>
  template<typename _Res, typename... _ArgTypes>
    _Res
    function<_Res(_ArgTypes...)>::
    operator()(_ArgTypes... __args) const
    {
      if (_M_empty())
   d4118:	6883      	ldr	r3, [r0, #8]
   d411a:	b90b      	cbnz	r3, d4120 <_ZN6Thread3runEPv+0x1e>
	__throw_bad_function_call();
   d411c:	f005 fbc9 	bl	d98b2 <_ZSt25__throw_bad_function_callv>
      return _M_invoker(_M_functor, std::forward<_ArgTypes>(__args)...);
   d4120:	68c3      	ldr	r3, [r0, #12]
   d4122:	4798      	blx	r3
            (*(th->wrapper))();
        }
        th->exited = true;
   d4124:	2301      	movs	r3, #1
   d4126:	7463      	strb	r3, [r4, #17]
        os_thread_exit(nullptr);
   d4128:	2000      	movs	r0, #0
    }
   d412a:	e8bd 4010 	ldmia.w	sp!, {r4, lr}
            (*(th->func))(th->func_param);
        } else if (th->wrapper) {
            (*(th->wrapper))();
        }
        th->exited = true;
        os_thread_exit(nullptr);
   d412e:	f003 bb1d 	b.w	d776c <os_thread_exit>
	...

000d4134 <_Z9ipHandlerPKcS0_>:
    Serial.printlnf("lat=%s,lon=%s", global_lat.c_str(), global_lon.c_str());
  }
  jsonParser.clear(); //clears the parser buffer so the temp can be parsed correctly
}

void ipHandler(const char *event, const char *data) {
   d4134:	b510      	push	{r4, lr}
  global_ip = data; //sets ip
   d4136:	4c06      	ldr	r4, [pc, #24]	; (d4150 <_Z9ipHandlerPKcS0_+0x1c>)
   d4138:	4620      	mov	r0, r4
   d413a:	f004 fcf3 	bl	d8b24 <_ZN6StringaSEPKc>
  Serial.printlnf("global_ip=%s", global_ip.c_str()); //prints ip
   d413e:	f005 f9eb 	bl	d9518 <_Z16_fetch_usbserialv>
    }

    template <typename... Args>
    inline size_t printlnf(const char* format, Args... args)
    {
        return this->printf_impl(true, format, args...);
   d4142:	6823      	ldr	r3, [r4, #0]
   d4144:	4a03      	ldr	r2, [pc, #12]	; (d4154 <_Z9ipHandlerPKcS0_+0x20>)
   d4146:	2101      	movs	r1, #1
}
   d4148:	e8bd 4010 	ldmia.w	sp!, {r4, lr}
   d414c:	f004 bbba 	b.w	d88c4 <_ZN5Print11printf_implEbPKcz>
   d4150:	2003e324 	.word	0x2003e324
   d4154:	000daf97 	.word	0x000daf97

000d4158 <_ZN18Adafruit_NeoMatrixD1Ev>:
#define NEO_TILE_AXIS          0x40 // Bitmask for tile H/V orientation
#define NEO_TILE_PROGRESSIVE   0x00 // Same tile order across each line
#define NEO_TILE_ZIGZAG        0x80 // Tile order reverses between lines
#define NEO_TILE_SEQUENCE      0x80 // Bitmask for tile line order

class Adafruit_NeoMatrix : public Adafruit_GFX, public Adafruit_NeoPixel {
   d4158:	b510      	push	{r4, lr}
   d415a:	4b04      	ldr	r3, [pc, #16]	; (d416c <_ZN18Adafruit_NeoMatrixD1Ev+0x14>)
   d415c:	4604      	mov	r4, r0
   d415e:	f840 3b1c 	str.w	r3, [r0], #28
   d4162:	f003 f81f 	bl	d71a4 <_ZN17Adafruit_NeoPixelD1Ev>
   d4166:	4620      	mov	r0, r4
   d4168:	bd10      	pop	{r4, pc}
   d416a:	bf00      	nop
   d416c:	000dbad0 	.word	0x000dbad0

000d4170 <_ZN16JsonParserStaticILj512ELj50EED1Ev>:
 *
 * @param MAX_TOKENS The maximum number of tokens you expect. Each object has a token and two for each key/value pair.
 * Each array is a token and one for each element in the array.
 */
template <size_t BUFFER_SIZE, size_t MAX_TOKENS>
class JsonParserStatic : public JsonParser {
   d4170:	b510      	push	{r4, lr}
   d4172:	4b03      	ldr	r3, [pc, #12]	; (d4180 <_ZN16JsonParserStaticILj512ELj50EED1Ev+0x10>)
   d4174:	6003      	str	r3, [r0, #0]
   d4176:	4604      	mov	r4, r0
   d4178:	f002 faa6 	bl	d66c8 <_ZN10JsonParserD1Ev>
   d417c:	4620      	mov	r0, r4
   d417e:	bd10      	pop	{r4, pc}
   d4180:	000daf3c 	.word	0x000daf3c

000d4184 <_ZN16JsonParserStaticILj512ELj50EED0Ev>:
   d4184:	b510      	push	{r4, lr}
   d4186:	4604      	mov	r4, r0
   d4188:	f7ff fff2 	bl	d4170 <_ZN16JsonParserStaticILj512ELj50EED1Ev>
   d418c:	4620      	mov	r0, r4
   d418e:	f240 514c 	movw	r1, #1356	; 0x54c
   d4192:	f005 fb74 	bl	d987e <_ZdlPvj>
   d4196:	4620      	mov	r0, r4
   d4198:	bd10      	pop	{r4, pc}

000d419a <_ZNSt14_Function_baseD1Ev>:
	}
      };

    _Function_base() : _M_manager(nullptr) { }

    ~_Function_base()
   d419a:	b510      	push	{r4, lr}
    {
      if (_M_manager)
   d419c:	6883      	ldr	r3, [r0, #8]
	}
      };

    _Function_base() : _M_manager(nullptr) { }

    ~_Function_base()
   d419e:	4604      	mov	r4, r0
    {
      if (_M_manager)
   d41a0:	b113      	cbz	r3, d41a8 <_ZNSt14_Function_baseD1Ev+0xe>
	_M_manager(_M_functor, _M_functor, __destroy_functor);
   d41a2:	2203      	movs	r2, #3
   d41a4:	4601      	mov	r1, r0
   d41a6:	4798      	blx	r3
    }
   d41a8:	4620      	mov	r0, r4
   d41aa:	bd10      	pop	{r4, pc}

000d41ac <_ZNKSt14default_deleteIN6Thread4DataEEclEPS1_.isra.16>:
	       enable_if<is_convertible<_Up*, _Tp*>::value>::type>
        default_delete(const default_delete<_Up>&) noexcept { }

      /// Calls @c delete @p __ptr
      void
      operator()(_Tp* __ptr) const
   d41ac:	b538      	push	{r3, r4, r5, lr}
      {
	static_assert(!is_void<_Tp>::value,
		      "can't delete pointer to incomplete type");
	static_assert(sizeof(_Tp)>0,
		      "can't delete pointer to incomplete type");
	delete __ptr;
   d41ae:	4604      	mov	r4, r0
   d41b0:	b170      	cbz	r0, d41d0 <_ZNKSt14default_deleteIN6Thread4DataEEclEPS1_.isra.16+0x24>

      /// Destructor, invokes the deleter if the stored pointer is not null.
      ~unique_ptr() noexcept
      {
	auto& __ptr = std::get<0>(_M_t);
	if (__ptr != nullptr)
   d41b2:	6805      	ldr	r5, [r0, #0]
   d41b4:	b135      	cbz	r5, d41c4 <_ZNKSt14default_deleteIN6Thread4DataEEclEPS1_.isra.16+0x18>
   *  @ingroup functors
   *
   *  Polymorphic function wrapper.
   */
  template<typename _Res, typename... _ArgTypes>
    class function<_Res(_ArgTypes...)>
   d41b6:	4628      	mov	r0, r5
   d41b8:	f7ff ffef 	bl	d419a <_ZNSt14_Function_baseD1Ev>
      {
	static_assert(!is_void<_Tp>::value,
		      "can't delete pointer to incomplete type");
	static_assert(sizeof(_Tp)>0,
		      "can't delete pointer to incomplete type");
	delete __ptr;
   d41bc:	2110      	movs	r1, #16
   d41be:	4628      	mov	r0, r5
   d41c0:	f005 fb5d 	bl	d987e <_ZdlPvj>
   d41c4:	4620      	mov	r0, r4
   d41c6:	2114      	movs	r1, #20
      }
   d41c8:	e8bd 4038 	ldmia.w	sp!, {r3, r4, r5, lr}
      {
	static_assert(!is_void<_Tp>::value,
		      "can't delete pointer to incomplete type");
	static_assert(sizeof(_Tp)>0,
		      "can't delete pointer to incomplete type");
	delete __ptr;
   d41cc:	f005 bb57 	b.w	d987e <_ZdlPvj>
   d41d0:	bd38      	pop	{r3, r4, r5, pc}

000d41d2 <_ZN6ThreadD1Ev>:
    Thread(Thread&& thread)
        : d_(std::move(thread.d_))
    {
    }

    ~Thread()
   d41d2:	b510      	push	{r4, lr}
      }

      /// Return the stored pointer.
      pointer
      get() const noexcept
      { return std::get<0>(_M_t); }
   d41d4:	6803      	ldr	r3, [r0, #0]
   d41d6:	4604      	mov	r4, r0
        dispose();
    }

    void dispose()
    {
        if (!isValid())
   d41d8:	b1bb      	cbz	r3, d420a <_ZN6ThreadD1Ev+0x38>
        return isCurrent();
    }

    bool isCurrent() const
    {
        return isValid() && os_thread_is_current(d_->handle);
   d41da:	6858      	ldr	r0, [r3, #4]
   d41dc:	f003 fa96 	bl	d770c <os_thread_is_current>
   d41e0:	b978      	cbnz	r0, d4202 <_ZN6ThreadD1Ev+0x30>
   d41e2:	6823      	ldr	r3, [r4, #0]

        // We shouldn't dispose of current thread
        if (isCurrent())
            return;

        if (!d_->exited) {
   d41e4:	7c5a      	ldrb	r2, [r3, #17]
   d41e6:	b912      	cbnz	r2, d41ee <_ZN6ThreadD1Ev+0x1c>
        d_.reset();
    }

    bool join()
    {
        return isValid() && os_thread_join(d_->handle)==0;
   d41e8:	6858      	ldr	r0, [r3, #4]
   d41ea:	f003 fa9f 	bl	d772c <os_thread_join>

        if (!d_->exited) {
            join();
        }

        os_thread_cleanup(d_->handle);
   d41ee:	6823      	ldr	r3, [r4, #0]
   d41f0:	6858      	ldr	r0, [r3, #4]
   d41f2:	f003 faa3 	bl	d773c <os_thread_cleanup>
#endif
    {
      // concept requirements
      __glibcxx_function_requires(_SGIAssignableConcept<_Tp>)

      _Tp __tmp = _GLIBCXX_MOVE(__a);
   d41f6:	6820      	ldr	r0, [r4, #0]
      __a = _GLIBCXX_MOVE(__b);
   d41f8:	2300      	movs	r3, #0
   d41fa:	6023      	str	r3, [r4, #0]
      void
      reset(pointer __p = pointer()) noexcept
      {
	using std::swap;
	swap(std::get<0>(_M_t), __p);
	if (__p != pointer())
   d41fc:	b128      	cbz	r0, d420a <_ZN6ThreadD1Ev+0x38>
	  get_deleter()(__p);
   d41fe:	f7ff ffd5 	bl	d41ac <_ZNKSt14default_deleteIN6Thread4DataEEclEPS1_.isra.16>

      /// Destructor, invokes the deleter if the stored pointer is not null.
      ~unique_ptr() noexcept
      {
	auto& __ptr = std::get<0>(_M_t);
	if (__ptr != nullptr)
   d4202:	6820      	ldr	r0, [r4, #0]
   d4204:	b108      	cbz	r0, d420a <_ZN6ThreadD1Ev+0x38>
	  get_deleter()(__ptr);
   d4206:	f7ff ffd1 	bl	d41ac <_ZNKSt14default_deleteIN6Thread4DataEEclEPS1_.isra.16>
    }

    ~Thread()
    {
        dispose();
    }
   d420a:	4620      	mov	r0, r4
   d420c:	bd10      	pop	{r4, pc}
	...

000d4210 <_ZN6ThreadC1EPKcSt8functionIFvvEEhj>:
        return;
    error:
        d_.reset();
    }

    Thread(const char *name, wiring_thread_fn_t function,
   d4210:	e92d 41ff 	stmdb	sp!, {r0, r1, r2, r3, r4, r5, r6, r7, r8, lr}
   d4214:	4606      	mov	r6, r0
   d4216:	460f      	mov	r7, r1
            os_thread_prio_t priority=OS_THREAD_PRIORITY_DEFAULT, size_t stack_size=OS_THREAD_STACK_SIZE_DEFAULT)
        : d_(new(std::nothrow) Data)
   d4218:	2014      	movs	r0, #20
   d421a:	492a      	ldr	r1, [pc, #168]	; (d42c4 <_ZN6ThreadC1EPKcSt8functionIFvvEEhj+0xb4>)
        return;
    error:
        d_.reset();
    }

    Thread(const char *name, wiring_thread_fn_t function,
   d421c:	4615      	mov	r5, r2
   d421e:	4698      	mov	r8, r3
            os_thread_prio_t priority=OS_THREAD_PRIORITY_DEFAULT, size_t stack_size=OS_THREAD_STACK_SIZE_DEFAULT)
        : d_(new(std::nothrow) Data)
   d4220:	f005 fb38 	bl	d9894 <_ZnwjRKSt9nothrow_t>
   d4224:	4604      	mov	r4, r0
   d4226:	b130      	cbz	r0, d4236 <_ZN6ThreadC1EPKcSt8functionIFvvEEhj+0x26>

  template<std::size_t _Idx, typename _Head>
    struct _Head_base<_Idx, _Head, false>
    {
      constexpr _Head_base()
      : _M_head_impl() { }
   d4228:	2300      	movs	r3, #0
        Data() :
            handle(OS_THREAD_INVALID_HANDLE),
            func(nullptr),
            func_param(nullptr),
            started(false),
            exited(false) {
   d422a:	7403      	strb	r3, [r0, #16]
   d422c:	6003      	str	r3, [r0, #0]
   d422e:	6043      	str	r3, [r0, #4]
   d4230:	6083      	str	r3, [r0, #8]
   d4232:	60c3      	str	r3, [r0, #12]
   d4234:	7443      	strb	r3, [r0, #17]
      constexpr _Head_base(const _Head_base&) = default;
      constexpr _Head_base(_Head_base&&) = default;

      template<typename _UHead>
        constexpr _Head_base(_UHead&& __h)
	: _M_head_impl(std::forward<_UHead>(__h)) { }
   d4236:	6034      	str	r4, [r6, #0]

    Thread(const char *name, wiring_thread_fn_t function,
            os_thread_prio_t priority=OS_THREAD_PRIORITY_DEFAULT, size_t stack_size=OS_THREAD_STACK_SIZE_DEFAULT)
        : d_(new(std::nothrow) Data)
    {
        if (!d_) {
   d4238:	2c00      	cmp	r4, #0
   d423a:	d039      	beq.n	d42b0 <_ZN6ThreadC1EPKcSt8functionIFvvEEhj+0xa0>
            goto error;
        }
        d_->wrapper.reset(new(std::nothrow) wiring_thread_fn_t(std::move(function)));
   d423c:	4921      	ldr	r1, [pc, #132]	; (d42c4 <_ZN6ThreadC1EPKcSt8functionIFvvEEhj+0xb4>)
   d423e:	2010      	movs	r0, #16
   d4240:	f005 fb28 	bl	d9894 <_ZnwjRKSt9nothrow_t>
   d4244:	4603      	mov	r3, r0
   d4246:	b1b0      	cbz	r0, d4276 <_ZN6ThreadC1EPKcSt8functionIFvvEEhj+0x66>
	{
	  _Base::_M_init_functor(__functor, std::__addressof(__f.get()));
	}
      };

    _Function_base() : _M_manager(nullptr) { }
   d4248:	2200      	movs	r2, #0
   d424a:	6082      	str	r2, [r0, #8]
#endif
    {
      // concept requirements
      __glibcxx_function_requires(_SGIAssignableConcept<_Tp>)

      _Tp __tmp = _GLIBCXX_MOVE(__a);
   d424c:	e895 0003 	ldmia.w	r5, {r0, r1}
   d4250:	aa02      	add	r2, sp, #8
   d4252:	e882 0003 	stmia.w	r2, {r0, r1}
      __a = _GLIBCXX_MOVE(__b);
   d4256:	e893 0003 	ldmia.w	r3, {r0, r1}
   d425a:	e885 0003 	stmia.w	r5, {r0, r1}
      __b = _GLIBCXX_MOVE(__tmp);
   d425e:	e892 0003 	ldmia.w	r2, {r0, r1}
   d4262:	e883 0003 	stmia.w	r3, {r0, r1}
    {
      // concept requirements
      __glibcxx_function_requires(_SGIAssignableConcept<_Tp>)

      _Tp __tmp = _GLIBCXX_MOVE(__a);
      __a = _GLIBCXX_MOVE(__b);
   d4266:	6899      	ldr	r1, [r3, #8]
#endif
    {
      // concept requirements
      __glibcxx_function_requires(_SGIAssignableConcept<_Tp>)

      _Tp __tmp = _GLIBCXX_MOVE(__a);
   d4268:	68aa      	ldr	r2, [r5, #8]
      __a = _GLIBCXX_MOVE(__b);
   d426a:	60a9      	str	r1, [r5, #8]
      __b = _GLIBCXX_MOVE(__tmp);
   d426c:	609a      	str	r2, [r3, #8]
#endif
    {
      // concept requirements
      __glibcxx_function_requires(_SGIAssignableConcept<_Tp>)

      _Tp __tmp = _GLIBCXX_MOVE(__a);
   d426e:	68ea      	ldr	r2, [r5, #12]
      __a = _GLIBCXX_MOVE(__b);
   d4270:	68d9      	ldr	r1, [r3, #12]
   d4272:	60e9      	str	r1, [r5, #12]
      __b = _GLIBCXX_MOVE(__tmp);
   d4274:	60da      	str	r2, [r3, #12]
#endif
    {
      // concept requirements
      __glibcxx_function_requires(_SGIAssignableConcept<_Tp>)

      _Tp __tmp = _GLIBCXX_MOVE(__a);
   d4276:	6825      	ldr	r5, [r4, #0]
      __a = _GLIBCXX_MOVE(__b);
   d4278:	6023      	str	r3, [r4, #0]
      void
      reset(pointer __p = pointer()) noexcept
      {
	using std::swap;
	swap(std::get<0>(_M_t), __p);
	if (__p != pointer())
   d427a:	b135      	cbz	r5, d428a <_ZN6ThreadC1EPKcSt8functionIFvvEEhj+0x7a>
   *  @ingroup functors
   *
   *  Polymorphic function wrapper.
   */
  template<typename _Res, typename... _ArgTypes>
    class function<_Res(_ArgTypes...)>
   d427c:	4628      	mov	r0, r5
   d427e:	f7ff ff8c 	bl	d419a <_ZNSt14_Function_baseD1Ev>
      {
	static_assert(!is_void<_Tp>::value,
		      "can't delete pointer to incomplete type");
	static_assert(sizeof(_Tp)>0,
		      "can't delete pointer to incomplete type");
	delete __ptr;
   d4282:	2110      	movs	r1, #16
   d4284:	4628      	mov	r0, r5
   d4286:	f005 fafa 	bl	d987e <_ZdlPvj>
      }

      /// Return the stored pointer.
      pointer
      get() const noexcept
      { return std::get<0>(_M_t); }
   d428a:	6830      	ldr	r0, [r6, #0]
        if (!d_->wrapper) {
   d428c:	6803      	ldr	r3, [r0, #0]
   d428e:	b17b      	cbz	r3, d42b0 <_ZN6ThreadC1EPKcSt8functionIFvvEEhj+0xa0>
            goto error;
        }
        if (os_thread_create(&d_->handle, name, priority, &Thread::run, d_.get(), stack_size) != 0) {
   d4290:	9b0a      	ldr	r3, [sp, #40]	; 0x28
   d4292:	4642      	mov	r2, r8
   d4294:	e88d 0009 	stmia.w	sp, {r0, r3}
   d4298:	4639      	mov	r1, r7
   d429a:	4b0b      	ldr	r3, [pc, #44]	; (d42c8 <_ZN6ThreadC1EPKcSt8functionIFvvEEhj+0xb8>)
   d429c:	3004      	adds	r0, #4
   d429e:	f003 fa2d 	bl	d76fc <os_thread_create>
   d42a2:	b928      	cbnz	r0, d42b0 <_ZN6ThreadC1EPKcSt8functionIFvvEEhj+0xa0>
   d42a4:	6833      	ldr	r3, [r6, #0]
            goto error;
        }
        while (!d_->started) {
   d42a6:	7c1b      	ldrb	r3, [r3, #16]
   d42a8:	b943      	cbnz	r3, d42bc <_ZN6ThreadC1EPKcSt8functionIFvvEEhj+0xac>
            os_thread_yield();
   d42aa:	f003 fa37 	bl	d771c <os_thread_yield>
            goto error;
        }
        if (os_thread_create(&d_->handle, name, priority, &Thread::run, d_.get(), stack_size) != 0) {
            goto error;
        }
        while (!d_->started) {
   d42ae:	e7f9      	b.n	d42a4 <_ZN6ThreadC1EPKcSt8functionIFvvEEhj+0x94>
#endif
    {
      // concept requirements
      __glibcxx_function_requires(_SGIAssignableConcept<_Tp>)

      _Tp __tmp = _GLIBCXX_MOVE(__a);
   d42b0:	6830      	ldr	r0, [r6, #0]
      __a = _GLIBCXX_MOVE(__b);
   d42b2:	2300      	movs	r3, #0
   d42b4:	6033      	str	r3, [r6, #0]
      void
      reset(pointer __p = pointer()) noexcept
      {
	using std::swap;
	swap(std::get<0>(_M_t), __p);
	if (__p != pointer())
   d42b6:	b108      	cbz	r0, d42bc <_ZN6ThreadC1EPKcSt8functionIFvvEEhj+0xac>
	  get_deleter()(__p);
   d42b8:	f7ff ff78 	bl	d41ac <_ZNKSt14default_deleteIN6Thread4DataEEclEPS1_.isra.16>
            os_thread_yield();
        }
        return;
    error:
        d_.reset();
    }
   d42bc:	4630      	mov	r0, r6
   d42be:	b004      	add	sp, #16
   d42c0:	e8bd 81f0 	ldmia.w	sp!, {r4, r5, r6, r7, r8, pc}
   d42c4:	000dbe9c 	.word	0x000dbe9c
   d42c8:	000d4103 	.word	0x000d4103

000d42cc <_ZN10CloudClass7processEv>:
    static bool disconnected(void) { return !connected(); }
    static void connect(void) {
        spark_cloud_flag_connect();
    }
    static void disconnect(void) { spark_cloud_flag_disconnect(); }
    static void process(void) {
   d42cc:	b508      	push	{r3, lr}
		return !timeout_fn;
	}

	static inline system_tick_t current_time()
	{
		return HAL_Timer_Get_Milli_Seconds();
   d42ce:	f003 fa6d 	bl	d77ac <HAL_Timer_Get_Milli_Seconds>
	/**
	 * Lifesign that the application is still working normally.
	 */
	static void checkin()
	{
		last_checkin = current_time();
   d42d2:	4b03      	ldr	r3, [pc, #12]	; (d42e0 <_ZN10CloudClass7processEv+0x14>)
   d42d4:	6018      	str	r0, [r3, #0]
    		application_checkin();
    		spark_process();
    }
   d42d6:	e8bd 4008 	ldmia.w	sp!, {r3, lr}
        spark_cloud_flag_connect();
    }
    static void disconnect(void) { spark_cloud_flag_disconnect(); }
    static void process(void) {
    		application_checkin();
    		spark_process();
   d42da:	f003 bc6b 	b.w	d7bb4 <spark_process>
   d42de:	bf00      	nop
   d42e0:	2003e6e8 	.word	0x2003e6e8

000d42e4 <_ZNK10BlynkParam8iterator5asIntEv>:
        //long long   asLongLong() const  { return atoll(ptr); }
#ifndef BLYNK_NO_FLOAT
        double      asDouble() const    { if(!isValid()) return 0; return atof(ptr); }
        float       asFloat() const     { if(!isValid()) return 0; return atof(ptr); }
#endif
        bool isValid() const            { return ptr != NULL && ptr < limit; }
   d42e4:	6803      	ldr	r3, [r0, #0]
   d42e6:	b12b      	cbz	r3, d42f4 <_ZNK10BlynkParam8iterator5asIntEv+0x10>
   d42e8:	6842      	ldr	r2, [r0, #4]
   d42ea:	4293      	cmp	r3, r2
   d42ec:	d202      	bcs.n	d42f4 <_ZNK10BlynkParam8iterator5asIntEv+0x10>

        operator const char* () const   { return asStr(); }
        operator int () const           { return asInt(); }
        const char* asStr() const       { return ptr; }
        const char* asString() const    { return ptr; }
        int         asInt() const       { if(!isValid()) return 0; return atoi(ptr); }
   d42ee:	4618      	mov	r0, r3
   d42f0:	f006 b844 	b.w	da37c <atoi>
   d42f4:	2000      	movs	r0, #0
   d42f6:	4770      	bx	lr

000d42f8 <_ZN10BlynkParam8iteratorppEv>:
        bool isEmpty() const            { if(!isValid()) return true; return *ptr == '\0'; }

        bool operator <  (const iterator& it) const { return ptr < it.ptr; }
        bool operator >= (const iterator& it) const { return ptr >= it.ptr; }

        iterator& operator ++() {
   d42f8:	b538      	push	{r3, r4, r5, lr}
        //long long   asLongLong() const  { return atoll(ptr); }
#ifndef BLYNK_NO_FLOAT
        double      asDouble() const    { if(!isValid()) return 0; return atof(ptr); }
        float       asFloat() const     { if(!isValid()) return 0; return atof(ptr); }
#endif
        bool isValid() const            { return ptr != NULL && ptr < limit; }
   d42fa:	6805      	ldr	r5, [r0, #0]
        bool isEmpty() const            { if(!isValid()) return true; return *ptr == '\0'; }

        bool operator <  (const iterator& it) const { return ptr < it.ptr; }
        bool operator >= (const iterator& it) const { return ptr >= it.ptr; }

        iterator& operator ++() {
   d42fc:	4604      	mov	r4, r0
        //long long   asLongLong() const  { return atoll(ptr); }
#ifndef BLYNK_NO_FLOAT
        double      asDouble() const    { if(!isValid()) return 0; return atof(ptr); }
        float       asFloat() const     { if(!isValid()) return 0; return atof(ptr); }
#endif
        bool isValid() const            { return ptr != NULL && ptr < limit; }
   d42fe:	b145      	cbz	r5, d4312 <_ZN10BlynkParam8iteratorppEv+0x1a>
   d4300:	6843      	ldr	r3, [r0, #4]
   d4302:	429d      	cmp	r5, r3
   d4304:	d205      	bcs.n	d4312 <_ZN10BlynkParam8iteratorppEv+0x1a>
        bool operator <  (const iterator& it) const { return ptr < it.ptr; }
        bool operator >= (const iterator& it) const { return ptr >= it.ptr; }

        iterator& operator ++() {
            if(isValid()) {
                ptr += strlen(ptr) + 1;
   d4306:	4628      	mov	r0, r5
   d4308:	f006 f9af 	bl	da66a <strlen>
   d430c:	3001      	adds	r0, #1
   d430e:	4405      	add	r5, r0
   d4310:	6025      	str	r5, [r4, #0]
            }
            return *this;
        }
   d4312:	4620      	mov	r0, r4
   d4314:	bd38      	pop	{r3, r4, r5, pc}

000d4316 <_ZNK10BlynkParamixEi>:
    }
};

inline
BlynkParam::iterator BlynkParam::operator[](int index) const
{
   d4316:	b5f7      	push	{r0, r1, r2, r4, r5, r6, r7, lr}
    float       asFloat() const     { return atof(buff); }
#endif
    bool isEmpty() const            { return *buff == '\0'; }

    iterator begin() const { return iterator(buff, buff+len); }
    iterator end() const   { return iterator(buff+len, buff+len); }
   d4318:	e891 0028 	ldmia.w	r1, {r3, r5}
   d431c:	441d      	add	r5, r3
{
public:
    class iterator
    {
    public:
        iterator(const char* c, const char* l) : ptr(c), limit(l) {}
   d431e:	e88d 0028 	stmia.w	sp, {r3, r5}
    }
};

inline
BlynkParam::iterator BlynkParam::operator[](int index) const
{
   d4322:	4604      	mov	r4, r0
   d4324:	4616      	mov	r6, r2
   d4326:	466f      	mov	r7, sp
    const iterator e = end();
    for (iterator it = begin(); it < e; ++it) {
   d4328:	9b00      	ldr	r3, [sp, #0]
   d432a:	42ab      	cmp	r3, r5
   d432c:	d20a      	bcs.n	d4344 <_ZNK10BlynkParamixEi+0x2e>
        if (!index--) {
   d432e:	b926      	cbnz	r6, d433a <_ZNK10BlynkParamixEi+0x24>
            return it;
   d4330:	e897 0003 	ldmia.w	r7, {r0, r1}
   d4334:	e884 0003 	stmia.w	r4, {r0, r1}
   d4338:	e007      	b.n	d434a <_ZNK10BlynkParamixEi+0x34>

inline
BlynkParam::iterator BlynkParam::operator[](int index) const
{
    const iterator e = end();
    for (iterator it = begin(); it < e; ++it) {
   d433a:	4638      	mov	r0, r7
   d433c:	f7ff ffdc 	bl	d42f8 <_ZN10BlynkParam8iteratorppEv>
   d4340:	3e01      	subs	r6, #1
   d4342:	e7f1      	b.n	d4328 <_ZNK10BlynkParamixEi+0x12>
{
public:
    class iterator
    {
    public:
        iterator(const char* c, const char* l) : ptr(c), limit(l) {}
   d4344:	2300      	movs	r3, #0
   d4346:	6023      	str	r3, [r4, #0]
   d4348:	6063      	str	r3, [r4, #4]
        if (!index--) {
            return it;
        }
    }
    return iterator::invalid();
}
   d434a:	4620      	mov	r0, r4
   d434c:	b003      	add	sp, #12
   d434e:	bdf0      	pop	{r4, r5, r6, r7, pc}

000d4350 <_ZN10BlynkParam3addEPKc>:
    len += l;
}

inline
void BlynkParam::add(const char* str)
{
   d4350:	b5f8      	push	{r3, r4, r5, r6, r7, lr}
   d4352:	4604      	mov	r4, r0
    if (str == NULL) {
   d4354:	460f      	mov	r7, r1
   d4356:	6846      	ldr	r6, [r0, #4]
   d4358:	b921      	cbnz	r1, d4364 <_ZN10BlynkParam3addEPKc+0x14>
        buff[len++] = '\0';
   d435a:	6803      	ldr	r3, [r0, #0]
   d435c:	1c72      	adds	r2, r6, #1
   d435e:	6042      	str	r2, [r0, #4]
   d4360:	5599      	strb	r1, [r3, r6]
        return;
   d4362:	bdf8      	pop	{r3, r4, r5, r6, r7, pc}
    }
    add(str, strlen(str)+1);
   d4364:	4608      	mov	r0, r1
   d4366:	f006 f980 	bl	da66a <strlen>
}

inline
void BlynkParam::add(const void* b, size_t l)
{
    if (len + l > buff_size)
   d436a:	68a3      	ldr	r3, [r4, #8]
{
    if (str == NULL) {
        buff[len++] = '\0';
        return;
    }
    add(str, strlen(str)+1);
   d436c:	1c45      	adds	r5, r0, #1
}

inline
void BlynkParam::add(const void* b, size_t l)
{
    if (len + l > buff_size)
   d436e:	19aa      	adds	r2, r5, r6
   d4370:	429a      	cmp	r2, r3
   d4372:	d808      	bhi.n	d4386 <_ZN10BlynkParam3addEPKc+0x36>
        return;
    memcpy(buff+len, b, l);
   d4374:	6820      	ldr	r0, [r4, #0]
   d4376:	462a      	mov	r2, r5
   d4378:	4639      	mov	r1, r7
   d437a:	4430      	add	r0, r6
   d437c:	f006 f90c 	bl	da598 <memcpy>
    len += l;
   d4380:	6863      	ldr	r3, [r4, #4]
   d4382:	441d      	add	r5, r3
   d4384:	6065      	str	r5, [r4, #4]
   d4386:	bdf8      	pop	{r3, r4, r5, r6, r7, pc}

000d4388 <_ZN10BlynkParam3addEi>:

    #include <stdio.h>

    inline
    void BlynkParam::add(int value)
    {
   d4388:	b570      	push	{r4, r5, r6, lr}
   d438a:	4604      	mov	r4, r0
        len += snprintf(buff+len, buff_size-len, "%i", value)+1;
   d438c:	6840      	ldr	r0, [r0, #4]
   d438e:	68a6      	ldr	r6, [r4, #8]
   d4390:	6825      	ldr	r5, [r4, #0]
   d4392:	4a05      	ldr	r2, [pc, #20]	; (d43a8 <_ZN10BlynkParam3addEi+0x20>)
   d4394:	460b      	mov	r3, r1
   d4396:	1a31      	subs	r1, r6, r0
   d4398:	4428      	add	r0, r5
   d439a:	f003 fcbb 	bl	d7d14 <snprintf>
   d439e:	6863      	ldr	r3, [r4, #4]
   d43a0:	3001      	adds	r0, #1
   d43a2:	4418      	add	r0, r3
   d43a4:	6060      	str	r0, [r4, #4]
   d43a6:	bd70      	pop	{r4, r5, r6, pc}
   d43a8:	000dafa4 	.word	0x000dafa4

000d43ac <_ZN10BlynkParam3addEl>:
        len += snprintf(buff+len, buff_size-len, "%u", value)+1;
    }

    inline
    void BlynkParam::add(long value)
    {
   d43ac:	b570      	push	{r4, r5, r6, lr}
   d43ae:	4604      	mov	r4, r0
        len += snprintf(buff+len, buff_size-len, "%li", value)+1;
   d43b0:	6840      	ldr	r0, [r0, #4]
   d43b2:	68a6      	ldr	r6, [r4, #8]
   d43b4:	6825      	ldr	r5, [r4, #0]
   d43b6:	4a05      	ldr	r2, [pc, #20]	; (d43cc <_ZN10BlynkParam3addEl+0x20>)
   d43b8:	460b      	mov	r3, r1
   d43ba:	1a31      	subs	r1, r6, r0
   d43bc:	4428      	add	r0, r5
   d43be:	f003 fca9 	bl	d7d14 <snprintf>
   d43c2:	6863      	ldr	r3, [r4, #4]
   d43c4:	3001      	adds	r0, #1
   d43c6:	4418      	add	r0, r3
   d43c8:	6060      	str	r0, [r4, #4]
   d43ca:	bd70      	pop	{r4, r5, r6, pc}
   d43cc:	000dafa7 	.word	0x000dafa7

000d43d0 <_ZN10JsonBuffer9addStringEPKc>:
	/**
	 * @brief Add a c-string to the end of the buffer
	 *
	 * @param data Pointer to a c-string (null terminated).
	 */
	bool addString(const char *data) { return addData(data, strlen(data)); }
   d43d0:	b538      	push	{r3, r4, r5, lr}
   d43d2:	4605      	mov	r5, r0
   d43d4:	4608      	mov	r0, r1
   d43d6:	460c      	mov	r4, r1
   d43d8:	f006 f947 	bl	da66a <strlen>
   d43dc:	4621      	mov	r1, r4
   d43de:	4602      	mov	r2, r0
   d43e0:	4628      	mov	r0, r5
   d43e2:	e8bd 4038 	ldmia.w	sp!, {r3, r4, r5, lr}
   d43e6:	f002 b9a0 	b.w	d672a <_ZN10JsonBuffer7addDataEPKcj>
	...

000d43ec <_Z6hhmmssmi>:
void rainbow(uint8_t wait);
uint32_t Wheel(byte WheelPos);


String hhmmss(unsigned long int now, int timeZone)  //format value as "hh:mm:ss"
{
   d43ec:	b570      	push	{r4, r5, r6, lr}
   d43ee:	b08c      	sub	sp, #48	; 0x30
   d43f0:	460d      	mov	r5, r1
   d43f2:	4606      	mov	r6, r0
    String hour;
   d43f4:	4926      	ldr	r1, [pc, #152]	; (d4490 <_Z6hhmmssmi+0xa4>)
   d43f6:	4668      	mov	r0, sp
void rainbow(uint8_t wait);
uint32_t Wheel(byte WheelPos);


String hhmmss(unsigned long int now, int timeZone)  //format value as "hh:mm:ss"
{
   d43f8:	4614      	mov	r4, r2
    String hour;
   d43fa:	f004 fb41 	bl	d8a80 <_ZN6StringC1EPK19__FlashStringHelper>
    if(Time.hour(now)-timeZone<0){
   d43fe:	4628      	mov	r0, r5
   d4400:	f004 ff4e 	bl	d92a0 <_ZN9TimeClass4hourEl>
   d4404:	1b00      	subs	r0, r0, r4
   d4406:	2800      	cmp	r0, #0
        hour = String::format("%02i",Time.hour(now)-timeZone+24);
   d4408:	4628      	mov	r0, r5


String hhmmss(unsigned long int now, int timeZone)  //format value as "hh:mm:ss"
{
    String hour;
    if(Time.hour(now)-timeZone<0){
   d440a:	da04      	bge.n	d4416 <_Z6hhmmssmi+0x2a>
        hour = String::format("%02i",Time.hour(now)-timeZone+24);
   d440c:	f004 ff48 	bl	d92a0 <_ZN9TimeClass4hourEl>
   d4410:	1b02      	subs	r2, r0, r4
   d4412:	3218      	adds	r2, #24
   d4414:	e00d      	b.n	d4432 <_Z6hhmmssmi+0x46>
    } else if(Time.hour(now)-timeZone>24) {
   d4416:	f004 ff43 	bl	d92a0 <_ZN9TimeClass4hourEl>
   d441a:	1b00      	subs	r0, r0, r4
   d441c:	2818      	cmp	r0, #24
        hour = String::format("%02i",Time.hour(now)-timeZone-24);
   d441e:	4628      	mov	r0, r5
String hhmmss(unsigned long int now, int timeZone)  //format value as "hh:mm:ss"
{
    String hour;
    if(Time.hour(now)-timeZone<0){
        hour = String::format("%02i",Time.hour(now)-timeZone+24);
    } else if(Time.hour(now)-timeZone>24) {
   d4420:	dd04      	ble.n	d442c <_Z6hhmmssmi+0x40>
        hour = String::format("%02i",Time.hour(now)-timeZone-24);
   d4422:	f004 ff3d 	bl	d92a0 <_ZN9TimeClass4hourEl>
   d4426:	1b02      	subs	r2, r0, r4
   d4428:	3a18      	subs	r2, #24
   d442a:	e002      	b.n	d4432 <_Z6hhmmssmi+0x46>
    } else {
        hour = String::format("%02i",Time.hour(now)-timeZone);
   d442c:	f004 ff38 	bl	d92a0 <_ZN9TimeClass4hourEl>
   d4430:	1b02      	subs	r2, r0, r4
   d4432:	a808      	add	r0, sp, #32
   d4434:	4917      	ldr	r1, [pc, #92]	; (d4494 <_Z6hhmmssmi+0xa8>)
   d4436:	f004 fbdb 	bl	d8bf0 <_ZN6String6formatEPKcz>
   d443a:	a908      	add	r1, sp, #32
   d443c:	4668      	mov	r0, sp
   d443e:	f004 fb69 	bl	d8b14 <_ZN6StringaSEOS_>
   d4442:	a808      	add	r0, sp, #32
   d4444:	f004 fad5 	bl	d89f2 <_ZN6StringD1Ev>
    }
    String minute = String::format("%02i",Time.minute(now));
   d4448:	4628      	mov	r0, r5
   d444a:	f004 ff31 	bl	d92b0 <_ZN9TimeClass6minuteEl>
   d444e:	4911      	ldr	r1, [pc, #68]	; (d4494 <_Z6hhmmssmi+0xa8>)
   d4450:	4602      	mov	r2, r0
   d4452:	a804      	add	r0, sp, #16
   d4454:	f004 fbcc 	bl	d8bf0 <_ZN6String6formatEPKcz>
};

class StringSumHelper : public String
{
public:
	StringSumHelper(const String &s) : String(s) {}
   d4458:	4669      	mov	r1, sp
   d445a:	a808      	add	r0, sp, #32
   d445c:	f004 fb4f 	bl	d8afe <_ZN6StringC1ERKS_>
    return hour + ":" + minute;
   d4460:	490d      	ldr	r1, [pc, #52]	; (d4498 <_Z6hhmmssmi+0xac>)
   d4462:	a808      	add	r0, sp, #32
   d4464:	f004 fb9f 	bl	d8ba6 <_ZplRK15StringSumHelperPKc>
   d4468:	a904      	add	r1, sp, #16
   d446a:	f004 fb90 	bl	d8b8e <_ZplRK15StringSumHelperRK6String>
   d446e:	4601      	mov	r1, r0
   d4470:	4630      	mov	r0, r6
   d4472:	f004 fb44 	bl	d8afe <_ZN6StringC1ERKS_>

        friend class StringPrintableHelper;

};

class StringSumHelper : public String
   d4476:	a808      	add	r0, sp, #32
   d4478:	f004 fabb 	bl	d89f2 <_ZN6StringD1Ev>
    } else if(Time.hour(now)-timeZone>24) {
        hour = String::format("%02i",Time.hour(now)-timeZone-24);
    } else {
        hour = String::format("%02i",Time.hour(now)-timeZone);
    }
    String minute = String::format("%02i",Time.minute(now));
   d447c:	a804      	add	r0, sp, #16
   d447e:	f004 fab8 	bl	d89f2 <_ZN6StringD1Ev>
uint32_t Wheel(byte WheelPos);


String hhmmss(unsigned long int now, int timeZone)  //format value as "hh:mm:ss"
{
    String hour;
   d4482:	4668      	mov	r0, sp
   d4484:	f004 fab5 	bl	d89f2 <_ZN6StringD1Ev>
    } else {
        hour = String::format("%02i",Time.hour(now)-timeZone);
    }
    String minute = String::format("%02i",Time.minute(now));
    return hour + ":" + minute;
}
   d4488:	4630      	mov	r0, r6
   d448a:	b00c      	add	sp, #48	; 0x30
   d448c:	bd70      	pop	{r4, r5, r6, pc}
   d448e:	bf00      	nop
   d4490:	000dbc20 	.word	0x000dbc20
   d4494:	000dafab 	.word	0x000dafab
   d4498:	000dafb0 	.word	0x000dafb0

000d449c <_Z5Wheelh>:
    delay(wait);
  }
}

uint32_t Wheel(byte WheelPos) {
  if(WheelPos < 85) {
   d449c:	2854      	cmp	r0, #84	; 0x54
   d449e:	d809      	bhi.n	d44b4 <_Z5Wheelh+0x18>
   return strip.Color(WheelPos * 3, 255 - WheelPos * 3, 0);
   d44a0:	eba0 0180 	sub.w	r1, r0, r0, lsl #2
   d44a4:	3901      	subs	r1, #1
   d44a6:	eb00 0040 	add.w	r0, r0, r0, lsl #1
   d44aa:	2200      	movs	r2, #0
   d44ac:	b2c9      	uxtb	r1, r1
   d44ae:	b2c0      	uxtb	r0, r0
   d44b0:	f003 b8c7 	b.w	d7642 <_ZN17Adafruit_NeoPixel5ColorEhhh>
  } else if(WheelPos < 170) {
   d44b4:	28a9      	cmp	r0, #169	; 0xa9
   d44b6:	d80b      	bhi.n	d44d0 <_Z5Wheelh+0x34>
   WheelPos -= 85;
   d44b8:	3855      	subs	r0, #85	; 0x55
   d44ba:	b2c0      	uxtb	r0, r0
   return strip.Color(255 - WheelPos * 3, 0, WheelPos * 3);
   d44bc:	eb00 0240 	add.w	r2, r0, r0, lsl #1
   d44c0:	eba0 0080 	sub.w	r0, r0, r0, lsl #2
   d44c4:	3801      	subs	r0, #1
   d44c6:	b2d2      	uxtb	r2, r2
   d44c8:	2100      	movs	r1, #0
   d44ca:	b2c0      	uxtb	r0, r0
   d44cc:	f003 b8b9 	b.w	d7642 <_ZN17Adafruit_NeoPixel5ColorEhhh>
  } else {
   WheelPos -= 170;
   d44d0:	3056      	adds	r0, #86	; 0x56
   d44d2:	b2c1      	uxtb	r1, r0
   return strip.Color(0, WheelPos * 3, 255 - WheelPos * 3);
   d44d4:	eba1 0281 	sub.w	r2, r1, r1, lsl #2
   d44d8:	3a01      	subs	r2, #1
   d44da:	eb01 0141 	add.w	r1, r1, r1, lsl #1
   d44de:	b2d2      	uxtb	r2, r2
   d44e0:	b2c9      	uxtb	r1, r1
   d44e2:	2000      	movs	r0, #0
   d44e4:	f003 b8ad 	b.w	d7642 <_ZN17Adafruit_NeoPixel5ColorEhhh>

000d44e8 <_Z7rainbowh>:
  pinMode(D2, OUTPUT);
  strip.begin();
  strip.show();
}

void rainbow(uint8_t wait) {
   d44e8:	b570      	push	{r4, r5, r6, lr}
   d44ea:	4606      	mov	r6, r0
  uint16_t i, j;

  for(j=0; j<256; j++) {
   d44ec:	2500      	movs	r5, #0
   d44ee:	2400      	movs	r4, #0
    for(i=0; i<strip.numPixels(); i++) {
   d44f0:	480e      	ldr	r0, [pc, #56]	; (d452c <_Z7rainbowh+0x44>)
   d44f2:	f003 f8ab 	bl	d764c <_ZNK17Adafruit_NeoPixel9numPixelsEv>
   d44f6:	4284      	cmp	r4, r0
   d44f8:	d20b      	bcs.n	d4512 <_Z7rainbowh+0x2a>
      strip.setPixelColor(i, Wheel((i+j) & 255));
   d44fa:	1960      	adds	r0, r4, r5
   d44fc:	b2c0      	uxtb	r0, r0
   d44fe:	f7ff ffcd 	bl	d449c <_Z5Wheelh>
   d4502:	4621      	mov	r1, r4
   d4504:	4602      	mov	r2, r0

void rainbow(uint8_t wait) {
  uint16_t i, j;

  for(j=0; j<256; j++) {
    for(i=0; i<strip.numPixels(); i++) {
   d4506:	3401      	adds	r4, #1
      strip.setPixelColor(i, Wheel((i+j) & 255));
   d4508:	4808      	ldr	r0, [pc, #32]	; (d452c <_Z7rainbowh+0x44>)
   d450a:	f003 f84f 	bl	d75ac <_ZN17Adafruit_NeoPixel13setPixelColorEtm>

void rainbow(uint8_t wait) {
  uint16_t i, j;

  for(j=0; j<256; j++) {
    for(i=0; i<strip.numPixels(); i++) {
   d450e:	b2a4      	uxth	r4, r4
   d4510:	e7ee      	b.n	d44f0 <_Z7rainbowh+0x8>
      strip.setPixelColor(i, Wheel((i+j) & 255));
    }
    strip.show();
   d4512:	4806      	ldr	r0, [pc, #24]	; (d452c <_Z7rainbowh+0x44>)
}

void rainbow(uint8_t wait) {
  uint16_t i, j;

  for(j=0; j<256; j++) {
   d4514:	3501      	adds	r5, #1
    for(i=0; i<strip.numPixels(); i++) {
      strip.setPixelColor(i, Wheel((i+j) & 255));
    }
    strip.show();
   d4516:	f002 fea7 	bl	d7268 <_ZN17Adafruit_NeoPixel4showEv>
}

void rainbow(uint8_t wait) {
  uint16_t i, j;

  for(j=0; j<256; j++) {
   d451a:	b2ad      	uxth	r5, r5
    for(i=0; i<strip.numPixels(); i++) {
      strip.setPixelColor(i, Wheel((i+j) & 255));
    }
    strip.show();
    delay(wait);
   d451c:	4630      	mov	r0, r6
   d451e:	f003 fc21 	bl	d7d64 <delay>
}

void rainbow(uint8_t wait) {
  uint16_t i, j;

  for(j=0; j<256; j++) {
   d4522:	f5b5 7f80 	cmp.w	r5, #256	; 0x100
   d4526:	d1e2      	bne.n	d44ee <_Z7rainbowh+0x6>
      strip.setPixelColor(i, Wheel((i+j) & 255));
    }
    strip.show();
    delay(wait);
  }
}
   d4528:	bd70      	pop	{r4, r5, r6, pc}
   d452a:	bf00      	nop
   d452c:	2003dd34 	.word	0x2003dd34

000d4530 <BlynkWidgetWrite0>:
void ipHandler(const char *event, const char *data) {
  global_ip = data; //sets ip
  Serial.printlnf("global_ip=%s", global_ip.c_str()); //prints ip
}

BLYNK_WRITE(V0){
   d4530:	b510      	push	{r4, lr}
        : buff((char*)addr), len(length), buff_size(buffsize)
    {}

    const char* asStr() const       { return buff; }
    const char* asString() const    { return buff; }
    int         asInt() const       { return atoi(buff); }
   d4532:	6808      	ldr	r0, [r1, #0]
  timerTime = param.asInt() * 1000;
   d4534:	4c07      	ldr	r4, [pc, #28]	; (d4554 <BlynkWidgetWrite0+0x24>)
   d4536:	f005 ff21 	bl	da37c <atoi>
   d453a:	f44f 737a 	mov.w	r3, #1000	; 0x3e8
   d453e:	4358      	muls	r0, r3
   d4540:	6020      	str	r0, [r4, #0]
  Serial.println(timerTime);
   d4542:	f004 ffe9 	bl	d9518 <_Z16_fetch_usbserialv>
   d4546:	6821      	ldr	r1, [r4, #0]
   d4548:	220a      	movs	r2, #10
}
   d454a:	e8bd 4010 	ldmia.w	sp!, {r4, lr}
  Serial.printlnf("global_ip=%s", global_ip.c_str()); //prints ip
}

BLYNK_WRITE(V0){
  timerTime = param.asInt() * 1000;
  Serial.println(timerTime);
   d454e:	f004 b9af 	b.w	d88b0 <_ZN5Print7printlnEii>
   d4552:	bf00      	nop
   d4554:	2003db78 	.word	0x2003db78

000d4558 <BlynkWidgetWrite1>:
}

BLYNK_WRITE(V1){
   d4558:	b538      	push	{r3, r4, r5, lr}
   d455a:	460c      	mov	r4, r1
  Serial.println(param.asInt());
   d455c:	f004 ffdc 	bl	d9518 <_Z16_fetch_usbserialv>
   d4560:	4605      	mov	r5, r0
   d4562:	6820      	ldr	r0, [r4, #0]
   d4564:	f005 ff0a 	bl	da37c <atoi>
   d4568:	220a      	movs	r2, #10
   d456a:	4601      	mov	r1, r0
   d456c:	4628      	mov	r0, r5
   d456e:	f004 f99f 	bl	d88b0 <_ZN5Print7printlnEii>
   d4572:	6820      	ldr	r0, [r4, #0]
   d4574:	f005 ff02 	bl	da37c <atoi>
   d4578:	4b03      	ldr	r3, [pc, #12]	; (d4588 <BlynkWidgetWrite1+0x30>)
  if(param.asInt()==1){
   d457a:	2801      	cmp	r0, #1
    timerOn = 1;
  } else {
    timerOn = 0;
   d457c:	bf16      	itet	ne
   d457e:	2200      	movne	r2, #0
}

BLYNK_WRITE(V1){
  Serial.println(param.asInt());
  if(param.asInt()==1){
    timerOn = 1;
   d4580:	6018      	streq	r0, [r3, #0]
  } else {
    timerOn = 0;
   d4582:	601a      	strne	r2, [r3, #0]
   d4584:	bd38      	pop	{r3, r4, r5, pc}
   d4586:	bf00      	nop
   d4588:	2003ddbc 	.word	0x2003ddbc

000d458c <BlynkWidgetWrite2>:
  }
}

BLYNK_WRITE(V2){
   d458c:	b538      	push	{r3, r4, r5, lr}
   d458e:	460c      	mov	r4, r1
  Serial.println(param.asInt());
   d4590:	f004 ffc2 	bl	d9518 <_Z16_fetch_usbserialv>
   d4594:	4605      	mov	r5, r0
   d4596:	6820      	ldr	r0, [r4, #0]
   d4598:	f005 fef0 	bl	da37c <atoi>
   d459c:	220a      	movs	r2, #10
   d459e:	4601      	mov	r1, r0
   d45a0:	4628      	mov	r0, r5
   d45a2:	f004 f985 	bl	d88b0 <_ZN5Print7printlnEii>
   d45a6:	6820      	ldr	r0, [r4, #0]
   d45a8:	f005 fee8 	bl	da37c <atoi>
   d45ac:	4b03      	ldr	r3, [pc, #12]	; (d45bc <BlynkWidgetWrite2+0x30>)
  if(param.asInt()==1){
   d45ae:	2801      	cmp	r0, #1
    stopWatchOn = 1;
  } else {
    stopWatchOn = 0;
   d45b0:	bf16      	itet	ne
   d45b2:	2200      	movne	r2, #0
}

BLYNK_WRITE(V2){
  Serial.println(param.asInt());
  if(param.asInt()==1){
    stopWatchOn = 1;
   d45b4:	6018      	streq	r0, [r3, #0]
  } else {
    stopWatchOn = 0;
   d45b6:	601a      	strne	r2, [r3, #0]
   d45b8:	bd38      	pop	{r3, r4, r5, pc}
   d45ba:	bf00      	nop
   d45bc:	2003e320 	.word	0x2003e320

000d45c0 <BlynkWidgetWrite3>:
  }
}

BLYNK_WRITE(V3){
   d45c0:	b508      	push	{r3, lr}
   d45c2:	6808      	ldr	r0, [r1, #0]
   d45c4:	f005 feda 	bl	da37c <atoi>
  brightness = param.asInt();
   d45c8:	4b01      	ldr	r3, [pc, #4]	; (d45d0 <BlynkWidgetWrite3+0x10>)
   d45ca:	6018      	str	r0, [r3, #0]
   d45cc:	bd08      	pop	{r3, pc}
   d45ce:	bf00      	nop
   d45d0:	2003db74 	.word	0x2003db74

000d45d4 <BlynkWidgetWrite4>:
}

BLYNK_WRITE(V4){
   d45d4:	b513      	push	{r0, r1, r4, lr}
    r = param[0].asInt();
   d45d6:	2200      	movs	r2, #0
   d45d8:	4668      	mov	r0, sp

BLYNK_WRITE(V3){
  brightness = param.asInt();
}

BLYNK_WRITE(V4){
   d45da:	460c      	mov	r4, r1
    r = param[0].asInt();
   d45dc:	f7ff fe9b 	bl	d4316 <_ZNK10BlynkParamixEi>
   d45e0:	4668      	mov	r0, sp
   d45e2:	f7ff fe7f 	bl	d42e4 <_ZNK10BlynkParam8iterator5asIntEv>
   d45e6:	4b0c      	ldr	r3, [pc, #48]	; (d4618 <BlynkWidgetWrite4+0x44>)
    g = param[1].asInt();
   d45e8:	4621      	mov	r1, r4
BLYNK_WRITE(V3){
  brightness = param.asInt();
}

BLYNK_WRITE(V4){
    r = param[0].asInt();
   d45ea:	6018      	str	r0, [r3, #0]
    g = param[1].asInt();
   d45ec:	2201      	movs	r2, #1
   d45ee:	4668      	mov	r0, sp
   d45f0:	f7ff fe91 	bl	d4316 <_ZNK10BlynkParamixEi>
   d45f4:	4668      	mov	r0, sp
   d45f6:	f7ff fe75 	bl	d42e4 <_ZNK10BlynkParam8iterator5asIntEv>
   d45fa:	4b08      	ldr	r3, [pc, #32]	; (d461c <BlynkWidgetWrite4+0x48>)
    b = param[2].asInt();
   d45fc:	2202      	movs	r2, #2
  brightness = param.asInt();
}

BLYNK_WRITE(V4){
    r = param[0].asInt();
    g = param[1].asInt();
   d45fe:	6018      	str	r0, [r3, #0]
    b = param[2].asInt();
   d4600:	4621      	mov	r1, r4
   d4602:	4668      	mov	r0, sp
   d4604:	f7ff fe87 	bl	d4316 <_ZNK10BlynkParamixEi>
   d4608:	4668      	mov	r0, sp
   d460a:	f7ff fe6b 	bl	d42e4 <_ZNK10BlynkParam8iterator5asIntEv>
   d460e:	4b04      	ldr	r3, [pc, #16]	; (d4620 <BlynkWidgetWrite4+0x4c>)
   d4610:	6018      	str	r0, [r3, #0]
}
   d4612:	b002      	add	sp, #8
   d4614:	bd10      	pop	{r4, pc}
   d4616:	bf00      	nop
   d4618:	2003db70 	.word	0x2003db70
   d461c:	2003db6c 	.word	0x2003db6c
   d4620:	2003db7c 	.word	0x2003db7c

000d4624 <BlynkWidgetWrite6>:

BLYNK_WRITE(V6){
   d4624:	b508      	push	{r3, lr}
   d4626:	6808      	ldr	r0, [r1, #0]
   d4628:	f005 fea8 	bl	da37c <atoi>
  switch(param.asInt()){
   d462c:	3801      	subs	r0, #1
   d462e:	280d      	cmp	r0, #13
   d4630:	d847      	bhi.n	d46c2 <BlynkWidgetWrite6+0x9e>
   d4632:	e8df f000 	tbb	[pc, r0]
   d4636:	0b07      	.short	0x0b07
   d4638:	1b17130f 	.word	0x1b17130f
   d463c:	2e29241f 	.word	0x2e29241f
   d4640:	423d3833 	.word	0x423d3833
    case 1:{
      currentTimeZone = 7;
   d4644:	4b1f      	ldr	r3, [pc, #124]	; (d46c4 <BlynkWidgetWrite6+0xa0>)
   d4646:	2207      	movs	r2, #7
   d4648:	601a      	str	r2, [r3, #0]
      break;  
   d464a:	bd08      	pop	{r3, pc}
    }
    case 2:{
      currentTimeZone = 6;
   d464c:	4b1d      	ldr	r3, [pc, #116]	; (d46c4 <BlynkWidgetWrite6+0xa0>)
   d464e:	2206      	movs	r2, #6
   d4650:	601a      	str	r2, [r3, #0]
      break;
   d4652:	bd08      	pop	{r3, pc}
    }
    case 3:{
      currentTimeZone = 5;
   d4654:	4b1b      	ldr	r3, [pc, #108]	; (d46c4 <BlynkWidgetWrite6+0xa0>)
   d4656:	2205      	movs	r2, #5
   d4658:	601a      	str	r2, [r3, #0]
      break;
   d465a:	bd08      	pop	{r3, pc}
    }
    case 4:{
      currentTimeZone = 4;
   d465c:	4b19      	ldr	r3, [pc, #100]	; (d46c4 <BlynkWidgetWrite6+0xa0>)
   d465e:	2204      	movs	r2, #4
   d4660:	601a      	str	r2, [r3, #0]
      break;
   d4662:	bd08      	pop	{r3, pc}
    }
    case 5:{
      currentTimeZone = 3;
   d4664:	4b17      	ldr	r3, [pc, #92]	; (d46c4 <BlynkWidgetWrite6+0xa0>)
   d4666:	2203      	movs	r2, #3
   d4668:	601a      	str	r2, [r3, #0]
      break;
   d466a:	bd08      	pop	{r3, pc}
    }
    case 6:{
      currentTimeZone = 0;
   d466c:	4b15      	ldr	r3, [pc, #84]	; (d46c4 <BlynkWidgetWrite6+0xa0>)
   d466e:	2200      	movs	r2, #0
   d4670:	601a      	str	r2, [r3, #0]
      break;
   d4672:	bd08      	pop	{r3, pc}
    }
    case 7:{
      currentTimeZone = -1;
   d4674:	4b13      	ldr	r3, [pc, #76]	; (d46c4 <BlynkWidgetWrite6+0xa0>)
   d4676:	f04f 32ff 	mov.w	r2, #4294967295	; 0xffffffff
   d467a:	601a      	str	r2, [r3, #0]
      break;
   d467c:	bd08      	pop	{r3, pc}
    }
    case 8:{
      currentTimeZone = -2;
   d467e:	4b11      	ldr	r3, [pc, #68]	; (d46c4 <BlynkWidgetWrite6+0xa0>)
   d4680:	f06f 0201 	mvn.w	r2, #1
   d4684:	601a      	str	r2, [r3, #0]
      break;
   d4686:	bd08      	pop	{r3, pc}
    }
    case 9:{
      currentTimeZone = -3;
   d4688:	4b0e      	ldr	r3, [pc, #56]	; (d46c4 <BlynkWidgetWrite6+0xa0>)
   d468a:	f06f 0202 	mvn.w	r2, #2
   d468e:	601a      	str	r2, [r3, #0]
      break;
   d4690:	bd08      	pop	{r3, pc}
    }
    case 10:{
      currentTimeZone = -4;
   d4692:	4b0c      	ldr	r3, [pc, #48]	; (d46c4 <BlynkWidgetWrite6+0xa0>)
   d4694:	f06f 0203 	mvn.w	r2, #3
   d4698:	601a      	str	r2, [r3, #0]
      break;
   d469a:	bd08      	pop	{r3, pc}
    }
    case 11:{
      currentTimeZone = -8;
   d469c:	4b09      	ldr	r3, [pc, #36]	; (d46c4 <BlynkWidgetWrite6+0xa0>)
   d469e:	f06f 0207 	mvn.w	r2, #7
   d46a2:	601a      	str	r2, [r3, #0]
      break;
   d46a4:	bd08      	pop	{r3, pc}
    }
    case 12:{
      currentTimeZone = -9;
   d46a6:	4b07      	ldr	r3, [pc, #28]	; (d46c4 <BlynkWidgetWrite6+0xa0>)
   d46a8:	f06f 0208 	mvn.w	r2, #8
   d46ac:	601a      	str	r2, [r3, #0]
      break;
   d46ae:	bd08      	pop	{r3, pc}
    }
    case 13:{
      currentTimeZone = -10;
   d46b0:	4b04      	ldr	r3, [pc, #16]	; (d46c4 <BlynkWidgetWrite6+0xa0>)
   d46b2:	f06f 0209 	mvn.w	r2, #9
   d46b6:	601a      	str	r2, [r3, #0]
      break;
   d46b8:	bd08      	pop	{r3, pc}
    }
    case 14:{
      currentTimeZone = -12;
   d46ba:	4b02      	ldr	r3, [pc, #8]	; (d46c4 <BlynkWidgetWrite6+0xa0>)
   d46bc:	f06f 020b 	mvn.w	r2, #11
   d46c0:	601a      	str	r2, [r3, #0]
   d46c2:	bd08      	pop	{r3, pc}
   d46c4:	2003db80 	.word	0x2003db80

000d46c8 <_Z9stopwatchv>:
    matrix_1.show();
    delay(100);
    }
}

void stopwatch(){
   d46c8:	e92d 41f0 	stmdb	sp!, {r4, r5, r6, r7, r8, lr}
  if(stopWatchOn==1){
   d46cc:	4b92      	ldr	r3, [pc, #584]	; (d4918 <_Z9stopwatchv+0x250>)
   d46ce:	4d93      	ldr	r5, [pc, #588]	; (d491c <_Z9stopwatchv+0x254>)
   d46d0:	681e      	ldr	r6, [r3, #0]
   d46d2:	2e01      	cmp	r6, #1
   d46d4:	d15a      	bne.n	d478c <_Z9stopwatchv+0xc4>
  secondsdisplay+= 0.01;
   d46d6:	4c92      	ldr	r4, [pc, #584]	; (d4920 <_Z9stopwatchv+0x258>)
   d46d8:	6820      	ldr	r0, [r4, #0]
   d46da:	f005 fb99 	bl	d9e10 <__aeabi_f2d>
   d46de:	a38c      	add	r3, pc, #560	; (adr r3, d4910 <_Z9stopwatchv+0x248>)
   d46e0:	e9d3 2300 	ldrd	r2, r3, [r3]
   d46e4:	f005 fa36 	bl	d9b54 <__adddf3>
   d46e8:	f005 fdf8 	bl	da2dc <__aeabi_d2f>
  seconds += 1;
   d46ec:	682b      	ldr	r3, [r5, #0]
    }
}

void stopwatch(){
  if(stopWatchOn==1){
  secondsdisplay+= 0.01;
   d46ee:	6020      	str	r0, [r4, #0]
  seconds += 1;
   d46f0:	3301      	adds	r3, #1
  if(seconds==60){
   d46f2:	2b3c      	cmp	r3, #60	; 0x3c
}

void stopwatch(){
  if(stopWatchOn==1){
  secondsdisplay+= 0.01;
  seconds += 1;
   d46f4:	602b      	str	r3, [r5, #0]
  if(seconds==60){
   d46f6:	d132      	bne.n	d475e <_Z9stopwatchv+0x96>
    minutes+= 1;
   d46f8:	4f8a      	ldr	r7, [pc, #552]	; (d4924 <_Z9stopwatchv+0x25c>)
    secondsdisplay= 0;
    seconds = 0;
    matrix.fillScreen(0);
   d46fa:	488b      	ldr	r0, [pc, #556]	; (d4928 <_Z9stopwatchv+0x260>)
void stopwatch(){
  if(stopWatchOn==1){
  secondsdisplay+= 0.01;
  seconds += 1;
  if(seconds==60){
    minutes+= 1;
   d46fc:	683b      	ldr	r3, [r7, #0]
   d46fe:	3301      	adds	r3, #1
   d4700:	603b      	str	r3, [r7, #0]
    secondsdisplay= 0;
   d4702:	2300      	movs	r3, #0
   d4704:	6023      	str	r3, [r4, #0]
    seconds = 0;
   d4706:	2400      	movs	r4, #0
    matrix.fillScreen(0);
   d4708:	4621      	mov	r1, r4
  secondsdisplay+= 0.01;
  seconds += 1;
  if(seconds==60){
    minutes+= 1;
    secondsdisplay= 0;
    seconds = 0;
   d470a:	602c      	str	r4, [r5, #0]
    matrix.fillScreen(0);
   d470c:	f002 fc2e 	bl	d6f6c <_ZN18Adafruit_NeoMatrix10fillScreenEt>
    matrix.setCursor(1, 0);
   d4710:	4622      	mov	r2, r4
   d4712:	4631      	mov	r1, r6
   d4714:	4884      	ldr	r0, [pc, #528]	; (d4928 <_Z9stopwatchv+0x260>)
   d4716:	f001 ffa6 	bl	d6666 <_ZN12Adafruit_GFX9setCursorEss>
    matrix.print(minutes);
   d471a:	220a      	movs	r2, #10
   d471c:	6839      	ldr	r1, [r7, #0]
   d471e:	4882      	ldr	r0, [pc, #520]	; (d4928 <_Z9stopwatchv+0x260>)
   d4720:	f004 f8c4 	bl	d88ac <_ZN5Print5printEii>
    matrix.show();
   d4724:	4881      	ldr	r0, [pc, #516]	; (d492c <_Z9stopwatchv+0x264>)
   d4726:	f002 fd9f 	bl	d7268 <_ZN17Adafruit_NeoPixel4showEv>
    delay(500);
   d472a:	f44f 70fa 	mov.w	r0, #500	; 0x1f4
   d472e:	f003 fb19 	bl	d7d64 <delay>
    matrix.fillScreen(0);
   d4732:	4621      	mov	r1, r4
   d4734:	487c      	ldr	r0, [pc, #496]	; (d4928 <_Z9stopwatchv+0x260>)
   d4736:	f002 fc19 	bl	d6f6c <_ZN18Adafruit_NeoMatrix10fillScreenEt>
    matrix.setCursor(0, 0);
   d473a:	4622      	mov	r2, r4
   d473c:	4621      	mov	r1, r4
   d473e:	487a      	ldr	r0, [pc, #488]	; (d4928 <_Z9stopwatchv+0x260>)
   d4740:	f001 ff91 	bl	d6666 <_ZN12Adafruit_GFX9setCursorEss>
    matrix.print("M");
   d4744:	497a      	ldr	r1, [pc, #488]	; (d4930 <_Z9stopwatchv+0x268>)
   d4746:	4878      	ldr	r0, [pc, #480]	; (d4928 <_Z9stopwatchv+0x260>)
   d4748:	f004 f83e 	bl	d87c8 <_ZN5Print5printEPKc>
    matrix.show();
   d474c:	4877      	ldr	r0, [pc, #476]	; (d492c <_Z9stopwatchv+0x264>)
   d474e:	f002 fd8b 	bl	d7268 <_ZN17Adafruit_NeoPixel4showEv>
    delay(500);
   d4752:	f44f 70fa 	mov.w	r0, #500	; 0x1f4
      }
      matrix.show();
      delay(100);
    }
  }
}
   d4756:	e8bd 41f0 	ldmia.w	sp!, {r4, r5, r6, r7, r8, lr}
    delay(500);
    matrix.fillScreen(0);
    matrix.setCursor(0, 0);
    matrix.print("M");
    matrix.show();
    delay(500);
   d475a:	f003 bb03 	b.w	d7d64 <delay>
  } else {
    matrix.fillScreen(0);
   d475e:	2100      	movs	r1, #0
   d4760:	4871      	ldr	r0, [pc, #452]	; (d4928 <_Z9stopwatchv+0x260>)
   d4762:	f002 fc03 	bl	d6f6c <_ZN18Adafruit_NeoMatrix10fillScreenEt>
    matrix.setCursor(1, 0);
   d4766:	4631      	mov	r1, r6
   d4768:	2200      	movs	r2, #0
   d476a:	486f      	ldr	r0, [pc, #444]	; (d4928 <_Z9stopwatchv+0x260>)
   d476c:	f001 ff7b 	bl	d6666 <_ZN12Adafruit_GFX9setCursorEss>
    matrix.print(seconds);
   d4770:	6829      	ldr	r1, [r5, #0]
   d4772:	486d      	ldr	r0, [pc, #436]	; (d4928 <_Z9stopwatchv+0x260>)
   d4774:	220a      	movs	r2, #10
   d4776:	f004 f899 	bl	d88ac <_ZN5Print5printEii>
    matrix.show();
   d477a:	486c      	ldr	r0, [pc, #432]	; (d492c <_Z9stopwatchv+0x264>)
   d477c:	f002 fd74 	bl	d7268 <_ZN17Adafruit_NeoPixel4showEv>
    delay(1000);
   d4780:	f44f 707a 	mov.w	r0, #1000	; 0x3e8
      }
      matrix.show();
      delay(100);
    }
  }
}
   d4784:	e8bd 41f0 	ldmia.w	sp!, {r4, r5, r6, r7, r8, lr}
  } else {
    matrix.fillScreen(0);
    matrix.setCursor(1, 0);
    matrix.print(seconds);
    matrix.show();
    delay(1000);
   d4788:	f003 baec 	b.w	d7d64 <delay>
  }
  } else {
    if(seconds!=0 || minutes!=0){
   d478c:	682b      	ldr	r3, [r5, #0]
   d478e:	4f65      	ldr	r7, [pc, #404]	; (d4924 <_Z9stopwatchv+0x25c>)
   d4790:	4c68      	ldr	r4, [pc, #416]	; (d4934 <_Z9stopwatchv+0x26c>)
   d4792:	b91b      	cbnz	r3, d479c <_Z9stopwatchv+0xd4>
   d4794:	683e      	ldr	r6, [r7, #0]
   d4796:	2e00      	cmp	r6, #0
   d4798:	f000 8091 	beq.w	d48be <_Z9stopwatchv+0x1f6>
      matrix.fillScreen(0);
   d479c:	2100      	movs	r1, #0
   d479e:	4862      	ldr	r0, [pc, #392]	; (d4928 <_Z9stopwatchv+0x260>)
      matrix.show();
      delay(500);
      x1 = matrix.width();
      for(int i =0;i<45;i++){
        matrix.fillScreen(0);
        matrix.setCursor(x1, 0);
   d47a0:	f8df 8190 	ldr.w	r8, [pc, #400]	; d4934 <_Z9stopwatchv+0x26c>
    matrix.show();
    delay(1000);
  }
  } else {
    if(seconds!=0 || minutes!=0){
      matrix.fillScreen(0);
   d47a4:	f002 fbe2 	bl	d6f6c <_ZN18Adafruit_NeoMatrix10fillScreenEt>
      matrix.setCursor(1, 0);
   d47a8:	2200      	movs	r2, #0
   d47aa:	2101      	movs	r1, #1
   d47ac:	485e      	ldr	r0, [pc, #376]	; (d4928 <_Z9stopwatchv+0x260>)
   d47ae:	f001 ff5a 	bl	d6666 <_ZN12Adafruit_GFX9setCursorEss>
      matrix.print(minutes);
   d47b2:	220a      	movs	r2, #10
   d47b4:	6839      	ldr	r1, [r7, #0]
   d47b6:	485c      	ldr	r0, [pc, #368]	; (d4928 <_Z9stopwatchv+0x260>)
   d47b8:	f004 f878 	bl	d88ac <_ZN5Print5printEii>
      matrix.show();
   d47bc:	485b      	ldr	r0, [pc, #364]	; (d492c <_Z9stopwatchv+0x264>)
   d47be:	f002 fd53 	bl	d7268 <_ZN17Adafruit_NeoPixel4showEv>
      delay(500);
   d47c2:	f44f 70fa 	mov.w	r0, #500	; 0x1f4
   d47c6:	f003 facd 	bl	d7d64 <delay>
      x1 = matrix.width();
   d47ca:	4857      	ldr	r0, [pc, #348]	; (d4928 <_Z9stopwatchv+0x260>)
   d47cc:	f001 ff53 	bl	d6676 <_ZN12Adafruit_GFX5widthEv>
   d47d0:	262d      	movs	r6, #45	; 0x2d
   d47d2:	6020      	str	r0, [r4, #0]
      for(int i =0;i<45;i++){
        matrix.fillScreen(0);
   d47d4:	2100      	movs	r1, #0
   d47d6:	4854      	ldr	r0, [pc, #336]	; (d4928 <_Z9stopwatchv+0x260>)
   d47d8:	f002 fbc8 	bl	d6f6c <_ZN18Adafruit_NeoMatrix10fillScreenEt>
        matrix.setCursor(x1, 0);
   d47dc:	2200      	movs	r2, #0
   d47de:	f9b4 1000 	ldrsh.w	r1, [r4]
   d47e2:	4851      	ldr	r0, [pc, #324]	; (d4928 <_Z9stopwatchv+0x260>)
   d47e4:	f001 ff3f 	bl	d6666 <_ZN12Adafruit_GFX9setCursorEss>
        matrix.print("minutes");
   d47e8:	4953      	ldr	r1, [pc, #332]	; (d4938 <_Z9stopwatchv+0x270>)
   d47ea:	484f      	ldr	r0, [pc, #316]	; (d4928 <_Z9stopwatchv+0x260>)
   d47ec:	f003 ffec 	bl	d87c8 <_ZN5Print5printEPKc>
        if(--x1 < -36) {
   d47f0:	6823      	ldr	r3, [r4, #0]
   d47f2:	3b01      	subs	r3, #1
   d47f4:	6023      	str	r3, [r4, #0]
   d47f6:	3324      	adds	r3, #36	; 0x24
   d47f8:	da0d      	bge.n	d4816 <_Z9stopwatchv+0x14e>
        x1 = matrix.width();
   d47fa:	484b      	ldr	r0, [pc, #300]	; (d4928 <_Z9stopwatchv+0x260>)
   d47fc:	f001 ff3b 	bl	d6676 <_ZN12Adafruit_GFX5widthEv>
        matrix.setTextColor(matrix.Color(80, 255, 0));
   d4800:	21ff      	movs	r1, #255	; 0xff
      for(int i =0;i<45;i++){
        matrix.fillScreen(0);
        matrix.setCursor(x1, 0);
        matrix.print("minutes");
        if(--x1 < -36) {
        x1 = matrix.width();
   d4802:	f8c8 0000 	str.w	r0, [r8]
        matrix.setTextColor(matrix.Color(80, 255, 0));
   d4806:	2200      	movs	r2, #0
   d4808:	2050      	movs	r0, #80	; 0x50
   d480a:	f002 fcbb 	bl	d7184 <_ZN18Adafruit_NeoMatrix5ColorEhhh>
   d480e:	4601      	mov	r1, r0
   d4810:	4845      	ldr	r0, [pc, #276]	; (d4928 <_Z9stopwatchv+0x260>)
   d4812:	f001 ff2b 	bl	d666c <_ZN12Adafruit_GFX12setTextColorEt>
        }
        matrix.show();
   d4816:	4845      	ldr	r0, [pc, #276]	; (d492c <_Z9stopwatchv+0x264>)
   d4818:	f002 fd26 	bl	d7268 <_ZN17Adafruit_NeoPixel4showEv>
        delay(50);
   d481c:	2032      	movs	r0, #50	; 0x32
   d481e:	f003 faa1 	bl	d7d64 <delay>
      matrix.setCursor(1, 0);
      matrix.print(minutes);
      matrix.show();
      delay(500);
      x1 = matrix.width();
      for(int i =0;i<45;i++){
   d4822:	3e01      	subs	r6, #1
   d4824:	d1d6      	bne.n	d47d4 <_Z9stopwatchv+0x10c>
        matrix.setTextColor(matrix.Color(80, 255, 0));
        }
        matrix.show();
        delay(50);
      }
      matrix.fillScreen(0);
   d4826:	4631      	mov	r1, r6
   d4828:	483f      	ldr	r0, [pc, #252]	; (d4928 <_Z9stopwatchv+0x260>)
      matrix.show();
      delay(500);
      x1 = matrix.width();
      for(int i =0;i<45;i++){
        matrix.fillScreen(0);
        matrix.setCursor(x1, 0);
   d482a:	f8df 8108 	ldr.w	r8, [pc, #264]	; d4934 <_Z9stopwatchv+0x26c>
        matrix.setTextColor(matrix.Color(80, 255, 0));
        }
        matrix.show();
        delay(50);
      }
      matrix.fillScreen(0);
   d482e:	f002 fb9d 	bl	d6f6c <_ZN18Adafruit_NeoMatrix10fillScreenEt>
      matrix.setCursor(1, 0);
   d4832:	4632      	mov	r2, r6
   d4834:	2101      	movs	r1, #1
   d4836:	483c      	ldr	r0, [pc, #240]	; (d4928 <_Z9stopwatchv+0x260>)
   d4838:	f001 ff15 	bl	d6666 <_ZN12Adafruit_GFX9setCursorEss>
      matrix.print(seconds);
   d483c:	220a      	movs	r2, #10
   d483e:	6829      	ldr	r1, [r5, #0]
   d4840:	4839      	ldr	r0, [pc, #228]	; (d4928 <_Z9stopwatchv+0x260>)
   d4842:	f004 f833 	bl	d88ac <_ZN5Print5printEii>
      matrix.show();
   d4846:	4839      	ldr	r0, [pc, #228]	; (d492c <_Z9stopwatchv+0x264>)
   d4848:	f002 fd0e 	bl	d7268 <_ZN17Adafruit_NeoPixel4showEv>
      delay(500);
   d484c:	f44f 70fa 	mov.w	r0, #500	; 0x1f4
   d4850:	f003 fa88 	bl	d7d64 <delay>
      x1 = matrix.width();
   d4854:	4834      	ldr	r0, [pc, #208]	; (d4928 <_Z9stopwatchv+0x260>)
   d4856:	f001 ff0e 	bl	d6676 <_ZN12Adafruit_GFX5widthEv>
   d485a:	262d      	movs	r6, #45	; 0x2d
   d485c:	6020      	str	r0, [r4, #0]
      for(int i =0;i<45;i++){
        matrix.fillScreen(0);
   d485e:	2100      	movs	r1, #0
   d4860:	4831      	ldr	r0, [pc, #196]	; (d4928 <_Z9stopwatchv+0x260>)
   d4862:	f002 fb83 	bl	d6f6c <_ZN18Adafruit_NeoMatrix10fillScreenEt>
        matrix.setCursor(x1, 0);
   d4866:	2200      	movs	r2, #0
   d4868:	f9b4 1000 	ldrsh.w	r1, [r4]
   d486c:	482e      	ldr	r0, [pc, #184]	; (d4928 <_Z9stopwatchv+0x260>)
   d486e:	f001 fefa 	bl	d6666 <_ZN12Adafruit_GFX9setCursorEss>
        matrix.print("seconds");
   d4872:	4932      	ldr	r1, [pc, #200]	; (d493c <_Z9stopwatchv+0x274>)
   d4874:	482c      	ldr	r0, [pc, #176]	; (d4928 <_Z9stopwatchv+0x260>)
   d4876:	f003 ffa7 	bl	d87c8 <_ZN5Print5printEPKc>
        if(--x1 < -36) {
   d487a:	6823      	ldr	r3, [r4, #0]
   d487c:	3b01      	subs	r3, #1
   d487e:	6023      	str	r3, [r4, #0]
   d4880:	3324      	adds	r3, #36	; 0x24
   d4882:	da0d      	bge.n	d48a0 <_Z9stopwatchv+0x1d8>
        x1 = matrix.width();
   d4884:	4828      	ldr	r0, [pc, #160]	; (d4928 <_Z9stopwatchv+0x260>)
   d4886:	f001 fef6 	bl	d6676 <_ZN12Adafruit_GFX5widthEv>
        matrix.setTextColor(matrix.Color(80, 255, 0));
   d488a:	21ff      	movs	r1, #255	; 0xff
      for(int i =0;i<45;i++){
        matrix.fillScreen(0);
        matrix.setCursor(x1, 0);
        matrix.print("seconds");
        if(--x1 < -36) {
        x1 = matrix.width();
   d488c:	f8c8 0000 	str.w	r0, [r8]
        matrix.setTextColor(matrix.Color(80, 255, 0));
   d4890:	2200      	movs	r2, #0
   d4892:	2050      	movs	r0, #80	; 0x50
   d4894:	f002 fc76 	bl	d7184 <_ZN18Adafruit_NeoMatrix5ColorEhhh>
   d4898:	4601      	mov	r1, r0
   d489a:	4823      	ldr	r0, [pc, #140]	; (d4928 <_Z9stopwatchv+0x260>)
   d489c:	f001 fee6 	bl	d666c <_ZN12Adafruit_GFX12setTextColorEt>
        }
        matrix.show();
   d48a0:	4822      	ldr	r0, [pc, #136]	; (d492c <_Z9stopwatchv+0x264>)
   d48a2:	f002 fce1 	bl	d7268 <_ZN17Adafruit_NeoPixel4showEv>
        delay(50);
   d48a6:	2032      	movs	r0, #50	; 0x32
   d48a8:	f003 fa5c 	bl	d7d64 <delay>
      matrix.setCursor(1, 0);
      matrix.print(seconds);
      matrix.show();
      delay(500);
      x1 = matrix.width();
      for(int i =0;i<45;i++){
   d48ac:	3e01      	subs	r6, #1
   d48ae:	d1d6      	bne.n	d485e <_Z9stopwatchv+0x196>
        matrix.show();
        delay(50);
      }
      seconds = 0;
      minutes = 0;
      secondsdisplay = 0;
   d48b0:	4b1b      	ldr	r3, [pc, #108]	; (d4920 <_Z9stopwatchv+0x258>)
        matrix.setTextColor(matrix.Color(80, 255, 0));
        }
        matrix.show();
        delay(50);
      }
      seconds = 0;
   d48b2:	602e      	str	r6, [r5, #0]
      minutes = 0;
      secondsdisplay = 0;
   d48b4:	2200      	movs	r2, #0
        }
        matrix.show();
        delay(50);
      }
      seconds = 0;
      minutes = 0;
   d48b6:	603e      	str	r6, [r7, #0]
      secondsdisplay = 0;
   d48b8:	601a      	str	r2, [r3, #0]
   d48ba:	e8bd 81f0 	ldmia.w	sp!, {r4, r5, r6, r7, r8, pc}
    } else {
      matrix.fillScreen(0);
   d48be:	4631      	mov	r1, r6
   d48c0:	4819      	ldr	r0, [pc, #100]	; (d4928 <_Z9stopwatchv+0x260>)
   d48c2:	f002 fb53 	bl	d6f6c <_ZN18Adafruit_NeoMatrix10fillScreenEt>
      matrix.setCursor(x1, 0);
   d48c6:	4632      	mov	r2, r6
   d48c8:	f9b4 1000 	ldrsh.w	r1, [r4]
   d48cc:	4816      	ldr	r0, [pc, #88]	; (d4928 <_Z9stopwatchv+0x260>)
   d48ce:	f001 feca 	bl	d6666 <_ZN12Adafruit_GFX9setCursorEss>
      matrix.print(F("STOPWATCH"));
   d48d2:	491b      	ldr	r1, [pc, #108]	; (d4940 <_Z9stopwatchv+0x278>)
   d48d4:	4814      	ldr	r0, [pc, #80]	; (d4928 <_Z9stopwatchv+0x260>)
   d48d6:	f003 ff7e 	bl	d87d6 <_ZN5Print5printEPK19__FlashStringHelper>
      if(--x1 < -36) {
   d48da:	6823      	ldr	r3, [r4, #0]
   d48dc:	3b01      	subs	r3, #1
   d48de:	6023      	str	r3, [r4, #0]
   d48e0:	3324      	adds	r3, #36	; 0x24
   d48e2:	da0c      	bge.n	d48fe <_Z9stopwatchv+0x236>
        x1 = matrix.width();
   d48e4:	4810      	ldr	r0, [pc, #64]	; (d4928 <_Z9stopwatchv+0x260>)
   d48e6:	f001 fec6 	bl	d6676 <_ZN12Adafruit_GFX5widthEv>
        matrix.setTextColor(matrix.Color(80, 255, 0));
   d48ea:	21ff      	movs	r1, #255	; 0xff
    } else {
      matrix.fillScreen(0);
      matrix.setCursor(x1, 0);
      matrix.print(F("STOPWATCH"));
      if(--x1 < -36) {
        x1 = matrix.width();
   d48ec:	6020      	str	r0, [r4, #0]
        matrix.setTextColor(matrix.Color(80, 255, 0));
   d48ee:	4632      	mov	r2, r6
   d48f0:	2050      	movs	r0, #80	; 0x50
   d48f2:	f002 fc47 	bl	d7184 <_ZN18Adafruit_NeoMatrix5ColorEhhh>
   d48f6:	4601      	mov	r1, r0
   d48f8:	480b      	ldr	r0, [pc, #44]	; (d4928 <_Z9stopwatchv+0x260>)
   d48fa:	f001 feb7 	bl	d666c <_ZN12Adafruit_GFX12setTextColorEt>
      }
      matrix.show();
   d48fe:	480b      	ldr	r0, [pc, #44]	; (d492c <_Z9stopwatchv+0x264>)
   d4900:	f002 fcb2 	bl	d7268 <_ZN17Adafruit_NeoPixel4showEv>
      delay(100);
   d4904:	2064      	movs	r0, #100	; 0x64
    }
  }
}
   d4906:	e8bd 41f0 	ldmia.w	sp!, {r4, r5, r6, r7, r8, lr}
      if(--x1 < -36) {
        x1 = matrix.width();
        matrix.setTextColor(matrix.Color(80, 255, 0));
      }
      matrix.show();
      delay(100);
   d490a:	f003 ba2b 	b.w	d7d64 <delay>
   d490e:	bf00      	nop
   d4910:	47ae147b 	.word	0x47ae147b
   d4914:	3f847ae1 	.word	0x3f847ae1
   d4918:	2003e320 	.word	0x2003e320
   d491c:	2003ddc0 	.word	0x2003ddc0
   d4920:	2003dc74 	.word	0x2003dc74
   d4924:	2003dc40 	.word	0x2003dc40
   d4928:	2003dc98 	.word	0x2003dc98
   d492c:	2003dcb4 	.word	0x2003dcb4
   d4930:	000dafb2 	.word	0x000dafb2
   d4934:	2003dcdc 	.word	0x2003dcdc
   d4938:	000dafb4 	.word	0x000dafb4
   d493c:	000dafbc 	.word	0x000dafbc
   d4940:	000dafc4 	.word	0x000dafc4

000d4944 <loop>:
  }
}
}

void loop(){
  delay(CONCURRENT_WAIT_FOREVER);
   d4944:	f04f 30ff 	mov.w	r0, #4294967295	; 0xffffffff
   d4948:	f003 ba0c 	b.w	d7d64 <delay>

000d494c <_ZNSt14__shared_countILN9__gnu_cxx12_Lock_policyE0EED1Ev>:
      explicit __shared_count(const __weak_count<_Lp>& __r);

      // Does not throw if __r._M_get_use_count() == 0, caller must check.
      explicit __shared_count(const __weak_count<_Lp>& __r, std::nothrow_t);

      ~__shared_count() noexcept
   d494c:	b538      	push	{r3, r4, r5, lr}
      {
	if (_M_pi != nullptr)
   d494e:	6804      	ldr	r4, [r0, #0]
      explicit __shared_count(const __weak_count<_Lp>& __r);

      // Does not throw if __r._M_get_use_count() == 0, caller must check.
      explicit __shared_count(const __weak_count<_Lp>& __r, std::nothrow_t);

      ~__shared_count() noexcept
   d4950:	4605      	mov	r5, r0
      {
	if (_M_pi != nullptr)
   d4952:	b17c      	cbz	r4, d4974 <_ZNSt14__shared_countILN9__gnu_cxx12_Lock_policyE0EED1Ev+0x28>

  template<>
    inline void
    _Sp_counted_base<_S_single>::_M_release() noexcept
    {
      if (--_M_use_count == 0)
   d4954:	6863      	ldr	r3, [r4, #4]
   d4956:	3b01      	subs	r3, #1
   d4958:	6063      	str	r3, [r4, #4]
   d495a:	b95b      	cbnz	r3, d4974 <_ZNSt14__shared_countILN9__gnu_cxx12_Lock_policyE0EED1Ev+0x28>
        {
          _M_dispose();
   d495c:	6823      	ldr	r3, [r4, #0]
   d495e:	4620      	mov	r0, r4
   d4960:	689b      	ldr	r3, [r3, #8]
   d4962:	4798      	blx	r3
          if (--_M_weak_count == 0)
   d4964:	68a3      	ldr	r3, [r4, #8]
   d4966:	3b01      	subs	r3, #1
   d4968:	60a3      	str	r3, [r4, #8]
   d496a:	b91b      	cbnz	r3, d4974 <_ZNSt14__shared_countILN9__gnu_cxx12_Lock_policyE0EED1Ev+0x28>
            _M_destroy();
   d496c:	6823      	ldr	r3, [r4, #0]
   d496e:	4620      	mov	r0, r4
   d4970:	68db      	ldr	r3, [r3, #12]
   d4972:	4798      	blx	r3

      ~__shared_count() noexcept
      {
	if (_M_pi != nullptr)
	  _M_pi->_M_release();
      }
   d4974:	4628      	mov	r0, r5
   d4976:	bd38      	pop	{r3, r4, r5, pc}

000d4978 <_Z15weatherFunctionv>:
   WheelPos -= 170;
   return strip.Color(0, WheelPos * 3, 255 - WheelPos * 3);
  }
}

void weatherFunction(){
   d4978:	b530      	push	{r4, r5, lr}
   d497a:	4d1e      	ldr	r5, [pc, #120]	; (d49f4 <_Z15weatherFunctionv+0x7c>)
   d497c:	b095      	sub	sp, #84	; 0x54
   d497e:	782b      	ldrb	r3, [r5, #0]
        return publish(eventName, eventData, 60, flags1, flags2);
    }

    inline particle::Future<bool> publish(const char *eventName, const char *eventData, int ttl, PublishFlags flags1, PublishFlags flags2 = PublishFlags())
    {
        return publish_event(eventName, eventData, ttl, flags1 | flags2);
   d4980:	491d      	ldr	r1, [pc, #116]	; (d49f8 <_Z15weatherFunctionv+0x80>)
   d4982:	f88d 3000 	strb.w	r3, [sp]
   d4986:	2200      	movs	r2, #0
   d4988:	233c      	movs	r3, #60	; 0x3c
   d498a:	a804      	add	r0, sp, #16
   d498c:	f003 fb44 	bl	d8018 <_ZN10CloudClass13publish_eventEPKcS1_iN8particle5FlagsI15PublishFlagTypehEE>
	: _M_ptr(__p), _M_refcount(__r._M_refcount) // never throws
	{ }

      __shared_ptr(const __shared_ptr&) noexcept = default;
      __shared_ptr& operator=(const __shared_ptr&) noexcept = default;
      ~__shared_ptr() = default;
   d4990:	a805      	add	r0, sp, #20
   d4992:	f7ff ffdb 	bl	d494c <_ZNSt14__shared_countILN9__gnu_cxx12_Lock_policyE0EED1Ev>
  while(1){
  // Step 1: get IP
  Particle.publish("particle/device/ip"); //requests public ip from particle
  delay(4000);
   d4996:	f44f 607a 	mov.w	r0, #4000	; 0xfa0
   d499a:	f003 f9e3 	bl	d7d64 <delay>
   d499e:	4c17      	ldr	r4, [pc, #92]	; (d49fc <_Z15weatherFunctionv+0x84>)
   d49a0:	4b17      	ldr	r3, [pc, #92]	; (d4a00 <_Z15weatherFunctionv+0x88>)
   d49a2:	4918      	ldr	r1, [pc, #96]	; (d4a04 <_Z15weatherFunctionv+0x8c>)
   d49a4:	681a      	ldr	r2, [r3, #0]
   d49a6:	7823      	ldrb	r3, [r4, #0]
   d49a8:	f88d 3000 	strb.w	r3, [sp]
   d49ac:	a804      	add	r0, sp, #16
   d49ae:	233c      	movs	r3, #60	; 0x3c
   d49b0:	f003 fb32 	bl	d8018 <_ZN10CloudClass13publish_eventEPKcS1_iN8particle5FlagsI15PublishFlagTypehEE>
   d49b4:	a805      	add	r0, sp, #20
   d49b6:	f7ff ffc9 	bl	d494c <_ZNSt14__shared_countILN9__gnu_cxx12_Lock_policyE0EED1Ev>
  // Step 2: get geo location
  Particle.publish("geoip", global_ip.c_str(), PRIVATE); //requests data from particle and translates it into a char*
  delay(4000);
   d49ba:	f44f 607a 	mov.w	r0, #4000	; 0xfa0
   d49be:	f003 f9d1 	bl	d7d64 <delay>
   d49c2:	4b11      	ldr	r3, [pc, #68]	; (d4a08 <_Z15weatherFunctionv+0x90>)
  // Step 3: get temp
  char data[64]; //data buffer for integrating lat and lon for webhook
  sprintf(data, "%s,%s", global_lat.c_str(), global_lon.c_str());//move to geoip handler so is step by step
   d49c4:	4a11      	ldr	r2, [pc, #68]	; (d4a0c <_Z15weatherFunctionv+0x94>)
   d49c6:	681b      	ldr	r3, [r3, #0]
   d49c8:	6812      	ldr	r2, [r2, #0]
   d49ca:	4911      	ldr	r1, [pc, #68]	; (d4a10 <_Z15weatherFunctionv+0x98>)
   d49cc:	a804      	add	r0, sp, #16
   d49ce:	f003 f989 	bl	d7ce4 <sprintf>
   d49d2:	7823      	ldrb	r3, [r4, #0]
   d49d4:	f88d 3000 	strb.w	r3, [sp]
   d49d8:	aa04      	add	r2, sp, #16
   d49da:	233c      	movs	r3, #60	; 0x3c
   d49dc:	490d      	ldr	r1, [pc, #52]	; (d4a14 <_Z15weatherFunctionv+0x9c>)
   d49de:	a802      	add	r0, sp, #8
   d49e0:	f003 fb1a 	bl	d8018 <_ZN10CloudClass13publish_eventEPKcS1_iN8particle5FlagsI15PublishFlagTypehEE>
   d49e4:	a803      	add	r0, sp, #12
   d49e6:	f7ff ffb1 	bl	d494c <_ZNSt14__shared_countILN9__gnu_cxx12_Lock_policyE0EED1Ev>
  Particle.publish("tempRead", data, PRIVATE);//                    that way it is event driven
  delay(10000);
   d49ea:	f242 7010 	movw	r0, #10000	; 0x2710
   d49ee:	f003 f9b9 	bl	d7d64 <delay>
   d49f2:	e7c4      	b.n	d497e <_Z15weatherFunctionv+0x6>
   d49f4:	2003dd5c 	.word	0x2003dd5c
   d49f8:	000dafce 	.word	0x000dafce
   d49fc:	2003dc54 	.word	0x2003dc54
   d4a00:	2003e324 	.word	0x2003e324
   d4a04:	000db0b6 	.word	0x000db0b6
   d4a08:	2003dc80 	.word	0x2003dc80
   d4a0c:	2003e310 	.word	0x2003e310
   d4a10:	000dafe1 	.word	0x000dafe1
   d4a14:	000db0ca 	.word	0x000db0ca

000d4a18 <_ZN22BlynkTransportParticleD1Ev>:
#define BlynkParticle_h

#include "BlynkApiParticle.h"
#include "Blynk/BlynkProtocol.h"

class BlynkTransportParticle
   d4a18:	b510      	push	{r4, lr}
class TCPClient : public Client {

public:
    TCPClient();
    TCPClient(sock_handle_t sock);
    virtual ~TCPClient() {};
   d4a1a:	4b04      	ldr	r3, [pc, #16]	; (d4a2c <_ZN22BlynkTransportParticleD1Ev+0x14>)
   d4a1c:	4604      	mov	r4, r0
   d4a1e:	f840 3b18 	str.w	r3, [r0], #24
   d4a22:	f7ff ff93 	bl	d494c <_ZNSt14__shared_countILN9__gnu_cxx12_Lock_policyE0EED1Ev>
   d4a26:	4620      	mov	r0, r4
   d4a28:	bd10      	pop	{r4, pc}
   d4a2a:	bf00      	nop
   d4a2c:	000dbd84 	.word	0x000dbd84

000d4a30 <_ZNK10JsonParser18getOuterValueByKeyI6StringEEbPKcRT_>:
	 *
	 * This should only be used for things like string, numbers, booleans, etc.. If you want to get a JSON array
	 * or object within an object, use getValueTokenByKey() instead.
	 */
	template<class T>
	bool getOuterValueByKey(const char *name, T &result) const {
   d4a30:	b573      	push	{r0, r1, r4, r5, r6, lr}
   d4a32:	460e      	mov	r6, r1
   d4a34:	4604      	mov	r4, r0
   d4a36:	4615      	mov	r5, r2
		const JsonParserGeneratorRK::jsmntok_t *value;

		if (getValueTokenByKey(getOuterObject(), name, value)) {
   d4a38:	f001 fea8 	bl	d678c <_ZNK10JsonParser14getOuterObjectEv>
   d4a3c:	ab01      	add	r3, sp, #4
   d4a3e:	4601      	mov	r1, r0
   d4a40:	4632      	mov	r2, r6
   d4a42:	4620      	mov	r0, r4
   d4a44:	f001 ffaa 	bl	d699c <_ZNK10JsonParser18getValueTokenByKeyEPKN21JsonParserGeneratorRK9jsmntok_tEPKcRS3_>
   d4a48:	b120      	cbz	r0, d4a54 <_ZNK10JsonParser18getOuterValueByKeyI6StringEEbPKcRT_+0x24>
			return getTokenValue(value, result);
   d4a4a:	462a      	mov	r2, r5
   d4a4c:	9901      	ldr	r1, [sp, #4]
   d4a4e:	4620      	mov	r0, r4
   d4a50:	f001 ff86 	bl	d6960 <_ZNK10JsonParser13getTokenValueEPKN21JsonParserGeneratorRK9jsmntok_tER6String>
		}
		else {
			return false;
		}
	}
   d4a54:	b002      	add	sp, #8
   d4a56:	bd70      	pop	{r4, r5, r6, pc}

000d4a58 <_Z11tempHandlerPKcS0_>:
  }
}

void tempHandler(const char *event, const char *data) { //callback for temp webhook
   d4a58:	b573      	push	{r0, r1, r4, r5, r6, lr}
  // Handle the integration response
  jsonParser.addString(data); //adds json to buffer
   d4a5a:	4815      	ldr	r0, [pc, #84]	; (d4ab0 <_Z11tempHandlerPKcS0_+0x58>)
   d4a5c:	f7ff fcb8 	bl	d43d0 <_ZN10JsonBuffer9addStringEPKc>
  if (jsonParser.parse()) {
   d4a60:	4813      	ldr	r0, [pc, #76]	; (d4ab0 <_Z11tempHandlerPKcS0_+0x58>)
   d4a62:	f002 f994 	bl	d6d8e <_ZN10JsonParser5parseEv>
   d4a66:	b1e0      	cbz	r0, d4aa2 <_Z11tempHandlerPKcS0_+0x4a>
    jsonParser.getOuterValueByKey("tempReceived", tempReceived); //parses
   d4a68:	4c12      	ldr	r4, [pc, #72]	; (d4ab4 <_Z11tempHandlerPKcS0_+0x5c>)
    jsonParser.getOuterValueByKey("currentStatus", currentStatus);
   d4a6a:	4d13      	ldr	r5, [pc, #76]	; (d4ab8 <_Z11tempHandlerPKcS0_+0x60>)

void tempHandler(const char *event, const char *data) { //callback for temp webhook
  // Handle the integration response
  jsonParser.addString(data); //adds json to buffer
  if (jsonParser.parse()) {
    jsonParser.getOuterValueByKey("tempReceived", tempReceived); //parses
   d4a6c:	4913      	ldr	r1, [pc, #76]	; (d4abc <_Z11tempHandlerPKcS0_+0x64>)
    jsonParser.getOuterValueByKey("currentStatus", currentStatus);
    jsonParser.getOuterValueByKey("percipProb", precipProb);
   d4a6e:	4e14      	ldr	r6, [pc, #80]	; (d4ac0 <_Z11tempHandlerPKcS0_+0x68>)

void tempHandler(const char *event, const char *data) { //callback for temp webhook
  // Handle the integration response
  jsonParser.addString(data); //adds json to buffer
  if (jsonParser.parse()) {
    jsonParser.getOuterValueByKey("tempReceived", tempReceived); //parses
   d4a70:	480f      	ldr	r0, [pc, #60]	; (d4ab0 <_Z11tempHandlerPKcS0_+0x58>)
   d4a72:	4622      	mov	r2, r4
   d4a74:	f7ff ffdc 	bl	d4a30 <_ZNK10JsonParser18getOuterValueByKeyI6StringEEbPKcRT_>
    jsonParser.getOuterValueByKey("currentStatus", currentStatus);
   d4a78:	462a      	mov	r2, r5
   d4a7a:	4912      	ldr	r1, [pc, #72]	; (d4ac4 <_Z11tempHandlerPKcS0_+0x6c>)
   d4a7c:	480c      	ldr	r0, [pc, #48]	; (d4ab0 <_Z11tempHandlerPKcS0_+0x58>)
   d4a7e:	f7ff ffd7 	bl	d4a30 <_ZNK10JsonParser18getOuterValueByKeyI6StringEEbPKcRT_>
    jsonParser.getOuterValueByKey("percipProb", precipProb);
   d4a82:	4632      	mov	r2, r6
   d4a84:	4910      	ldr	r1, [pc, #64]	; (d4ac8 <_Z11tempHandlerPKcS0_+0x70>)
   d4a86:	480a      	ldr	r0, [pc, #40]	; (d4ab0 <_Z11tempHandlerPKcS0_+0x58>)
   d4a88:	f7ff ffd2 	bl	d4a30 <_ZNK10JsonParser18getOuterValueByKeyI6StringEEbPKcRT_>
    // Put code to do something with tempMin and tempMax here
    Serial.printlnf("tempReceived=%s, currentStatus=%s, precipitationProbability:%s", tempReceived.c_str(), currentStatus.c_str(), precipProb.c_str()); //translates String to char* 
   d4a8c:	f004 fd44 	bl	d9518 <_Z16_fetch_usbserialv>
   d4a90:	6833      	ldr	r3, [r6, #0]
   d4a92:	9301      	str	r3, [sp, #4]
   d4a94:	682b      	ldr	r3, [r5, #0]
   d4a96:	9300      	str	r3, [sp, #0]
   d4a98:	4a0c      	ldr	r2, [pc, #48]	; (d4acc <_Z11tempHandlerPKcS0_+0x74>)
   d4a9a:	6823      	ldr	r3, [r4, #0]
   d4a9c:	2101      	movs	r1, #1
   d4a9e:	f003 ff11 	bl	d88c4 <_ZN5Print11printf_implEbPKcz>
  }
  jsonParser.clear();//clears buffer so that geographical data can be parsed correctly
   d4aa2:	4803      	ldr	r0, [pc, #12]	; (d4ab0 <_Z11tempHandlerPKcS0_+0x58>)
}
   d4aa4:	b002      	add	sp, #8
   d4aa6:	e8bd 4070 	ldmia.w	sp!, {r4, r5, r6, lr}
    jsonParser.getOuterValueByKey("currentStatus", currentStatus);
    jsonParser.getOuterValueByKey("percipProb", precipProb);
    // Put code to do something with tempMin and tempMax here
    Serial.printlnf("tempReceived=%s, currentStatus=%s, precipitationProbability:%s", tempReceived.c_str(), currentStatus.c_str(), precipProb.c_str()); //translates String to char* 
  }
  jsonParser.clear();//clears buffer so that geographical data can be parsed correctly
   d4aaa:	f001 be5c 	b.w	d6766 <_ZN10JsonBuffer5clearEv>
   d4aae:	bf00      	nop
   d4ab0:	2003ddc4 	.word	0x2003ddc4
   d4ab4:	2003e354 	.word	0x2003e354
   d4ab8:	2003ddac 	.word	0x2003ddac
   d4abc:	000dafe7 	.word	0x000dafe7
   d4ac0:	2003dd60 	.word	0x2003dd60
   d4ac4:	000daff4 	.word	0x000daff4
   d4ac8:	000db002 	.word	0x000db002
   d4acc:	000db00d 	.word	0x000db00d

000d4ad0 <_Z12geoIpHandlerPKcS0_>:
}

void geoIpHandler(const char *event, const char *data) { //callback for geoip webhook
   d4ad0:	b537      	push	{r0, r1, r2, r4, r5, lr}
  jsonParser.addString(data); //this input uses a response template on the particle console to simplify the response
   d4ad2:	4811      	ldr	r0, [pc, #68]	; (d4b18 <_Z12geoIpHandlerPKcS0_+0x48>)
   d4ad4:	f7ff fc7c 	bl	d43d0 <_ZN10JsonBuffer9addStringEPKc>
  if (jsonParser.parse()) {
   d4ad8:	480f      	ldr	r0, [pc, #60]	; (d4b18 <_Z12geoIpHandlerPKcS0_+0x48>)
   d4ada:	f002 f958 	bl	d6d8e <_ZN10JsonParser5parseEv>
   d4ade:	b1a0      	cbz	r0, d4b0a <_Z12geoIpHandlerPKcS0_+0x3a>
    jsonParser.getOuterValueByKey("latitude", global_lat);
   d4ae0:	4c0e      	ldr	r4, [pc, #56]	; (d4b1c <_Z12geoIpHandlerPKcS0_+0x4c>)
    jsonParser.getOuterValueByKey("longitude", global_lon);
   d4ae2:	4d0f      	ldr	r5, [pc, #60]	; (d4b20 <_Z12geoIpHandlerPKcS0_+0x50>)
}

void geoIpHandler(const char *event, const char *data) { //callback for geoip webhook
  jsonParser.addString(data); //this input uses a response template on the particle console to simplify the response
  if (jsonParser.parse()) {
    jsonParser.getOuterValueByKey("latitude", global_lat);
   d4ae4:	490f      	ldr	r1, [pc, #60]	; (d4b24 <_Z12geoIpHandlerPKcS0_+0x54>)
   d4ae6:	480c      	ldr	r0, [pc, #48]	; (d4b18 <_Z12geoIpHandlerPKcS0_+0x48>)
   d4ae8:	4622      	mov	r2, r4
   d4aea:	f7ff ffa1 	bl	d4a30 <_ZNK10JsonParser18getOuterValueByKeyI6StringEEbPKcRT_>
    jsonParser.getOuterValueByKey("longitude", global_lon);
   d4aee:	462a      	mov	r2, r5
   d4af0:	490d      	ldr	r1, [pc, #52]	; (d4b28 <_Z12geoIpHandlerPKcS0_+0x58>)
   d4af2:	4809      	ldr	r0, [pc, #36]	; (d4b18 <_Z12geoIpHandlerPKcS0_+0x48>)
   d4af4:	f7ff ff9c 	bl	d4a30 <_ZNK10JsonParser18getOuterValueByKeyI6StringEEbPKcRT_>
    Serial.printlnf("lat=%s,lon=%s", global_lat.c_str(), global_lon.c_str());
   d4af8:	f004 fd0e 	bl	d9518 <_Z16_fetch_usbserialv>
   d4afc:	682b      	ldr	r3, [r5, #0]
   d4afe:	9300      	str	r3, [sp, #0]
   d4b00:	4a0a      	ldr	r2, [pc, #40]	; (d4b2c <_Z12geoIpHandlerPKcS0_+0x5c>)
   d4b02:	6823      	ldr	r3, [r4, #0]
   d4b04:	2101      	movs	r1, #1
   d4b06:	f003 fedd 	bl	d88c4 <_ZN5Print11printf_implEbPKcz>
  }
  jsonParser.clear(); //clears the parser buffer so the temp can be parsed correctly
   d4b0a:	4803      	ldr	r0, [pc, #12]	; (d4b18 <_Z12geoIpHandlerPKcS0_+0x48>)
}
   d4b0c:	b003      	add	sp, #12
   d4b0e:	e8bd 4030 	ldmia.w	sp!, {r4, r5, lr}
  if (jsonParser.parse()) {
    jsonParser.getOuterValueByKey("latitude", global_lat);
    jsonParser.getOuterValueByKey("longitude", global_lon);
    Serial.printlnf("lat=%s,lon=%s", global_lat.c_str(), global_lon.c_str());
  }
  jsonParser.clear(); //clears the parser buffer so the temp can be parsed correctly
   d4b12:	f001 be28 	b.w	d6766 <_ZN10JsonBuffer5clearEv>
   d4b16:	bf00      	nop
   d4b18:	2003ddc4 	.word	0x2003ddc4
   d4b1c:	2003e310 	.word	0x2003e310
   d4b20:	2003dc80 	.word	0x2003dc80
   d4b24:	000db04c 	.word	0x000db04c
   d4b28:	000db055 	.word	0x000db055
   d4b2c:	000db05f 	.word	0x000db05f

000d4b30 <_ZN13BlynkProtocolI22BlynkTransportParticleE17internalReconnectEv>:
#endif
    }

private:

    void internalReconnect() {
   d4b30:	b508      	push	{r3, lr}
        state = CONNECTING;
   d4b32:	2300      	movs	r3, #0
   d4b34:	7743      	strb	r3, [r0, #29]
            return (1 == client.connect(addr, port));
        }
        return 0;
    }

    void disconnect() { client.stop(); }
   d4b36:	6800      	ldr	r0, [r0, #0]
   d4b38:	f004 faa0 	bl	d907c <_ZN9TCPClient4stopEv>
        conn.disconnect();
        BlynkOnDisconnected();
    }
   d4b3c:	e8bd 4008 	ldmia.w	sp!, {r3, lr}
private:

    void internalReconnect() {
        state = CONNECTING;
        conn.disconnect();
        BlynkOnDisconnected();
   d4b40:	f002 b9de 	b.w	d6f00 <BlynkNoOpCbk>

000d4b44 <_ZN8BlynkApiI13BlynkProtocolI22BlynkTransportParticleEE10processCmdEPKvj>:
    #endif
#endif

template<class Proto>
BLYNK_FORCE_INLINE
void BlynkApi<Proto>::processCmd(const void* buff, size_t len)
   d4b44:	e92d 41f0 	stmdb	sp!, {r4, r5, r6, r7, r8, lr}
    double      asDouble() const    { return atof(buff); }
    float       asFloat() const     { return atof(buff); }
#endif
    bool isEmpty() const            { return *buff == '\0'; }

    iterator begin() const { return iterator(buff, buff+len); }
   d4b48:	188e      	adds	r6, r1, r2
   d4b4a:	b08e      	sub	sp, #56	; 0x38
{
    BlynkParam param((void*)buff, len);
    BlynkParam::iterator it = param.begin();
    if (it >= param.end())
   d4b4c:	42b1      	cmp	r1, r6
    #endif
#endif

template<class Proto>
BLYNK_FORCE_INLINE
void BlynkApi<Proto>::processCmd(const void* buff, size_t len)
   d4b4e:	4680      	mov	r8, r0
   d4b50:	460d      	mov	r5, r1
   d4b52:	4617      	mov	r7, r2
{
public:
    class iterator
    {
    public:
        iterator(const char* c, const char* l) : ptr(c), limit(l) {}
   d4b54:	9105      	str	r1, [sp, #20]
   d4b56:	9606      	str	r6, [sp, #24]
{
    BlynkParam param((void*)buff, len);
    BlynkParam::iterator it = param.begin();
    if (it >= param.end())
   d4b58:	f080 811e 	bcs.w	d4d98 <_ZN8BlynkApiI13BlynkProtocolI22BlynkTransportParticleEE10processCmdEPKvj+0x254>
        return;
    const char* cmd = it.asStr();
    uint16_t cmd16;
    memcpy(&cmd16, cmd, sizeof(cmd16));
   d4b5c:	880b      	ldrh	r3, [r1, #0]
   d4b5e:	f8ad 3012 	strh.w	r3, [sp, #18]
    if (++it >= param.end())
   d4b62:	a805      	add	r0, sp, #20
   d4b64:	f7ff fbc8 	bl	d42f8 <_ZN10BlynkParam8iteratorppEv>
   d4b68:	6803      	ldr	r3, [r0, #0]
   d4b6a:	429e      	cmp	r6, r3
   d4b6c:	f240 8114 	bls.w	d4d98 <_ZN8BlynkApiI13BlynkProtocolI22BlynkTransportParticleEE10processCmdEPKvj+0x254>
   d4b70:	9805      	ldr	r0, [sp, #20]
        return;

    uint8_t pin = BLYNK_DECODE_PIN(it);
   d4b72:	7803      	ldrb	r3, [r0, #0]
   d4b74:	2b41      	cmp	r3, #65	; 0x41
   d4b76:	d113      	bne.n	d4ba0 <_ZN8BlynkApiI13BlynkProtocolI22BlynkTransportParticleEE10processCmdEPKvj+0x5c>
   d4b78:	3001      	adds	r0, #1
   d4b7a:	f005 fbff 	bl	da37c <atoi>
   d4b7e:	2805      	cmp	r0, #5
   d4b80:	dd01      	ble.n	d4b86 <_ZN8BlynkApiI13BlynkProtocolI22BlynkTransportParticleEE10processCmdEPKvj+0x42>
   d4b82:	24ff      	movs	r4, #255	; 0xff
   d4b84:	e010      	b.n	d4ba8 <_ZN8BlynkApiI13BlynkProtocolI22BlynkTransportParticleEE10processCmdEPKvj+0x64>
   d4b86:	9805      	ldr	r0, [sp, #20]
   d4b88:	3001      	adds	r0, #1
   d4b8a:	f005 fbf7 	bl	da37c <atoi>
   d4b8e:	2800      	cmp	r0, #0
   d4b90:	dbf7      	blt.n	d4b82 <_ZN8BlynkApiI13BlynkProtocolI22BlynkTransportParticleEE10processCmdEPKvj+0x3e>
   d4b92:	9805      	ldr	r0, [sp, #20]
   d4b94:	3001      	adds	r0, #1
   d4b96:	f005 fbf1 	bl	da37c <atoi>
   d4b9a:	300e      	adds	r0, #14
   d4b9c:	b2c4      	uxtb	r4, r0
   d4b9e:	e003      	b.n	d4ba8 <_ZN8BlynkApiI13BlynkProtocolI22BlynkTransportParticleEE10processCmdEPKvj+0x64>
   d4ba0:	a805      	add	r0, sp, #20
   d4ba2:	f7ff fb9f 	bl	d42e4 <_ZNK10BlynkParam8iterator5asIntEv>
   d4ba6:	b2c4      	uxtb	r4, r0

    switch(cmd16) {
   d4ba8:	f8bd 3012 	ldrh.w	r3, [sp, #18]
   d4bac:	f247 2276 	movw	r2, #29302	; 0x7276
   d4bb0:	4293      	cmp	r3, r2
   d4bb2:	f000 80b5 	beq.w	d4d20 <_ZN8BlynkApiI13BlynkProtocolI22BlynkTransportParticleEE10processCmdEPKvj+0x1dc>
   d4bb6:	d80d      	bhi.n	d4bd4 <_ZN8BlynkApiI13BlynkProtocolI22BlynkTransportParticleEE10processCmdEPKvj+0x90>
   d4bb8:	f247 2261 	movw	r2, #29281	; 0x7261
   d4bbc:	4293      	cmp	r3, r2
   d4bbe:	d07b      	beq.n	d4cb8 <_ZN8BlynkApiI13BlynkProtocolI22BlynkTransportParticleEE10processCmdEPKvj+0x174>
   d4bc0:	f247 2264 	movw	r2, #29284	; 0x7264
   d4bc4:	4293      	cmp	r3, r2
   d4bc6:	d050      	beq.n	d4c6a <_ZN8BlynkApiI13BlynkProtocolI22BlynkTransportParticleEE10processCmdEPKvj+0x126>
   d4bc8:	f646 5270 	movw	r2, #28016	; 0x6d70
   d4bcc:	4293      	cmp	r3, r2
   d4bce:	f040 80d2 	bne.w	d4d76 <_ZN8BlynkApiI13BlynkProtocolI22BlynkTransportParticleEE10processCmdEPKvj+0x232>
   d4bd2:	e034      	b.n	d4c3e <_ZN8BlynkApiI13BlynkProtocolI22BlynkTransportParticleEE10processCmdEPKvj+0xfa>
   d4bd4:	f247 7264 	movw	r2, #30564	; 0x7764
   d4bd8:	4293      	cmp	r3, r2
   d4bda:	d058      	beq.n	d4c8e <_ZN8BlynkApiI13BlynkProtocolI22BlynkTransportParticleEE10processCmdEPKvj+0x14a>
   d4bdc:	f247 7276 	movw	r2, #30582	; 0x7776
   d4be0:	4293      	cmp	r3, r2
   d4be2:	f000 80ae 	beq.w	d4d42 <_ZN8BlynkApiI13BlynkProtocolI22BlynkTransportParticleEE10processCmdEPKvj+0x1fe>
   d4be6:	f247 7261 	movw	r2, #30561	; 0x7761
   d4bea:	4293      	cmp	r3, r2
   d4bec:	f040 80c3 	bne.w	d4d76 <_ZN8BlynkApiI13BlynkProtocolI22BlynkTransportParticleEE10processCmdEPKvj+0x232>
   d4bf0:	e083      	b.n	d4cfa <_ZN8BlynkApiI13BlynkProtocolI22BlynkTransportParticleEE10processCmdEPKvj+0x1b6>

#ifndef BLYNK_NO_BUILTIN

    case BLYNK_HW_PM: {
        while (it < param.end()) {
            pin = BLYNK_DECODE_PIN(it);
   d4bf2:	7803      	ldrb	r3, [r0, #0]
   d4bf4:	2b41      	cmp	r3, #65	; 0x41
   d4bf6:	d133      	bne.n	d4c60 <_ZN8BlynkApiI13BlynkProtocolI22BlynkTransportParticleEE10processCmdEPKvj+0x11c>
   d4bf8:	3001      	adds	r0, #1
   d4bfa:	f005 fbbf 	bl	da37c <atoi>
   d4bfe:	2805      	cmp	r0, #5
   d4c00:	dd21      	ble.n	d4c46 <_ZN8BlynkApiI13BlynkProtocolI22BlynkTransportParticleEE10processCmdEPKvj+0x102>
   d4c02:	24ff      	movs	r4, #255	; 0xff
            ++it;
   d4c04:	a805      	add	r0, sp, #20
   d4c06:	f7ff fb77 	bl	d42f8 <_ZN10BlynkParam8iteratorppEv>
   d4c0a:	9d05      	ldr	r5, [sp, #20]
            if (!strcmp(it.asStr(), "in")) {
   d4c0c:	4964      	ldr	r1, [pc, #400]	; (d4da0 <_ZN8BlynkApiI13BlynkProtocolI22BlynkTransportParticleEE10processCmdEPKvj+0x25c>)
   d4c0e:	4628      	mov	r0, r5
   d4c10:	f005 fcfe 	bl	da610 <strcmp>
   d4c14:	4601      	mov	r1, r0
   d4c16:	2800      	cmp	r0, #0
   d4c18:	f000 80ba 	beq.w	d4d90 <_ZN8BlynkApiI13BlynkProtocolI22BlynkTransportParticleEE10processCmdEPKvj+0x24c>
                pinMode(pin, INPUT);
            } else if (!strcmp(it.asStr(), "out") || !strcmp(it.asStr(), "pwm")) {
   d4c1c:	4961      	ldr	r1, [pc, #388]	; (d4da4 <_ZN8BlynkApiI13BlynkProtocolI22BlynkTransportParticleEE10processCmdEPKvj+0x260>)
   d4c1e:	4628      	mov	r0, r5
   d4c20:	f005 fcf6 	bl	da610 <strcmp>
   d4c24:	2800      	cmp	r0, #0
   d4c26:	f000 80b2 	beq.w	d4d8e <_ZN8BlynkApiI13BlynkProtocolI22BlynkTransportParticleEE10processCmdEPKvj+0x24a>
   d4c2a:	495f      	ldr	r1, [pc, #380]	; (d4da8 <_ZN8BlynkApiI13BlynkProtocolI22BlynkTransportParticleEE10processCmdEPKvj+0x264>)
   d4c2c:	4628      	mov	r0, r5
   d4c2e:	f005 fcef 	bl	da610 <strcmp>
   d4c32:	2800      	cmp	r0, #0
   d4c34:	f000 80ab 	beq.w	d4d8e <_ZN8BlynkApiI13BlynkProtocolI22BlynkTransportParticleEE10processCmdEPKvj+0x24a>
            } else {
#ifdef BLYNK_DEBUG
                BLYNK_LOG4(BLYNK_F("Invalid pin "), pin, BLYNK_F(" mode "), it.asStr());
#endif
            }
            ++it;
   d4c38:	a805      	add	r0, sp, #20
   d4c3a:	f7ff fb5d 	bl	d42f8 <_ZN10BlynkParam8iteratorppEv>
   d4c3e:	9805      	ldr	r0, [sp, #20]
    switch(cmd16) {

#ifndef BLYNK_NO_BUILTIN

    case BLYNK_HW_PM: {
        while (it < param.end()) {
   d4c40:	4286      	cmp	r6, r0
   d4c42:	d8d6      	bhi.n	d4bf2 <_ZN8BlynkApiI13BlynkProtocolI22BlynkTransportParticleEE10processCmdEPKvj+0xae>
   d4c44:	e0a8      	b.n	d4d98 <_ZN8BlynkApiI13BlynkProtocolI22BlynkTransportParticleEE10processCmdEPKvj+0x254>
            pin = BLYNK_DECODE_PIN(it);
   d4c46:	9805      	ldr	r0, [sp, #20]
   d4c48:	3001      	adds	r0, #1
   d4c4a:	f005 fb97 	bl	da37c <atoi>
   d4c4e:	2800      	cmp	r0, #0
   d4c50:	dbd7      	blt.n	d4c02 <_ZN8BlynkApiI13BlynkProtocolI22BlynkTransportParticleEE10processCmdEPKvj+0xbe>
   d4c52:	9805      	ldr	r0, [sp, #20]
   d4c54:	3001      	adds	r0, #1
   d4c56:	f005 fb91 	bl	da37c <atoi>
   d4c5a:	300e      	adds	r0, #14
   d4c5c:	b2c4      	uxtb	r4, r0
   d4c5e:	e7d1      	b.n	d4c04 <_ZN8BlynkApiI13BlynkProtocolI22BlynkTransportParticleEE10processCmdEPKvj+0xc0>
   d4c60:	a805      	add	r0, sp, #20
   d4c62:	f7ff fb3f 	bl	d42e4 <_ZNK10BlynkParam8iterator5asIntEv>
   d4c66:	b2c4      	uxtb	r4, r0
   d4c68:	e7cc      	b.n	d4c04 <_ZN8BlynkApiI13BlynkProtocolI22BlynkTransportParticleEE10processCmdEPKvj+0xc0>
        : buff((char*)addr), len(length), buff_size(length)
    {}

    explicit
    BlynkParam(void* addr, size_t length, size_t buffsize)
        : buff((char*)addr), len(length), buff_size(buffsize)
   d4c6a:	ab0a      	add	r3, sp, #40	; 0x28
   d4c6c:	9307      	str	r3, [sp, #28]
        }
    } break;
    case BLYNK_HW_DR: {
        char mem[16];
        BlynkParam rsp(mem, 0, sizeof(mem));
        rsp.add("dw");
   d4c6e:	a807      	add	r0, sp, #28
   d4c70:	2310      	movs	r3, #16
   d4c72:	2500      	movs	r5, #0
   d4c74:	494d      	ldr	r1, [pc, #308]	; (d4dac <_ZN8BlynkApiI13BlynkProtocolI22BlynkTransportParticleEE10processCmdEPKvj+0x268>)
   d4c76:	9309      	str	r3, [sp, #36]	; 0x24
   d4c78:	9508      	str	r5, [sp, #32]
   d4c7a:	f7ff fb69 	bl	d4350 <_ZN10BlynkParam3addEPKc>
        rsp.add(pin);
   d4c7e:	a807      	add	r0, sp, #28
   d4c80:	4621      	mov	r1, r4
   d4c82:	f7ff fb81 	bl	d4388 <_ZN10BlynkParam3addEi>
        rsp.add(digitalRead(pin));
   d4c86:	4620      	mov	r0, r4
   d4c88:	f004 fd62 	bl	d9750 <digitalRead>
   d4c8c:	e025      	b.n	d4cda <_ZN8BlynkApiI13BlynkProtocolI22BlynkTransportParticleEE10processCmdEPKvj+0x196>
        static_cast<Proto*>(this)->sendCmd(BLYNK_CMD_HARDWARE, 0, rsp.getBuffer(), rsp.getLength()-1);
    } break;
    case BLYNK_HW_DW: {
        // Should be 1 parameter (value)
        if (++it >= param.end())
   d4c8e:	a805      	add	r0, sp, #20
   d4c90:	f7ff fb32 	bl	d42f8 <_ZN10BlynkParam8iteratorppEv>
   d4c94:	6803      	ldr	r3, [r0, #0]
   d4c96:	429e      	cmp	r6, r3
   d4c98:	d97e      	bls.n	d4d98 <_ZN8BlynkApiI13BlynkProtocolI22BlynkTransportParticleEE10processCmdEPKvj+0x254>
#ifdef ESP8266
        // Disable PWM...
        analogWrite(pin, 0);
#endif
#ifndef BLYNK_MINIMIZE_PINMODE_USAGE
        pinMode(pin, OUTPUT);
   d4c9a:	b2a4      	uxth	r4, r4
   d4c9c:	2101      	movs	r1, #1
   d4c9e:	4620      	mov	r0, r4
   d4ca0:	f004 fd2c 	bl	d96fc <pinMode>
#endif
        digitalWrite(pin, it.asInt() ? HIGH : LOW);
   d4ca4:	a805      	add	r0, sp, #20
   d4ca6:	f7ff fb1d 	bl	d42e4 <_ZNK10BlynkParam8iterator5asIntEv>
   d4caa:	1c01      	adds	r1, r0, #0
   d4cac:	bf18      	it	ne
   d4cae:	2101      	movne	r1, #1
   d4cb0:	4620      	mov	r0, r4
   d4cb2:	f004 fd34 	bl	d971e <digitalWrite>
    } break;
   d4cb6:	e06f      	b.n	d4d98 <_ZN8BlynkApiI13BlynkProtocolI22BlynkTransportParticleEE10processCmdEPKvj+0x254>
   d4cb8:	ab0a      	add	r3, sp, #40	; 0x28
   d4cba:	9307      	str	r3, [sp, #28]
    case BLYNK_HW_AR: {
        char mem[16];
        BlynkParam rsp(mem, 0, sizeof(mem));
        rsp.add("aw");
   d4cbc:	493c      	ldr	r1, [pc, #240]	; (d4db0 <_ZN8BlynkApiI13BlynkProtocolI22BlynkTransportParticleEE10processCmdEPKvj+0x26c>)
   d4cbe:	2310      	movs	r3, #16
   d4cc0:	a807      	add	r0, sp, #28
   d4cc2:	2500      	movs	r5, #0
   d4cc4:	9309      	str	r3, [sp, #36]	; 0x24
   d4cc6:	9508      	str	r5, [sp, #32]
   d4cc8:	f7ff fb42 	bl	d4350 <_ZN10BlynkParam3addEPKc>
        rsp.add(pin);
   d4ccc:	a807      	add	r0, sp, #28
   d4cce:	4621      	mov	r1, r4
   d4cd0:	f7ff fb5a 	bl	d4388 <_ZN10BlynkParam3addEi>
        rsp.add(analogRead(pin));
   d4cd4:	4620      	mov	r0, r4
   d4cd6:	f004 fd4e 	bl	d9776 <analogRead>
   d4cda:	4601      	mov	r1, r0
   d4cdc:	a807      	add	r0, sp, #28
   d4cde:	f7ff fb65 	bl	d43ac <_ZN10BlynkParam3addEl>
        static_cast<Proto*>(this)->sendCmd(BLYNK_CMD_HARDWARE, 0, rsp.getBuffer(), rsp.getLength()-1);
   d4ce2:	9b08      	ldr	r3, [sp, #32]
   d4ce4:	9502      	str	r5, [sp, #8]
   d4ce6:	3b01      	subs	r3, #1
   d4ce8:	9300      	str	r3, [sp, #0]
   d4cea:	9501      	str	r5, [sp, #4]
   d4cec:	9b07      	ldr	r3, [sp, #28]
   d4cee:	462a      	mov	r2, r5
   d4cf0:	2114      	movs	r1, #20
   d4cf2:	4640      	mov	r0, r8
   d4cf4:	f000 fb9c 	bl	d5430 <_ZN13BlynkProtocolI22BlynkTransportParticleE7sendCmdEhtPKvjS3_j>
    } break;
   d4cf8:	e04e      	b.n	d4d98 <_ZN8BlynkApiI13BlynkProtocolI22BlynkTransportParticleEE10processCmdEPKvj+0x254>
    case BLYNK_HW_AW: {
        // Should be 1 parameter (value)
        if (++it >= param.end())
   d4cfa:	a805      	add	r0, sp, #20
   d4cfc:	f7ff fafc 	bl	d42f8 <_ZN10BlynkParam8iteratorppEv>
   d4d00:	6803      	ldr	r3, [r0, #0]
   d4d02:	429e      	cmp	r6, r3
   d4d04:	d948      	bls.n	d4d98 <_ZN8BlynkApiI13BlynkProtocolI22BlynkTransportParticleEE10processCmdEPKvj+0x254>
            return;

#ifndef BLYNK_MINIMIZE_PINMODE_USAGE
        pinMode(pin, OUTPUT);
   d4d06:	b2a4      	uxth	r4, r4
   d4d08:	2101      	movs	r1, #1
   d4d0a:	4620      	mov	r0, r4
   d4d0c:	f004 fcf6 	bl	d96fc <pinMode>
#endif
        analogWrite(pin, it.asInt());
   d4d10:	a805      	add	r0, sp, #20
   d4d12:	f7ff fae7 	bl	d42e4 <_ZNK10BlynkParam8iterator5asIntEv>
   d4d16:	4601      	mov	r1, r0
   d4d18:	4620      	mov	r0, r4
   d4d1a:	f004 fd43 	bl	d97a4 <_Z11analogWritetm>
    } break;
   d4d1e:	e03b      	b.n	d4d98 <_ZN8BlynkApiI13BlynkProtocolI22BlynkTransportParticleEE10processCmdEPKvj+0x254>

#endif

    case BLYNK_HW_VR: {
        BlynkReq req = { pin };
   d4d20:	ad0e      	add	r5, sp, #56	; 0x38
        WidgetReadHandler handler = GetReadHandler(pin);
   d4d22:	4620      	mov	r0, r4
    } break;

#endif

    case BLYNK_HW_VR: {
        BlynkReq req = { pin };
   d4d24:	f805 4d10 	strb.w	r4, [r5, #-16]!
        WidgetReadHandler handler = GetReadHandler(pin);
   d4d28:	f002 f8ec 	bl	d6f04 <GetReadHandler>
        if (handler && (handler != BlynkWidgetRead)) {
   d4d2c:	4603      	mov	r3, r0
            handler(req);
   d4d2e:	4628      	mov	r0, r5
#endif

    case BLYNK_HW_VR: {
        BlynkReq req = { pin };
        WidgetReadHandler handler = GetReadHandler(pin);
        if (handler && (handler != BlynkWidgetRead)) {
   d4d30:	b123      	cbz	r3, d4d3c <_ZN8BlynkApiI13BlynkProtocolI22BlynkTransportParticleEE10processCmdEPKvj+0x1f8>
   d4d32:	4a20      	ldr	r2, [pc, #128]	; (d4db4 <_ZN8BlynkApiI13BlynkProtocolI22BlynkTransportParticleEE10processCmdEPKvj+0x270>)
   d4d34:	4293      	cmp	r3, r2
   d4d36:	d001      	beq.n	d4d3c <_ZN8BlynkApiI13BlynkProtocolI22BlynkTransportParticleEE10processCmdEPKvj+0x1f8>
            handler(req);
   d4d38:	4798      	blx	r3
   d4d3a:	e02d      	b.n	d4d98 <_ZN8BlynkApiI13BlynkProtocolI22BlynkTransportParticleEE10processCmdEPKvj+0x254>
        } else {
            BlynkWidgetReadDefault(req);
   d4d3c:	f002 f8de 	bl	d6efc <BlynkWidgetRead>
        }
    } break;
   d4d40:	e02a      	b.n	d4d98 <_ZN8BlynkApiI13BlynkProtocolI22BlynkTransportParticleEE10processCmdEPKvj+0x254>
    case BLYNK_HW_VW: {
        ++it;
   d4d42:	a805      	add	r0, sp, #20
   d4d44:	f7ff fad8 	bl	d42f8 <_ZN10BlynkParam8iteratorppEv>
   d4d48:	9b05      	ldr	r3, [sp, #20]
    };

public:
    explicit
    BlynkParam(const void* addr, size_t length)
        : buff((char*)addr), len(length), buff_size(length)
   d4d4a:	930a      	str	r3, [sp, #40]	; 0x28
        char* start = (char*)it.asStr();
        BlynkParam param2(start, len - (start - (char*)buff));
   d4d4c:	1b5d      	subs	r5, r3, r5
   d4d4e:	1b7d      	subs	r5, r7, r5
        BlynkReq req = { pin };
        WidgetWriteHandler handler = GetWriteHandler(pin);
   d4d50:	4620      	mov	r0, r4
   d4d52:	950b      	str	r5, [sp, #44]	; 0x2c
   d4d54:	950c      	str	r5, [sp, #48]	; 0x30
    } break;
    case BLYNK_HW_VW: {
        ++it;
        char* start = (char*)it.asStr();
        BlynkParam param2(start, len - (start - (char*)buff));
        BlynkReq req = { pin };
   d4d56:	f88d 401c 	strb.w	r4, [sp, #28]
        WidgetWriteHandler handler = GetWriteHandler(pin);
   d4d5a:	f002 f8dd 	bl	d6f18 <GetWriteHandler>
        if (handler && (handler != BlynkWidgetWrite)) {
   d4d5e:	4603      	mov	r3, r0
            handler(req, param2);
   d4d60:	a90a      	add	r1, sp, #40	; 0x28
   d4d62:	a807      	add	r0, sp, #28
        ++it;
        char* start = (char*)it.asStr();
        BlynkParam param2(start, len - (start - (char*)buff));
        BlynkReq req = { pin };
        WidgetWriteHandler handler = GetWriteHandler(pin);
        if (handler && (handler != BlynkWidgetWrite)) {
   d4d64:	b123      	cbz	r3, d4d70 <_ZN8BlynkApiI13BlynkProtocolI22BlynkTransportParticleEE10processCmdEPKvj+0x22c>
   d4d66:	4a14      	ldr	r2, [pc, #80]	; (d4db8 <_ZN8BlynkApiI13BlynkProtocolI22BlynkTransportParticleEE10processCmdEPKvj+0x274>)
   d4d68:	4293      	cmp	r3, r2
   d4d6a:	d001      	beq.n	d4d70 <_ZN8BlynkApiI13BlynkProtocolI22BlynkTransportParticleEE10processCmdEPKvj+0x22c>
            handler(req, param2);
   d4d6c:	4798      	blx	r3
   d4d6e:	e013      	b.n	d4d98 <_ZN8BlynkApiI13BlynkProtocolI22BlynkTransportParticleEE10processCmdEPKvj+0x254>
        } else {
            BlynkWidgetWriteDefault(req, param2);
   d4d70:	f002 f8c5 	bl	d6efe <BlynkWidgetWrite>
        }
    } break;
   d4d74:	e010      	b.n	d4d98 <_ZN8BlynkApiI13BlynkProtocolI22BlynkTransportParticleEE10processCmdEPKvj+0x254>
    default:
        BLYNK_LOG2(BLYNK_F("Invalid HW cmd: "), cmd);
        static_cast<Proto*>(this)->sendCmd(BLYNK_CMD_RESPONSE, static_cast<Proto*>(this)->msgIdOutOverride, NULL, BLYNK_ILLEGAL_COMMAND);
   d4d76:	2300      	movs	r3, #0
   d4d78:	2102      	movs	r1, #2
   d4d7a:	9100      	str	r1, [sp, #0]
   d4d7c:	f8b8 201a 	ldrh.w	r2, [r8, #26]
   d4d80:	9302      	str	r3, [sp, #8]
   d4d82:	9301      	str	r3, [sp, #4]
   d4d84:	4619      	mov	r1, r3
   d4d86:	4640      	mov	r0, r8
   d4d88:	f000 fb52 	bl	d5430 <_ZN13BlynkProtocolI22BlynkTransportParticleE7sendCmdEhtPKvjS3_j>
   d4d8c:	e004      	b.n	d4d98 <_ZN8BlynkApiI13BlynkProtocolI22BlynkTransportParticleEE10processCmdEPKvj+0x254>
            pin = BLYNK_DECODE_PIN(it);
            ++it;
            if (!strcmp(it.asStr(), "in")) {
                pinMode(pin, INPUT);
            } else if (!strcmp(it.asStr(), "out") || !strcmp(it.asStr(), "pwm")) {
                pinMode(pin, OUTPUT);
   d4d8e:	2101      	movs	r1, #1
   d4d90:	4620      	mov	r0, r4
   d4d92:	f004 fcb3 	bl	d96fc <pinMode>
   d4d96:	e74f      	b.n	d4c38 <_ZN8BlynkApiI13BlynkProtocolI22BlynkTransportParticleEE10processCmdEPKvj+0xf4>
    } break;
    default:
        BLYNK_LOG2(BLYNK_F("Invalid HW cmd: "), cmd);
        static_cast<Proto*>(this)->sendCmd(BLYNK_CMD_RESPONSE, static_cast<Proto*>(this)->msgIdOutOverride, NULL, BLYNK_ILLEGAL_COMMAND);
    }
}
   d4d98:	b00e      	add	sp, #56	; 0x38
   d4d9a:	e8bd 81f0 	ldmia.w	sp!, {r4, r5, r6, r7, r8, pc}
   d4d9e:	bf00      	nop
   d4da0:	000db06d 	.word	0x000db06d
   d4da4:	000db070 	.word	0x000db070
   d4da8:	000db074 	.word	0x000db074
   d4dac:	000db078 	.word	0x000db078
   d4db0:	000db07b 	.word	0x000db07b
   d4db4:	000d6efd 	.word	0x000d6efd
   d4db8:	000d6eff 	.word	0x000d6eff

000d4dbc <_ZN13BlynkProtocolI22BlynkTransportParticleE12processInputEv>:
    return true;
}

template <class Transp>
BLYNK_FORCE_INLINE
bool BlynkProtocol<Transp>::processInput(void)
   d4dbc:	e92d 41f0 	stmdb	sp!, {r4, r5, r6, r7, r8, lr}
   d4dc0:	b08e      	sub	sp, #56	; 0x38
   d4dc2:	af04      	add	r7, sp, #16
   d4dc4:	4605      	mov	r5, r0

    size_t read(void* buf, size_t len) {
        return client.readBytes((char*)buf, len);
   d4dc6:	2205      	movs	r2, #5
   d4dc8:	f107 010c 	add.w	r1, r7, #12
   d4dcc:	6800      	ldr	r0, [r0, #0]
   d4dce:	f003 fdfb 	bl	d89c8 <_ZN6Stream9readBytesEPcj>

template <class Transp>
int BlynkProtocol<Transp>::readHeader(BlynkHeader& hdr)
{
    size_t rlen = conn.read(&hdr, sizeof(hdr));
    if (rlen == 0) {
   d4dd2:	2800      	cmp	r0, #0
   d4dd4:	f000 8123 	beq.w	d501e <_ZN13BlynkProtocolI22BlynkTransportParticleE12processInputEv+0x262>
        return 0;
    }

    if (sizeof(hdr) != rlen) {
   d4dd8:	2805      	cmp	r0, #5
   d4dda:	d001      	beq.n	d4de0 <_ZN13BlynkProtocolI22BlynkTransportParticleE12processInputEv+0x24>

    if (ret < 0 || hdr.msg_id == 0) {
#ifdef BLYNK_DEBUG
        BLYNK_LOG2(BLYNK_F("Bad hdr len: "), ret);
#endif
        return false;
   d4ddc:	2000      	movs	r0, #0
   d4dde:	e123      	b.n	d5028 <_ZN13BlynkProtocolI22BlynkTransportParticleE12processInputEv+0x26c>
        return -1;
    }

    BLYNK_DBG_DUMP(">", &hdr, sizeof(BlynkHeader));

    hdr.msg_id = ntohs(hdr.msg_id);
   d4de0:	f8b7 200d 	ldrh.w	r2, [r7, #13]
    hdr.length = ntohs(hdr.length);
   d4de4:	f8b7 400f 	ldrh.w	r4, [r7, #15]
        return -1;
    }

    BLYNK_DBG_DUMP(">", &hdr, sizeof(BlynkHeader));

    hdr.msg_id = ntohs(hdr.msg_id);
   d4de8:	0a13      	lsrs	r3, r2, #8
   d4dea:	ea43 2202 	orr.w	r2, r3, r2, lsl #8
    hdr.length = ntohs(hdr.length);
   d4dee:	0a23      	lsrs	r3, r4, #8
   d4df0:	ea43 2404 	orr.w	r4, r3, r4, lsl #8
        return -1;
    }

    BLYNK_DBG_DUMP(">", &hdr, sizeof(BlynkHeader));

    hdr.msg_id = ntohs(hdr.msg_id);
   d4df4:	b292      	uxth	r2, r2
    hdr.length = ntohs(hdr.length);
   d4df6:	b2a4      	uxth	r4, r4
        return -1;
    }

    BLYNK_DBG_DUMP(">", &hdr, sizeof(BlynkHeader));

    hdr.msg_id = ntohs(hdr.msg_id);
   d4df8:	f8a7 200d 	strh.w	r2, [r7, #13]
    hdr.length = ntohs(hdr.length);
   d4dfc:	f8a7 400f 	strh.w	r4, [r7, #15]

    if (ret == 0) {
        return true; // Considered OK (no data on input)
    }

    if (ret < 0 || hdr.msg_id == 0) {
   d4e00:	2a00      	cmp	r2, #0
   d4e02:	d0eb      	beq.n	d4ddc <_ZN13BlynkProtocolI22BlynkTransportParticleE12processInputEv+0x20>
        BLYNK_LOG2(BLYNK_F("Bad hdr len: "), ret);
#endif
        return false;
    }

    if (hdr.type == BLYNK_CMD_RESPONSE) {
   d4e04:	7b3b      	ldrb	r3, [r7, #12]
   d4e06:	b9f3      	cbnz	r3, d4e46 <_ZN13BlynkProtocolI22BlynkTransportParticleE12processInputEv+0x8a>
        lastActivityIn = BlynkMillis();
   d4e08:	f002 f874 	bl	d6ef4 <_Z11BlynkMillisv>

#ifndef BLYNK_USE_DIRECT_CONNECT
        if (state == CONNECTING && (1 == hdr.msg_id)) {
   d4e0c:	7f6b      	ldrb	r3, [r5, #29]
#endif
        return false;
    }

    if (hdr.type == BLYNK_CMD_RESPONSE) {
        lastActivityIn = BlynkMillis();
   d4e0e:	60e8      	str	r0, [r5, #12]
   d4e10:	f8b7 200f 	ldrh.w	r2, [r7, #15]

#ifndef BLYNK_USE_DIRECT_CONNECT
        if (state == CONNECTING && (1 == hdr.msg_id)) {
   d4e14:	b99b      	cbnz	r3, d4e3e <_ZN13BlynkProtocolI22BlynkTransportParticleE12processInputEv+0x82>
   d4e16:	f8b7 100d 	ldrh.w	r1, [r7, #13]
   d4e1a:	2901      	cmp	r1, #1
   d4e1c:	d10f      	bne.n	d4e3e <_ZN13BlynkProtocolI22BlynkTransportParticleE12processInputEv+0x82>
            switch (hdr.length) {
   d4e1e:	2a04      	cmp	r2, #4
   d4e20:	d001      	beq.n	d4e26 <_ZN13BlynkProtocolI22BlynkTransportParticleE12processInputEv+0x6a>
   d4e22:	2ac8      	cmp	r2, #200	; 0xc8
   d4e24:	d1da      	bne.n	d4ddc <_ZN13BlynkProtocolI22BlynkTransportParticleE12processInputEv+0x20>
            case BLYNK_SUCCESS:
            case BLYNK_ALREADY_REGISTERED:
                BLYNK_LOG3(BLYNK_F("Ready (ping: "), lastActivityIn-lastHeartbeat, BLYNK_F("ms)."));
                lastHeartbeat = lastActivityIn;
                state = CONNECTED;
   d4e26:	2401      	movs	r4, #1
        if (state == CONNECTING && (1 == hdr.msg_id)) {
            switch (hdr.length) {
            case BLYNK_SUCCESS:
            case BLYNK_ALREADY_REGISTERED:
                BLYNK_LOG3(BLYNK_F("Ready (ping: "), lastActivityIn-lastHeartbeat, BLYNK_F("ms)."));
                lastHeartbeat = lastActivityIn;
   d4e28:	6168      	str	r0, [r5, #20]
                state = CONNECTED;
   d4e2a:	776c      	strb	r4, [r5, #29]
#ifdef BLYNK_DEBUG
                if (size_t ram = BlynkFreeRam()) {
                    BLYNK_LOG2(BLYNK_F("Free RAM: "), ram);
                }
#endif
                this->sendInfo();
   d4e2c:	4628      	mov	r0, r5
   d4e2e:	f000 fbb9 	bl	d55a4 <_ZN8BlynkApiI13BlynkProtocolI22BlynkTransportParticleEE8sendInfoEv>
                BLYNK_RUN_YIELD();
   d4e32:	f7ff fa4b 	bl	d42cc <_ZN10CloudClass7processEv>
                BlynkOnConnected();
   d4e36:	f002 f863 	bl	d6f00 <BlynkNoOpCbk>
                return true;
   d4e3a:	4620      	mov	r0, r4
   d4e3c:	e0f4      	b.n	d5028 <_ZN13BlynkProtocolI22BlynkTransportParticleE12processInputEv+0x26c>
            default:
                BLYNK_LOG2(BLYNK_F("Connect failed. code: "), hdr.length);
            }
            return false;
        }
        if (BLYNK_NOT_AUTHENTICATED == hdr.length) {
   d4e3e:	1f50      	subs	r0, r2, #5
   d4e40:	bf18      	it	ne
   d4e42:	2001      	movne	r0, #1
   d4e44:	e0f0      	b.n	d5028 <_ZN13BlynkProtocolI22BlynkTransportParticleE12processInputEv+0x26c>
#endif
        // TODO: return code may indicate App presence
        return true;
    }

    if (hdr.length > BLYNK_MAX_READBYTES) {
   d4e46:	f5b4 6f80 	cmp.w	r4, #1024	; 0x400
   d4e4a:	d904      	bls.n	d4e56 <_ZN13BlynkProtocolI22BlynkTransportParticleE12processInputEv+0x9a>
        BLYNK_LOG2(BLYNK_F("Packet too big: "), hdr.length);
        // TODO: Flush
        internalReconnect();
   d4e4c:	4628      	mov	r0, r5
   d4e4e:	f7ff fe6f 	bl	d4b30 <_ZN13BlynkProtocolI22BlynkTransportParticleE17internalReconnectEv>
        return true;
   d4e52:	2001      	movs	r0, #1
   d4e54:	e0e8      	b.n	d5028 <_ZN13BlynkProtocolI22BlynkTransportParticleE12processInputEv+0x26c>
    }

    uint8_t inputBuffer[hdr.length+1]; // Add 1 to zero-terminate
   d4e56:	f104 0308 	add.w	r3, r4, #8
   d4e5a:	f023 0307 	bic.w	r3, r3, #7
   d4e5e:	46e8      	mov	r8, sp
   d4e60:	ebad 0d03 	sub.w	sp, sp, r3
   d4e64:	ae04      	add	r6, sp, #16
   d4e66:	4622      	mov	r2, r4
   d4e68:	4631      	mov	r1, r6
   d4e6a:	6828      	ldr	r0, [r5, #0]
   d4e6c:	f003 fdac 	bl	d89c8 <_ZN6Stream9readBytesEPcj>
    if (hdr.length != conn.read(inputBuffer, hdr.length)) {
   d4e70:	4284      	cmp	r4, r0
   d4e72:	f04f 0400 	mov.w	r4, #0
   d4e76:	f040 80cd 	bne.w	d5014 <_ZN13BlynkProtocolI22BlynkTransportParticleE12processInputEv+0x258>
#ifdef BLYNK_DEBUG
        BLYNK_LOG1(BLYNK_F("Can't read body"));
#endif
        return false;
    }
    inputBuffer[hdr.length] = '\0';
   d4e7a:	f8b7 300f 	ldrh.w	r3, [r7, #15]
   d4e7e:	54f4      	strb	r4, [r6, r3]

    BLYNK_DBG_DUMP(">", inputBuffer, hdr.length);

    lastActivityIn = BlynkMillis();
   d4e80:	f002 f838 	bl	d6ef4 <_Z11BlynkMillisv>

    switch (hdr.type)
   d4e84:	7b3b      	ldrb	r3, [r7, #12]
    }
    inputBuffer[hdr.length] = '\0';

    BLYNK_DBG_DUMP(">", inputBuffer, hdr.length);

    lastActivityIn = BlynkMillis();
   d4e86:	60e8      	str	r0, [r5, #12]

    switch (hdr.type)
   d4e88:	2b11      	cmp	r3, #17
   d4e8a:	d07a      	beq.n	d4f82 <_ZN13BlynkProtocolI22BlynkTransportParticleE12processInputEv+0x1c6>
   d4e8c:	d806      	bhi.n	d4e9c <_ZN13BlynkProtocolI22BlynkTransportParticleE12processInputEv+0xe0>
   d4e8e:	2b06      	cmp	r3, #6
   d4e90:	d025      	beq.n	d4ede <_ZN13BlynkProtocolI22BlynkTransportParticleE12processInputEv+0x122>
   d4e92:	2b0f      	cmp	r3, #15
   d4e94:	d067      	beq.n	d4f66 <_ZN13BlynkProtocolI22BlynkTransportParticleE12processInputEv+0x1aa>
   d4e96:	2b02      	cmp	r3, #2
   d4e98:	d009      	beq.n	d4eae <_ZN13BlynkProtocolI22BlynkTransportParticleE12processInputEv+0xf2>
   d4e9a:	e0b6      	b.n	d500a <_ZN13BlynkProtocolI22BlynkTransportParticleE12processInputEv+0x24e>
   d4e9c:	2b29      	cmp	r3, #41	; 0x29
   d4e9e:	d02b      	beq.n	d4ef8 <_ZN13BlynkProtocolI22BlynkTransportParticleE12processInputEv+0x13c>
   d4ea0:	2b37      	cmp	r3, #55	; 0x37
   d4ea2:	f000 80b9 	beq.w	d5018 <_ZN13BlynkProtocolI22BlynkTransportParticleE12processInputEv+0x25c>
   d4ea6:	2b14      	cmp	r3, #20
   d4ea8:	f040 80af 	bne.w	d500a <_ZN13BlynkProtocolI22BlynkTransportParticleE12processInputEv+0x24e>
   d4eac:	e05b      	b.n	d4f66 <_ZN13BlynkProtocolI22BlynkTransportParticleE12processInputEv+0x1aa>
            BLYNK_LOG1(BLYNK_F("Invalid token"));
            sendCmd(BLYNK_CMD_RESPONSE, hdr.msg_id, NULL, BLYNK_INVALID_TOKEN);
            break;
        }
#endif
        if (state == CONNECTING) {
   d4eae:	7f6b      	ldrb	r3, [r5, #29]
   d4eb0:	b943      	cbnz	r3, d4ec4 <_ZN13BlynkProtocolI22BlynkTransportParticleE12processInputEv+0x108>
            BLYNK_LOG1(BLYNK_F("Ready"));
            state = CONNECTED;
   d4eb2:	2301      	movs	r3, #1
   d4eb4:	776b      	strb	r3, [r5, #29]
#ifdef BLYNK_DEBUG
            if (size_t ram = BlynkFreeRam()) {
                BLYNK_LOG2(BLYNK_F("Free RAM: "), ram);
            }
#endif
            this->sendInfo();
   d4eb6:	4628      	mov	r0, r5
   d4eb8:	f000 fb74 	bl	d55a4 <_ZN8BlynkApiI13BlynkProtocolI22BlynkTransportParticleEE8sendInfoEv>
            BLYNK_RUN_YIELD();
   d4ebc:	f7ff fa06 	bl	d42cc <_ZN10CloudClass7processEv>
            BlynkOnConnected();
   d4ec0:	f002 f81e 	bl	d6f00 <BlynkNoOpCbk>
        }
        sendCmd(BLYNK_CMD_RESPONSE, hdr.msg_id, NULL, BLYNK_SUCCESS);
   d4ec4:	2300      	movs	r3, #0
   d4ec6:	21c8      	movs	r1, #200	; 0xc8
   d4ec8:	f8b7 200d 	ldrh.w	r2, [r7, #13]
   d4ecc:	9100      	str	r1, [sp, #0]
   d4ece:	4628      	mov	r0, r5
   d4ed0:	9302      	str	r3, [sp, #8]
   d4ed2:	9301      	str	r3, [sp, #4]
   d4ed4:	4619      	mov	r1, r3
   d4ed6:	f000 faab 	bl	d5430 <_ZN13BlynkProtocolI22BlynkTransportParticleE7sendCmdEhtPKvjS3_j>
        // TODO: Flush
        internalReconnect();
    } break;
    }

    return true;
   d4eda:	2001      	movs	r0, #1
            this->sendInfo();
            BLYNK_RUN_YIELD();
            BlynkOnConnected();
        }
        sendCmd(BLYNK_CMD_RESPONSE, hdr.msg_id, NULL, BLYNK_SUCCESS);
    } break;
   d4edc:	e09d      	b.n	d501a <_ZN13BlynkProtocolI22BlynkTransportParticleE12processInputEv+0x25e>
    case BLYNK_CMD_PING: {
        sendCmd(BLYNK_CMD_RESPONSE, hdr.msg_id, NULL, BLYNK_SUCCESS);
   d4ede:	23c8      	movs	r3, #200	; 0xc8
   d4ee0:	f8b7 200d 	ldrh.w	r2, [r7, #13]
   d4ee4:	9300      	str	r3, [sp, #0]
   d4ee6:	4628      	mov	r0, r5
   d4ee8:	9402      	str	r4, [sp, #8]
   d4eea:	9401      	str	r4, [sp, #4]
   d4eec:	4623      	mov	r3, r4
   d4eee:	4621      	mov	r1, r4
   d4ef0:	f000 fa9e 	bl	d5430 <_ZN13BlynkProtocolI22BlynkTransportParticleE7sendCmdEhtPKvjS3_j>
        // TODO: Flush
        internalReconnect();
    } break;
    }

    return true;
   d4ef4:	2001      	movs	r0, #1
        }
        sendCmd(BLYNK_CMD_RESPONSE, hdr.msg_id, NULL, BLYNK_SUCCESS);
    } break;
    case BLYNK_CMD_PING: {
        sendCmd(BLYNK_CMD_RESPONSE, hdr.msg_id, NULL, BLYNK_SUCCESS);
    } break;
   d4ef6:	e090      	b.n	d501a <_ZN13BlynkProtocolI22BlynkTransportParticleE12processInputEv+0x25e>
    case BLYNK_CMD_REDIRECT: {
        if (!redir_serv) {
   d4ef8:	68ab      	ldr	r3, [r5, #8]
   d4efa:	b91b      	cbnz	r3, d4f04 <_ZN13BlynkProtocolI22BlynkTransportParticleE12processInputEv+0x148>
             redir_serv = (char*)malloc(32);
   d4efc:	2020      	movs	r0, #32
   d4efe:	f002 fed9 	bl	d7cb4 <malloc>
   d4f02:	60a8      	str	r0, [r5, #8]
    double      asDouble() const    { return atof(buff); }
    float       asFloat() const     { return atof(buff); }
#endif
    bool isEmpty() const            { return *buff == '\0'; }

    iterator begin() const { return iterator(buff, buff+len); }
   d4f04:	f8b7 400f 	ldrh.w	r4, [r7, #15]
{
public:
    class iterator
    {
    public:
        iterator(const char* c, const char* l) : ptr(c), limit(l) {}
   d4f08:	61fe      	str	r6, [r7, #28]
    double      asDouble() const    { return atof(buff); }
    float       asFloat() const     { return atof(buff); }
#endif
    bool isEmpty() const            { return *buff == '\0'; }

    iterator begin() const { return iterator(buff, buff+len); }
   d4f0a:	4434      	add	r4, r6
        }
        BlynkParam param(inputBuffer, hdr.length);
        uint16_t redir_port = BLYNK_DEFAULT_PORT; // TODO: Fixit

        BlynkParam::iterator it = param.begin();
        if (it >= param.end())
   d4f0c:	42a6      	cmp	r6, r4
{
public:
    class iterator
    {
    public:
        iterator(const char* c, const char* l) : ptr(c), limit(l) {}
   d4f0e:	623c      	str	r4, [r7, #32]
   d4f10:	d301      	bcc.n	d4f16 <_ZN13BlynkProtocolI22BlynkTransportParticleE12processInputEv+0x15a>
            return false;
   d4f12:	2000      	movs	r0, #0
   d4f14:	e081      	b.n	d501a <_ZN13BlynkProtocolI22BlynkTransportParticleE12processInputEv+0x25e>
        strncpy(redir_serv, it.asStr(), 32);
   d4f16:	2220      	movs	r2, #32
   d4f18:	4631      	mov	r1, r6
   d4f1a:	68a8      	ldr	r0, [r5, #8]
   d4f1c:	f005 fbc2 	bl	da6a4 <strncpy>
        if (++it < param.end())
   d4f20:	f107 001c 	add.w	r0, r7, #28
   d4f24:	f7ff f9e8 	bl	d42f8 <_ZN10BlynkParam8iteratorppEv>
   d4f28:	6803      	ldr	r3, [r0, #0]
   d4f2a:	42a3      	cmp	r3, r4
   d4f2c:	d207      	bcs.n	d4f3e <_ZN13BlynkProtocolI22BlynkTransportParticleE12processInputEv+0x182>
        //long long   asLongLong() const  { return atoll(ptr); }
#ifndef BLYNK_NO_FLOAT
        double      asDouble() const    { if(!isValid()) return 0; return atof(ptr); }
        float       asFloat() const     { if(!isValid()) return 0; return atof(ptr); }
#endif
        bool isValid() const            { return ptr != NULL && ptr < limit; }
   d4f2e:	69f8      	ldr	r0, [r7, #28]
   d4f30:	b118      	cbz	r0, d4f3a <_ZN13BlynkProtocolI22BlynkTransportParticleE12processInputEv+0x17e>
   d4f32:	6a3b      	ldr	r3, [r7, #32]
   d4f34:	4298      	cmp	r0, r3
   d4f36:	d374      	bcc.n	d5022 <_ZN13BlynkProtocolI22BlynkTransportParticleE12processInputEv+0x266>
        operator const char* () const   { return asStr(); }
        operator int () const           { return asInt(); }
        const char* asStr() const       { return ptr; }
        const char* asString() const    { return ptr; }
        int         asInt() const       { if(!isValid()) return 0; return atoi(ptr); }
        long        asLong() const      { if(!isValid()) return 0; return atol(ptr); }
   d4f38:	2000      	movs	r0, #0
            redir_port = it.asLong();
   d4f3a:	b284      	uxth	r4, r0
   d4f3c:	e000      	b.n	d4f40 <_ZN13BlynkProtocolI22BlynkTransportParticleE12processInputEv+0x184>
    case BLYNK_CMD_REDIRECT: {
        if (!redir_serv) {
             redir_serv = (char*)malloc(32);
        }
        BlynkParam param(inputBuffer, hdr.length);
        uint16_t redir_port = BLYNK_DEFAULT_PORT; // TODO: Fixit
   d4f3e:	2450      	movs	r4, #80	; 0x50
            return (1 == client.connect(addr, port));
        }
        return 0;
    }

    void disconnect() { client.stop(); }
   d4f40:	6828      	ldr	r0, [r5, #0]
   d4f42:	f004 f89b 	bl	d907c <_ZN9TCPClient4stopEv>
        strncpy(redir_serv, it.asStr(), 32);
        if (++it < param.end())
            redir_port = it.asLong();
        BLYNK_LOG4(BLYNK_F("Redirecting to "), redir_serv, ':', redir_port);
        conn.disconnect();
        conn.begin(redir_serv, redir_port);
   d4f46:	682b      	ldr	r3, [r5, #0]
   d4f48:	68aa      	ldr	r2, [r5, #8]
        port = p;
        addr = a;
    }

    void begin(const char* d, uint16_t p) {
        domain = d;
   d4f4a:	635a      	str	r2, [r3, #52]	; 0x34
        port = p;
   d4f4c:	871c      	strh	r4, [r3, #56]	; 0x38
        state = CONNECTING;
   d4f4e:	2300      	movs	r3, #0
   d4f50:	776b      	strb	r3, [r5, #29]
        lastHeartbeat = lastActivityIn = lastActivityOut = (BlynkMillis() - 5000UL);
   d4f52:	f001 ffcf 	bl	d6ef4 <_Z11BlynkMillisv>
   d4f56:	f5a0 509c 	sub.w	r0, r0, #4992	; 0x1380
   d4f5a:	3808      	subs	r0, #8
   d4f5c:	6128      	str	r0, [r5, #16]
   d4f5e:	60e8      	str	r0, [r5, #12]
   d4f60:	6168      	str	r0, [r5, #20]
        // TODO: Flush
        internalReconnect();
    } break;
    }

    return true;
   d4f62:	2001      	movs	r0, #1
        BLYNK_LOG4(BLYNK_F("Redirecting to "), redir_serv, ':', redir_port);
        conn.disconnect();
        conn.begin(redir_serv, redir_port);
        state = CONNECTING;
        lastHeartbeat = lastActivityIn = lastActivityOut = (BlynkMillis() - 5000UL);
    } break;
   d4f64:	e059      	b.n	d501a <_ZN13BlynkProtocolI22BlynkTransportParticleE12processInputEv+0x25e>
    case BLYNK_CMD_HARDWARE:
    case BLYNK_CMD_BRIDGE: {
        msgIdOutOverride = hdr.msg_id;
   d4f66:	68fb      	ldr	r3, [r7, #12]
        this->processCmd(inputBuffer, hdr.length);
   d4f68:	f8b7 200f 	ldrh.w	r2, [r7, #15]
        state = CONNECTING;
        lastHeartbeat = lastActivityIn = lastActivityOut = (BlynkMillis() - 5000UL);
    } break;
    case BLYNK_CMD_HARDWARE:
    case BLYNK_CMD_BRIDGE: {
        msgIdOutOverride = hdr.msg_id;
   d4f6c:	f3c3 230f 	ubfx	r3, r3, #8, #16
   d4f70:	836b      	strh	r3, [r5, #26]
        this->processCmd(inputBuffer, hdr.length);
   d4f72:	4628      	mov	r0, r5
   d4f74:	4631      	mov	r1, r6
   d4f76:	f7ff fde5 	bl	d4b44 <_ZN8BlynkApiI13BlynkProtocolI22BlynkTransportParticleEE10processCmdEPKvj>
        msgIdOutOverride = 0;
   d4f7a:	2300      	movs	r3, #0
   d4f7c:	836b      	strh	r3, [r5, #26]
        // TODO: Flush
        internalReconnect();
    } break;
    }

    return true;
   d4f7e:	2001      	movs	r0, #1
    case BLYNK_CMD_HARDWARE:
    case BLYNK_CMD_BRIDGE: {
        msgIdOutOverride = hdr.msg_id;
        this->processCmd(inputBuffer, hdr.length);
        msgIdOutOverride = 0;
    } break;
   d4f80:	e04b      	b.n	d501a <_ZN13BlynkProtocolI22BlynkTransportParticleE12processInputEv+0x25e>
    double      asDouble() const    { return atof(buff); }
    float       asFloat() const     { return atof(buff); }
#endif
    bool isEmpty() const            { return *buff == '\0'; }

    iterator begin() const { return iterator(buff, buff+len); }
   d4f82:	f8b7 300f 	ldrh.w	r3, [r7, #15]
    case BLYNK_CMD_INTERNAL: {
        BlynkReq req = { 0 };
   d4f86:	713c      	strb	r4, [r7, #4]
   d4f88:	4433      	add	r3, r6
        BlynkParam param(inputBuffer, hdr.length);
        BlynkParam::iterator it = param.begin();
        if (it >= param.end())
   d4f8a:	429e      	cmp	r6, r3
{
public:
    class iterator
    {
    public:
        iterator(const char* c, const char* l) : ptr(c), limit(l) {}
   d4f8c:	617e      	str	r6, [r7, #20]
   d4f8e:	61bb      	str	r3, [r7, #24]
   d4f90:	d242      	bcs.n	d5018 <_ZN13BlynkProtocolI22BlynkTransportParticleE12processInputEv+0x25c>
            return true;

        uint32_t cmd32;
        memcpy(&cmd32, it.asStr(), sizeof(cmd32));
   d4f92:	6830      	ldr	r0, [r6, #0]
   d4f94:	60b8      	str	r0, [r7, #8]

        ++it;
   d4f96:	f107 0014 	add.w	r0, r7, #20
   d4f9a:	f7ff f9ad 	bl	d42f8 <_ZN10BlynkParam8iteratorppEv>
   d4f9e:	697a      	ldr	r2, [r7, #20]
        char* start = (char*)(it).asStr();
        unsigned length = hdr.length - (start - (char*)inputBuffer);
   d4fa0:	f8b7 300f 	ldrh.w	r3, [r7, #15]
    };

public:
    explicit
    BlynkParam(const void* addr, size_t length)
        : buff((char*)addr), len(length), buff_size(length)
   d4fa4:	61fa      	str	r2, [r7, #28]
   d4fa6:	1b96      	subs	r6, r2, r6
   d4fa8:	1b9e      	subs	r6, r3, r6
        BlynkParam param2(start, length);

        switch (cmd32) {
   d4faa:	4a21      	ldr	r2, [pc, #132]	; (d5030 <_ZN13BlynkProtocolI22BlynkTransportParticleE12processInputEv+0x274>)
   d4fac:	68bb      	ldr	r3, [r7, #8]
   d4fae:	623e      	str	r6, [r7, #32]
   d4fb0:	4293      	cmp	r3, r2
   d4fb2:	627e      	str	r6, [r7, #36]	; 0x24
   d4fb4:	d01d      	beq.n	d4ff2 <_ZN13BlynkProtocolI22BlynkTransportParticleE12processInputEv+0x236>
   d4fb6:	d80b      	bhi.n	d4fd0 <_ZN13BlynkProtocolI22BlynkTransportParticleE12processInputEv+0x214>
   d4fb8:	f102 32fd 	add.w	r2, r2, #4261281277	; 0xfdfdfdfd
   d4fbc:	f102 2202 	add.w	r2, r2, #33554944	; 0x2000200
   d4fc0:	4293      	cmp	r3, r2
   d4fc2:	d129      	bne.n	d5018 <_ZN13BlynkProtocolI22BlynkTransportParticleE12processInputEv+0x25c>
        case BLYNK_INT_RTC:  BlynkWidgetWriteInternalPinRTC(req, param2);    break;
        case BLYNK_INT_OTA:  BlynkWidgetWriteInternalPinOTA(req, param2);    break;
   d4fc4:	f107 011c 	add.w	r1, r7, #28
   d4fc8:	1d38      	adds	r0, r7, #4
   d4fca:	f001 ff98 	bl	d6efe <BlynkWidgetWrite>
   d4fce:	e023      	b.n	d5018 <_ZN13BlynkProtocolI22BlynkTransportParticleE12processInputEv+0x25c>
        ++it;
        char* start = (char*)(it).asStr();
        unsigned length = hdr.length - (start - (char*)inputBuffer);
        BlynkParam param2(start, length);

        switch (cmd32) {
   d4fd0:	4a18      	ldr	r2, [pc, #96]	; (d5034 <_ZN13BlynkProtocolI22BlynkTransportParticleE12processInputEv+0x278>)
   d4fd2:	4293      	cmp	r3, r2
   d4fd4:	d013      	beq.n	d4ffe <_ZN13BlynkProtocolI22BlynkTransportParticleE12processInputEv+0x242>
   d4fd6:	f102 629f 	add.w	r2, r2, #83361792	; 0x4f80000
   d4fda:	f502 3200 	add.w	r2, r2, #131072	; 0x20000
   d4fde:	f502 7280 	add.w	r2, r2, #256	; 0x100
   d4fe2:	4293      	cmp	r3, r2
   d4fe4:	d118      	bne.n	d5018 <_ZN13BlynkProtocolI22BlynkTransportParticleE12processInputEv+0x25c>
        case BLYNK_INT_RTC:  BlynkWidgetWriteInternalPinRTC(req, param2);    break;
        case BLYNK_INT_OTA:  BlynkWidgetWriteInternalPinOTA(req, param2);    break;
        case BLYNK_INT_ACON: BlynkWidgetWriteInternalPinACON(req, param2);   break;
        case BLYNK_INT_ADIS: BlynkWidgetWriteInternalPinADIS(req, param2);   break;
   d4fe6:	f107 011c 	add.w	r1, r7, #28
   d4fea:	1d38      	adds	r0, r7, #4
   d4fec:	f001 ff87 	bl	d6efe <BlynkWidgetWrite>
   d4ff0:	e012      	b.n	d5018 <_ZN13BlynkProtocolI22BlynkTransportParticleE12processInputEv+0x25c>
        char* start = (char*)(it).asStr();
        unsigned length = hdr.length - (start - (char*)inputBuffer);
        BlynkParam param2(start, length);

        switch (cmd32) {
        case BLYNK_INT_RTC:  BlynkWidgetWriteInternalPinRTC(req, param2);    break;
   d4ff2:	f107 011c 	add.w	r1, r7, #28
   d4ff6:	1d38      	adds	r0, r7, #4
   d4ff8:	f001 ff81 	bl	d6efe <BlynkWidgetWrite>
   d4ffc:	e00c      	b.n	d5018 <_ZN13BlynkProtocolI22BlynkTransportParticleE12processInputEv+0x25c>
        case BLYNK_INT_OTA:  BlynkWidgetWriteInternalPinOTA(req, param2);    break;
        case BLYNK_INT_ACON: BlynkWidgetWriteInternalPinACON(req, param2);   break;
   d4ffe:	f107 011c 	add.w	r1, r7, #28
   d5002:	1d38      	adds	r0, r7, #4
   d5004:	f001 ff7b 	bl	d6efe <BlynkWidgetWrite>
   d5008:	e006      	b.n	d5018 <_ZN13BlynkProtocolI22BlynkTransportParticleE12processInputEv+0x25c>
    default: {
#ifdef BLYNK_DEBUG
        BLYNK_LOG2(BLYNK_F("Invalid header type: "), hdr.type);
#endif
        // TODO: Flush
        internalReconnect();
   d500a:	4628      	mov	r0, r5
   d500c:	f7ff fd90 	bl	d4b30 <_ZN13BlynkProtocolI22BlynkTransportParticleE17internalReconnectEv>
    } break;
    }

    return true;
   d5010:	2001      	movs	r0, #1
#ifdef BLYNK_DEBUG
        BLYNK_LOG2(BLYNK_F("Invalid header type: "), hdr.type);
#endif
        // TODO: Flush
        internalReconnect();
    } break;
   d5012:	e002      	b.n	d501a <_ZN13BlynkProtocolI22BlynkTransportParticleE12processInputEv+0x25e>
    uint8_t inputBuffer[hdr.length+1]; // Add 1 to zero-terminate
    if (hdr.length != conn.read(inputBuffer, hdr.length)) {
#ifdef BLYNK_DEBUG
        BLYNK_LOG1(BLYNK_F("Can't read body"));
#endif
        return false;
   d5014:	4620      	mov	r0, r4
   d5016:	e000      	b.n	d501a <_ZN13BlynkProtocolI22BlynkTransportParticleE12processInputEv+0x25e>
        // TODO: Flush
        internalReconnect();
    } break;
    }

    return true;
   d5018:	2001      	movs	r0, #1
   d501a:	46c5      	mov	sp, r8
   d501c:	e004      	b.n	d5028 <_ZN13BlynkProtocolI22BlynkTransportParticleE12processInputEv+0x26c>
{
    BlynkHeader hdr;
    const int ret = readHeader(hdr);

    if (ret == 0) {
        return true; // Considered OK (no data on input)
   d501e:	2001      	movs	r0, #1
   d5020:	e002      	b.n	d5028 <_ZN13BlynkProtocolI22BlynkTransportParticleE12processInputEv+0x26c>
        operator const char* () const   { return asStr(); }
        operator int () const           { return asInt(); }
        const char* asStr() const       { return ptr; }
        const char* asString() const    { return ptr; }
        int         asInt() const       { if(!isValid()) return 0; return atoi(ptr); }
        long        asLong() const      { if(!isValid()) return 0; return atol(ptr); }
   d5022:	f005 f9af 	bl	da384 <atol>
   d5026:	e788      	b.n	d4f3a <_ZN13BlynkProtocolI22BlynkTransportParticleE12processInputEv+0x17e>
        internalReconnect();
    } break;
    }

    return true;
}
   d5028:	3728      	adds	r7, #40	; 0x28
   d502a:	46bd      	mov	sp, r7
   d502c:	e8bd 81f0 	ldmia.w	sp!, {r4, r5, r6, r7, r8, pc}
   d5030:	00637472 	.word	0x00637472
   d5034:	6e6f6361 	.word	0x6e6f6361

000d5038 <_ZN13BlynkProtocolI22BlynkTransportParticleE3runEb>:
protected:
    BlynkState state;
};

template <class Transp>
bool BlynkProtocol<Transp>::run(bool avail)
   d5038:	e92d 41f0 	stmdb	sp!, {r4, r5, r6, r7, r8, lr}
   d503c:	4604      	mov	r4, r0
   d503e:	b08a      	sub	sp, #40	; 0x28
   d5040:	460d      	mov	r5, r1
{
    BLYNK_RUN_YIELD();
   d5042:	f7ff f943 	bl	d42cc <_ZN10CloudClass7processEv>

    if (state == DISCONNECTED) {
   d5046:	7f63      	ldrb	r3, [r4, #29]
   d5048:	2b02      	cmp	r3, #2
   d504a:	f000 80a0 	beq.w	d518e <_ZN13BlynkProtocolI22BlynkTransportParticleE3runEb+0x156>
      avg -= 1;
}

class BlynkHelperAutoInc {
public:
    BlynkHelperAutoInc(uint8_t& counter) : c(counter) { ++c; }
   d504e:	7f23      	ldrb	r3, [r4, #28]
        return false;
    }

    // Detect nesting
    BlynkHelperAutoInc guard(nesting);
    if (msgIdOutOverride || nesting > 2) {
   d5050:	8b62      	ldrh	r2, [r4, #26]
   d5052:	3301      	adds	r3, #1
   d5054:	b2db      	uxtb	r3, r3
   d5056:	7723      	strb	r3, [r4, #28]
   d5058:	2a00      	cmp	r2, #0
   d505a:	d141      	bne.n	d50e0 <_ZN13BlynkProtocolI22BlynkTransportParticleE3runEb+0xa8>
   d505c:	2b02      	cmp	r3, #2
   d505e:	d83f      	bhi.n	d50e0 <_ZN13BlynkProtocolI22BlynkTransportParticleE3runEb+0xa8>
    size_t write(const void* buf, size_t len) {
        return client.write((const uint8_t*)buf, len);
    }

    void flush() { client.flush(); }
    bool connected() { return client.connected(); }
   d5060:	6820      	ldr	r0, [r4, #0]
   d5062:	f003 fe1c 	bl	d8c9e <_ZN9TCPClient9connectedEv>
      //BLYNK_LOG1(BLYNK_F("Nested run() skipped"));
      return true;
    }

    if (conn.connected()) {
   d5066:	b140      	cbz	r0, d507a <_ZN13BlynkProtocolI22BlynkTransportParticleE3runEb+0x42>
        while (avail || conn.available() > 0) {
   d5068:	2d00      	cmp	r5, #0
   d506a:	f040 8092 	bne.w	d5192 <_ZN13BlynkProtocolI22BlynkTransportParticleE3runEb+0x15a>
    int available() { return client.available(); }
   d506e:	6820      	ldr	r0, [r4, #0]
   d5070:	f004 f81c 	bl	d90ac <_ZN9TCPClient9availableEv>
   d5074:	2800      	cmp	r0, #0
   d5076:	f300 808c 	bgt.w	d5192 <_ZN13BlynkProtocolI22BlynkTransportParticleE3runEb+0x15a>
            avail = false;
            //BLYNK_LOG2(BLYNK_F("Proc time: "), micros() - t);
        }
    }

    const millis_time_t t = BlynkMillis();
   d507a:	f001 ff3b 	bl	d6ef4 <_Z11BlynkMillisv>
   d507e:	4606      	mov	r6, r0
    size_t write(const void* buf, size_t len) {
        return client.write((const uint8_t*)buf, len);
    }

    void flush() { client.flush(); }
    bool connected() { return client.connected(); }
   d5080:	6820      	ldr	r0, [r4, #0]
   d5082:	f003 fe0c 	bl	d8c9e <_ZN9TCPClient9connectedEv>

    // Update connection status after running commands
    const bool tconn = conn.connected();

    if (state == CONNECTED) {
   d5086:	7f67      	ldrb	r7, [r4, #29]
   d5088:	2f01      	cmp	r7, #1
   d508a:	4605      	mov	r5, r0
   d508c:	d12a      	bne.n	d50e4 <_ZN13BlynkProtocolI22BlynkTransportParticleE3runEb+0xac>
        if (!tconn) {
   d508e:	b920      	cbnz	r0, d509a <_ZN13BlynkProtocolI22BlynkTransportParticleE3runEb+0x62>
            lastHeartbeat = t;
   d5090:	6166      	str	r6, [r4, #20]
            internalReconnect();
   d5092:	4620      	mov	r0, r4
   d5094:	f7ff fd4c 	bl	d4b30 <_ZN13BlynkProtocolI22BlynkTransportParticleE17internalReconnectEv>
            return false;
   d5098:	e075      	b.n	d5186 <_ZN13BlynkProtocolI22BlynkTransportParticleE3runEb+0x14e>
        }

        if (t - lastActivityIn > (1000UL * BLYNK_HEARTBEAT + BLYNK_TIMEOUT_MS*3)) {
   d509a:	68e3      	ldr	r3, [r4, #12]
   d509c:	f644 2238 	movw	r2, #19000	; 0x4a38
   d50a0:	1af3      	subs	r3, r6, r3
   d50a2:	4293      	cmp	r3, r2
   d50a4:	d904      	bls.n	d50b0 <_ZN13BlynkProtocolI22BlynkTransportParticleE3runEb+0x78>
#ifdef BLYNK_DEBUG
            BLYNK_LOG6(BLYNK_F("Heartbeat timeout: "), t, BLYNK_F(", "), lastActivityIn, BLYNK_F(", "), lastHeartbeat);
#else
            BLYNK_LOG1(BLYNK_F("Heartbeat timeout"));
#endif
            internalReconnect();
   d50a6:	4620      	mov	r0, r4
   d50a8:	f7ff fd42 	bl	d4b30 <_ZN13BlynkProtocolI22BlynkTransportParticleE17internalReconnectEv>
            return false;
   d50ac:	2500      	movs	r5, #0
   d50ae:	e06a      	b.n	d5186 <_ZN13BlynkProtocolI22BlynkTransportParticleE3runEb+0x14e>
        } else if ((t - lastActivityIn  > 1000UL * BLYNK_HEARTBEAT ||
   d50b0:	f242 7210 	movw	r2, #10000	; 0x2710
   d50b4:	4293      	cmp	r3, r2
   d50b6:	d803      	bhi.n	d50c0 <_ZN13BlynkProtocolI22BlynkTransportParticleE3runEb+0x88>
   d50b8:	6923      	ldr	r3, [r4, #16]
   d50ba:	1af3      	subs	r3, r6, r3
   d50bc:	4293      	cmp	r3, r2
   d50be:	d90f      	bls.n	d50e0 <_ZN13BlynkProtocolI22BlynkTransportParticleE3runEb+0xa8>
   d50c0:	6963      	ldr	r3, [r4, #20]
   d50c2:	f640 32b8 	movw	r2, #3000	; 0xbb8
   d50c6:	1af3      	subs	r3, r6, r3
   d50c8:	4293      	cmp	r3, r2
   d50ca:	d909      	bls.n	d50e0 <_ZN13BlynkProtocolI22BlynkTransportParticleE3runEb+0xa8>
                    t - lastActivityOut > 1000UL * BLYNK_HEARTBEAT) &&
                    t - lastHeartbeat   > BLYNK_TIMEOUT_MS)
        {
            // Send ping if we didn't either send or receive something
            // for BLYNK_HEARTBEAT seconds
            sendCmd(BLYNK_CMD_PING);
   d50cc:	2300      	movs	r3, #0
   d50ce:	9302      	str	r3, [sp, #8]
   d50d0:	9301      	str	r3, [sp, #4]
   d50d2:	9300      	str	r3, [sp, #0]
   d50d4:	461a      	mov	r2, r3
   d50d6:	2106      	movs	r1, #6
   d50d8:	4620      	mov	r0, r4
   d50da:	f000 f9a9 	bl	d5430 <_ZN13BlynkProtocolI22BlynkTransportParticleE7sendCmdEhtPKvjS3_j>
            lastHeartbeat = t;
   d50de:	6166      	str	r6, [r4, #20]
            lastLogin = lastActivityOut;
            return true;
        }
#endif
    }
    return true;
   d50e0:	2501      	movs	r5, #1
   d50e2:	e050      	b.n	d5186 <_ZN13BlynkProtocolI22BlynkTransportParticleE3runEb+0x14e>
            // Send ping if we didn't either send or receive something
            // for BLYNK_HEARTBEAT seconds
            sendCmd(BLYNK_CMD_PING);
            lastHeartbeat = t;
        }
    } else if (state == CONNECTING) {
   d50e4:	2f00      	cmp	r7, #0
   d50e6:	d1fb      	bne.n	d50e0 <_ZN13BlynkProtocolI22BlynkTransportParticleE3runEb+0xa8>
   d50e8:	6962      	ldr	r2, [r4, #20]
#ifdef BLYNK_USE_DIRECT_CONNECT
        if (!tconn)
            conn.connect();
#else
        if (tconn && (t - lastLogin > BLYNK_TIMEOUT_MS)) {
   d50ea:	b150      	cbz	r0, d5102 <_ZN13BlynkProtocolI22BlynkTransportParticleE3runEb+0xca>
   d50ec:	1ab6      	subs	r6, r6, r2
   d50ee:	f640 33b8 	movw	r3, #3000	; 0xbb8
   d50f2:	429e      	cmp	r6, r3
   d50f4:	d9f4      	bls.n	d50e0 <_ZN13BlynkProtocolI22BlynkTransportParticleE3runEb+0xa8>
            return (1 == client.connect(addr, port));
        }
        return 0;
    }

    void disconnect() { client.stop(); }
   d50f6:	6820      	ldr	r0, [r4, #0]
   d50f8:	f003 ffc0 	bl	d907c <_ZN9TCPClient4stopEv>
            BLYNK_LOG1(BLYNK_F("Login timeout"));
            conn.disconnect();
            state = CONNECTING;
            return false;
   d50fc:	463d      	mov	r5, r7
            conn.connect();
#else
        if (tconn && (t - lastLogin > BLYNK_TIMEOUT_MS)) {
            BLYNK_LOG1(BLYNK_F("Login timeout"));
            conn.disconnect();
            state = CONNECTING;
   d50fe:	7767      	strb	r7, [r4, #29]
            return false;
   d5100:	e041      	b.n	d5186 <_ZN13BlynkProtocolI22BlynkTransportParticleE3runEb+0x14e>
        } else if (!tconn && (t - lastLogin > 5000UL)) {
   d5102:	1ab2      	subs	r2, r6, r2
   d5104:	f241 3388 	movw	r3, #5000	; 0x1388
   d5108:	429a      	cmp	r2, r3
   d510a:	d9e9      	bls.n	d50e0 <_ZN13BlynkProtocolI22BlynkTransportParticleE3runEb+0xa8>
   d510c:	6820      	ldr	r0, [r4, #0]
   d510e:	f003 ffb5 	bl	d907c <_ZN9TCPClient4stopEv>
            conn.disconnect();
            if (!conn.connect()) {
   d5112:	f8d4 e000 	ldr.w	lr, [r4]
        domain = d;
        port = p;
    }

    bool connect() {
        if (domain) {
   d5116:	f8de c034 	ldr.w	ip, [lr, #52]	; 0x34
   d511a:	f8be 8038 	ldrh.w	r8, [lr, #56]	; 0x38
   d511e:	f1bc 0f00 	cmp.w	ip, #0
   d5122:	d009      	beq.n	d5138 <_ZN13BlynkProtocolI22BlynkTransportParticleE3runEb+0x100>
            BLYNK_LOG4(BLYNK_F("Connecting to "), domain, ':', port);
            return (1 == client.connect(domain, port));
   d5124:	462b      	mov	r3, r5
   d5126:	4642      	mov	r2, r8
   d5128:	4661      	mov	r1, ip
   d512a:	4670      	mov	r0, lr
   d512c:	f003 fde4 	bl	d8cf8 <_ZN9TCPClient7connectEPKctm>
   d5130:	1e42      	subs	r2, r0, #1
   d5132:	4255      	negs	r5, r2
   d5134:	4155      	adcs	r5, r2
   d5136:	e011      	b.n	d515c <_ZN13BlynkProtocolI22BlynkTransportParticleE3runEb+0x124>

/**
 * The IP address stored in host order.
 *
 */
class IPAddress : public Printable {
   d5138:	4b1e      	ldr	r3, [pc, #120]	; (d51b4 <_ZN13BlynkProtocolI22BlynkTransportParticleE3runEb+0x17c>)
   d513a:	9304      	str	r3, [sp, #16]
   d513c:	f10e 0720 	add.w	r7, lr, #32
   d5140:	cf0f      	ldmia	r7!, {r0, r1, r2, r3}
   d5142:	ad05      	add	r5, sp, #20
   d5144:	c50f      	stmia	r5!, {r0, r1, r2, r3}
   d5146:	683b      	ldr	r3, [r7, #0]
   d5148:	702b      	strb	r3, [r5, #0]
        } else {
            BLYNK_LOG_IP("Connecting to ", addr);
            return (1 == client.connect(addr, port));
   d514a:	4642      	mov	r2, r8
   d514c:	4663      	mov	r3, ip
   d514e:	a904      	add	r1, sp, #16
   d5150:	4670      	mov	r0, lr
   d5152:	f003 ff16 	bl	d8f82 <_ZN9TCPClient7connectE9IPAddresstm>
   d5156:	1e43      	subs	r3, r0, #1
   d5158:	425d      	negs	r5, r3
   d515a:	415d      	adcs	r5, r3
   d515c:	b90d      	cbnz	r5, d5162 <_ZN13BlynkProtocolI22BlynkTransportParticleE3runEb+0x12a>
                lastLogin = t;
   d515e:	6166      	str	r6, [r4, #20]
                return false;
   d5160:	e011      	b.n	d5186 <_ZN13BlynkProtocolI22BlynkTransportParticleE3runEb+0x14e>
            }

            msgIdOut = 1;
            sendCmd(BLYNK_CMD_LOGIN, 1, authkey, strlen(authkey));
   d5162:	6867      	ldr	r7, [r4, #4]
            if (!conn.connect()) {
                lastLogin = t;
                return false;
            }

            msgIdOut = 1;
   d5164:	2601      	movs	r6, #1
   d5166:	8326      	strh	r6, [r4, #24]
            sendCmd(BLYNK_CMD_LOGIN, 1, authkey, strlen(authkey));
   d5168:	4638      	mov	r0, r7
   d516a:	f005 fa7e 	bl	da66a <strlen>
   d516e:	2300      	movs	r3, #0
   d5170:	e88d 0009 	stmia.w	sp, {r0, r3}
   d5174:	9302      	str	r3, [sp, #8]
   d5176:	4632      	mov	r2, r6
   d5178:	463b      	mov	r3, r7
   d517a:	2102      	movs	r1, #2
   d517c:	4620      	mov	r0, r4
   d517e:	f000 f957 	bl	d5430 <_ZN13BlynkProtocolI22BlynkTransportParticleE7sendCmdEhtPKvjS3_j>
            lastLogin = lastActivityOut;
   d5182:	6923      	ldr	r3, [r4, #16]
   d5184:	6163      	str	r3, [r4, #20]
    ~BlynkHelperAutoInc() { --c; }
   d5186:	7f23      	ldrb	r3, [r4, #28]
   d5188:	3b01      	subs	r3, #1
   d518a:	7723      	strb	r3, [r4, #28]
   d518c:	e00e      	b.n	d51ac <_ZN13BlynkProtocolI22BlynkTransportParticleE3runEb+0x174>
bool BlynkProtocol<Transp>::run(bool avail)
{
    BLYNK_RUN_YIELD();

    if (state == DISCONNECTED) {
        return false;
   d518e:	2500      	movs	r5, #0
   d5190:	e00c      	b.n	d51ac <_ZN13BlynkProtocolI22BlynkTransportParticleE3runEb+0x174>

    if (conn.connected()) {
        while (avail || conn.available() > 0) {
            //BLYNK_LOG2(BLYNK_F("Available: "), conn.available());
            //const unsigned long t = micros();
            if (!processInput()) {
   d5192:	4620      	mov	r0, r4
   d5194:	f7ff fe12 	bl	d4dbc <_ZN13BlynkProtocolI22BlynkTransportParticleE12processInputEv>
   d5198:	4605      	mov	r5, r0
   d519a:	2800      	cmp	r0, #0
   d519c:	f47f af67 	bne.w	d506e <_ZN13BlynkProtocolI22BlynkTransportParticleE3runEb+0x36>
        }
        return 0;
    }

    void disconnect() { client.stop(); }
   d51a0:	6820      	ldr	r0, [r4, #0]
   d51a2:	f003 ff6b 	bl	d907c <_ZN9TCPClient4stopEv>
                conn.disconnect();
// TODO: Only when in direct mode?
#ifdef BLYNK_USE_DIRECT_CONNECT
                state = CONNECTING;
#endif
                BlynkOnDisconnected();
   d51a6:	f001 feab 	bl	d6f00 <BlynkNoOpCbk>
                return false;
   d51aa:	e7ec      	b.n	d5186 <_ZN13BlynkProtocolI22BlynkTransportParticleE3runEb+0x14e>
            return true;
        }
#endif
    }
    return true;
}
   d51ac:	4628      	mov	r0, r5
   d51ae:	b00a      	add	sp, #40	; 0x28
   d51b0:	e8bd 81f0 	ldmia.w	sp!, {r4, r5, r6, r7, r8, pc}
   d51b4:	000dbc00 	.word	0x000dbc00

000d51b8 <_ZN13BlynkParticle5beginEPKc9IPAddresst>:
        BlynkDelay(3000); // Give the board time to settle
        config(auth, domain, port);
        while(this->connect() != true) {}
    }

    void begin( const char* auth,
   d51b8:	e92d 41f0 	stmdb	sp!, {r4, r5, r6, r7, r8, lr}
   d51bc:	4614      	mov	r4, r2
   d51be:	b08c      	sub	sp, #48	; 0x30
   d51c0:	4605      	mov	r5, r0
   d51c2:	3404      	adds	r4, #4
                IPAddress addr,
                uint16_t port      = BLYNK_DEFAULT_PORT)
    {
        BlynkDelay(3000); // Give the board time to settle
   d51c4:	f640 30b8 	movw	r0, #3000	; 0xbb8
        BlynkDelay(3000); // Give the board time to settle
        config(auth, domain, port);
        while(this->connect() != true) {}
    }

    void begin( const char* auth,
   d51c8:	460f      	mov	r7, r1
   d51ca:	4698      	mov	r8, r3
                IPAddress addr,
                uint16_t port      = BLYNK_DEFAULT_PORT)
    {
        BlynkDelay(3000); // Give the board time to settle
   d51cc:	f001 fe90 	bl	d6ef0 <_Z10BlynkDelaym>
   d51d0:	cc0f      	ldmia	r4!, {r0, r1, r2, r3}
   d51d2:	ae01      	add	r6, sp, #4
   d51d4:	c60f      	stmia	r6!, {r0, r1, r2, r3}
   d51d6:	6823      	ldr	r3, [r4, #0]
    int readHeader(BlynkHeader& hdr);
    uint16_t getNextMsgId();

protected:
    void begin(const char* auth) {
        this->authkey = auth;
   d51d8:	606f      	str	r7, [r5, #4]
   d51da:	7033      	strb	r3, [r6, #0]
        lastHeartbeat = lastActivityIn = lastActivityOut = (BlynkMillis() - 5000UL);
   d51dc:	f001 fe8a 	bl	d6ef4 <_Z11BlynkMillisv>
   d51e0:	f5a0 509c 	sub.w	r0, r0, #4992	; 0x1380
   d51e4:	3808      	subs	r0, #8
   d51e6:	af01      	add	r7, sp, #4
   d51e8:	6128      	str	r0, [r5, #16]
   d51ea:	60e8      	str	r0, [r5, #12]
   d51ec:	6168      	str	r0, [r5, #20]
   d51ee:	cf0f      	ldmia	r7!, {r0, r1, r2, r3}
   d51f0:	ae07      	add	r6, sp, #28
   d51f2:	c60f      	stmia	r6!, {r0, r1, r2, r3}
   d51f4:	683b      	ldr	r3, [r7, #0]
   d51f6:	7033      	strb	r3, [r6, #0]
   d51f8:	af07      	add	r7, sp, #28
   d51fa:	cf0f      	ldmia	r7!, {r0, r1, r2, r3}
    void config(const char* auth,
                IPAddress addr,
                uint16_t port      = BLYNK_DEFAULT_PORT)
    {
        Base::begin(auth);
        this->conn.begin(addr, port);
   d51fc:	682c      	ldr	r4, [r5, #0]
    BlynkTransportParticle()
        : domain(NULL), port(0)
    {}

    void begin(IPAddress a, uint16_t p) {
        domain = NULL;
   d51fe:	f04f 0e00 	mov.w	lr, #0
   d5202:	f8c4 e034 	str.w	lr, [r4, #52]	; 0x34
        port = p;
   d5206:	f8a4 8038 	strh.w	r8, [r4, #56]	; 0x38
   d520a:	3420      	adds	r4, #32
   d520c:	c40f      	stmia	r4!, {r0, r1, r2, r3}
   d520e:	6833      	ldr	r3, [r6, #0]
   d5210:	7023      	strb	r3, [r4, #0]

    bool connect(uint32_t timeout = BLYNK_TIMEOUT_MS*3) {
        conn.disconnect();
        state = CONNECTING;
        millis_time_t started = BlynkMillis();
        while ((state != CONNECTED) &&
   d5212:	f242 3627 	movw	r6, #8999	; 0x2327

    bool connected() { return state == CONNECTED; }

    bool connect(uint32_t timeout = BLYNK_TIMEOUT_MS*3) {
        conn.disconnect();
        state = CONNECTING;
   d5216:	4674      	mov	r4, lr
            return (1 == client.connect(addr, port));
        }
        return 0;
    }

    void disconnect() { client.stop(); }
   d5218:	6828      	ldr	r0, [r5, #0]
   d521a:	f003 ff2f 	bl	d907c <_ZN9TCPClient4stopEv>
   d521e:	776c      	strb	r4, [r5, #29]
        millis_time_t started = BlynkMillis();
   d5220:	f001 fe68 	bl	d6ef4 <_Z11BlynkMillisv>
   d5224:	4607      	mov	r7, r0
        while ((state != CONNECTED) &&
   d5226:	7f6b      	ldrb	r3, [r5, #29]
   d5228:	2b01      	cmp	r3, #1
   d522a:	d009      	beq.n	d5240 <_ZN13BlynkParticle5beginEPKc9IPAddresst+0x88>
               (BlynkMillis() - started < timeout))
   d522c:	f001 fe62 	bl	d6ef4 <_Z11BlynkMillisv>

    bool connect(uint32_t timeout = BLYNK_TIMEOUT_MS*3) {
        conn.disconnect();
        state = CONNECTING;
        millis_time_t started = BlynkMillis();
        while ((state != CONNECTED) &&
   d5230:	1bc0      	subs	r0, r0, r7
   d5232:	42b0      	cmp	r0, r6
   d5234:	d804      	bhi.n	d5240 <_ZN13BlynkParticle5beginEPKc9IPAddresst+0x88>
               (BlynkMillis() - started < timeout))
        {
            run();
   d5236:	2100      	movs	r1, #0
   d5238:	4628      	mov	r0, r5
   d523a:	f7ff fefd 	bl	d5038 <_ZN13BlynkProtocolI22BlynkTransportParticleE3runEb>
   d523e:	e7f2      	b.n	d5226 <_ZN13BlynkParticle5beginEPKc9IPAddresst+0x6e>
                IPAddress addr,
                uint16_t port      = BLYNK_DEFAULT_PORT)
    {
        BlynkDelay(3000); // Give the board time to settle
        config(auth, addr, port);
        while(this->connect() != true) {}
   d5240:	7f6b      	ldrb	r3, [r5, #29]
   d5242:	2b01      	cmp	r3, #1
   d5244:	d1e8      	bne.n	d5218 <_ZN13BlynkParticle5beginEPKc9IPAddresst+0x60>
    }
   d5246:	b00c      	add	sp, #48	; 0x30
   d5248:	e8bd 81f0 	ldmia.w	sp!, {r4, r5, r6, r7, r8, pc}

000d524c <setup>:
    String minute = String::format("%02i",Time.minute(now));
    return hour + ":" + minute;
}

void setup(void)
{
   d524c:	b570      	push	{r4, r5, r6, lr}
   d524e:	b08a      	sub	sp, #40	; 0x28
  Serial.begin(9600);
   d5250:	f004 f962 	bl	d9518 <_Z16_fetch_usbserialv>
   d5254:	f44f 5116 	mov.w	r1, #9600	; 0x2580
   d5258:	f004 f952 	bl	d9500 <_ZN9USBSerial5beginEl>
  if(!bno.begin())
   d525c:	210c      	movs	r1, #12
   d525e:	485b      	ldr	r0, [pc, #364]	; (d53cc <setup+0x180>)
   d5260:	f000 feef 	bl	d6042 <_ZN15Adafruit_BNO0555beginENS_24adafruit_bno055_opmode_tE>
   d5264:	b900      	cbnz	r0, d5268 <setup+0x1c>
   d5266:	e7fe      	b.n	d5266 <setup+0x1a>
  {
    while(1);
    Serial.println("not working");
  }
  delay(1000);
   d5268:	f44f 707a 	mov.w	r0, #1000	; 0x3e8
   d526c:	f002 fd7a 	bl	d7d64 <delay>
  bno.setExtCrystalUse(true);
   d5270:	2101      	movs	r1, #1
   d5272:	4856      	ldr	r0, [pc, #344]	; (d53cc <setup+0x180>)
	typedef _Function_handler<_Signature_type, _Functor> _My_handler;

	if (_My_handler::_M_not_empty_function(__f))
	  {
	    _My_handler::_M_init_functor(_M_functor, std::move(__f));
	    _M_invoker = &_My_handler::_M_invoke;
   d5274:	4e56      	ldr	r6, [pc, #344]	; (d53d0 <setup+0x184>)
	    _M_manager = &_My_handler::_M_manager;
   d5276:	4d57      	ldr	r5, [pc, #348]	; (d53d4 <setup+0x188>)
   d5278:	f000 fea6 	bl	d5fc8 <_ZN15Adafruit_BNO05516setExtCrystalUseEb>
  pinMode(A3, OUTPUT);
   d527c:	2101      	movs	r1, #1
   d527e:	2010      	movs	r0, #16
   d5280:	f004 fa3c 	bl	d96fc <pinMode>
  pinMode(A3,OUTPUT);
   d5284:	2101      	movs	r1, #1
   d5286:	2010      	movs	r0, #16
   d5288:	f004 fa38 	bl	d96fc <pinMode>
  Serial.println("complete");
   d528c:	f004 f944 	bl	d9518 <_Z16_fetch_usbserialv>
   d5290:	4951      	ldr	r1, [pc, #324]	; (d53d8 <setup+0x18c>)
   d5292:	f003 fab0 	bl	d87f6 <_ZN5Print7printlnEPKc>
  matrix.begin();
   d5296:	4851      	ldr	r0, [pc, #324]	; (d53dc <setup+0x190>)
   d5298:	f001 ffaf 	bl	d71fa <_ZN17Adafruit_NeoPixel5beginEv>
  matrix.setTextWrap(false);
   d529c:	2100      	movs	r1, #0
   d529e:	4850      	ldr	r0, [pc, #320]	; (d53e0 <setup+0x194>)
   d52a0:	f001 f9e7 	bl	d6672 <_ZN12Adafruit_GFX11setTextWrapEb>
  matrix.setBrightness(30);
   d52a4:	211e      	movs	r1, #30
   d52a6:	484d      	ldr	r0, [pc, #308]	; (d53dc <setup+0x190>)
   d52a8:	f002 f9d2 	bl	d7650 <_ZN17Adafruit_NeoPixel13setBrightnessEh>
  matrix.setTextColor(matrix.Color(80,255,0));
   d52ac:	2200      	movs	r2, #0
   d52ae:	21ff      	movs	r1, #255	; 0xff
   d52b0:	2050      	movs	r0, #80	; 0x50
   d52b2:	f001 ff67 	bl	d7184 <_ZN18Adafruit_NeoMatrix5ColorEhhh>
   d52b6:	4601      	mov	r1, r0
   d52b8:	4849      	ldr	r0, [pc, #292]	; (d53e0 <setup+0x194>)
   d52ba:	f001 f9d7 	bl	d666c <_ZN12Adafruit_GFX12setTextColorEt>
  matrix_1.begin();
   d52be:	4849      	ldr	r0, [pc, #292]	; (d53e4 <setup+0x198>)
   d52c0:	f001 ff9b 	bl	d71fa <_ZN17Adafruit_NeoPixel5beginEv>
  matrix_1.setTextWrap(false);
   d52c4:	2100      	movs	r1, #0
   d52c6:	4848      	ldr	r0, [pc, #288]	; (d53e8 <setup+0x19c>)
   d52c8:	f001 f9d3 	bl	d6672 <_ZN12Adafruit_GFX11setTextWrapEb>
  matrix_1.setBrightness(30);
   d52cc:	211e      	movs	r1, #30
   d52ce:	4845      	ldr	r0, [pc, #276]	; (d53e4 <setup+0x198>)
   d52d0:	f002 f9be 	bl	d7650 <_ZN17Adafruit_NeoPixel13setBrightnessEh>
  matrix_1.setTextColor(matrix.Color(80,255,0));
   d52d4:	2200      	movs	r2, #0
   d52d6:	21ff      	movs	r1, #255	; 0xff
   d52d8:	2050      	movs	r0, #80	; 0x50
   d52da:	f001 ff53 	bl	d7184 <_ZN18Adafruit_NeoMatrix5ColorEhhh>
   d52de:	4601      	mov	r1, r0
   d52e0:	4841      	ldr	r0, [pc, #260]	; (d53e8 <setup+0x19c>)
   d52e2:	f001 f9c3 	bl	d666c <_ZN12Adafruit_GFX12setTextColorEt>
  updateTimer.SetCallback(OnTimer);
   d52e6:	4941      	ldr	r1, [pc, #260]	; (d53ec <setup+0x1a0>)
   d52e8:	4841      	ldr	r0, [pc, #260]	; (d53f0 <setup+0x1a4>)
   d52ea:	f001 fdfd 	bl	d6ee8 <_ZN20SparkCorePolledTimer11SetCallbackEPFvvE>
  Blynk.begin("8d7cb678e67a48d49e443ce542cbf215",IPAddress(167,99,150,124),8080);
   d52ee:	237c      	movs	r3, #124	; 0x7c
   d52f0:	9300      	str	r3, [sp, #0]
   d52f2:	2263      	movs	r2, #99	; 0x63
   d52f4:	2396      	movs	r3, #150	; 0x96
   d52f6:	21a7      	movs	r1, #167	; 0xa7
   d52f8:	a804      	add	r0, sp, #16
     */
    int publishVitals(system_tick_t period_s = particle::NOW);

    inline bool subscribe(const char *eventName, EventHandler handler, Spark_Subscription_Scope_TypeDef scope)
    {
        return CLOUD_FN(spark_subscribe(eventName, handler, NULL, scope, NULL, NULL), false);
   d52fa:	2400      	movs	r4, #0
   d52fc:	f003 f90e 	bl	d851c <_ZN9IPAddressC1Ehhhh>
   d5300:	f641 7390 	movw	r3, #8080	; 0x1f90
   d5304:	aa04      	add	r2, sp, #16
   d5306:	493b      	ldr	r1, [pc, #236]	; (d53f4 <setup+0x1a8>)
   d5308:	483b      	ldr	r0, [pc, #236]	; (d53f8 <setup+0x1ac>)
   d530a:	f7ff ff55 	bl	d51b8 <_ZN13BlynkParticle5beginEPKc9IPAddresst>
   d530e:	2301      	movs	r3, #1
   d5310:	4622      	mov	r2, r4
   d5312:	493a      	ldr	r1, [pc, #232]	; (d53fc <setup+0x1b0>)
   d5314:	9401      	str	r4, [sp, #4]
   d5316:	9400      	str	r4, [sp, #0]
   d5318:	4839      	ldr	r0, [pc, #228]	; (d5400 <setup+0x1b4>)
   d531a:	f002 fc63 	bl	d7be4 <spark_subscribe>
   d531e:	4623      	mov	r3, r4
   d5320:	4622      	mov	r2, r4
   d5322:	4938      	ldr	r1, [pc, #224]	; (d5404 <setup+0x1b8>)
   d5324:	9401      	str	r4, [sp, #4]
   d5326:	9400      	str	r4, [sp, #0]
   d5328:	4837      	ldr	r0, [pc, #220]	; (d5408 <setup+0x1bc>)
   d532a:	f002 fc5b 	bl	d7be4 <spark_subscribe>
   d532e:	4623      	mov	r3, r4
   d5330:	4622      	mov	r2, r4
   d5332:	4936      	ldr	r1, [pc, #216]	; (d540c <setup+0x1c0>)
   d5334:	9401      	str	r4, [sp, #4]
   d5336:	9400      	str	r4, [sp, #0]
   d5338:	4835      	ldr	r0, [pc, #212]	; (d5410 <setup+0x1c4>)
   d533a:	f002 fc53 	bl	d7be4 <spark_subscribe>
	  { return true; }

      private:
	static void
	_M_init_functor(_Any_data& __functor, _Functor&& __f, true_type)
	{ new (__functor._M_access()) _Functor(std::move(__f)); }
   d533e:	4b35      	ldr	r3, [pc, #212]	; (d5414 <setup+0x1c8>)
   d5340:	9304      	str	r3, [sp, #16]
  Particle.subscribe("particle/device/ip", ipHandler);//subscribes to global IP get
  Particle.subscribe("hook-response/geoip", geoIpHandler, MY_DEVICES);
  Particle.subscribe("hook-response/tempRead", tempHandler, MY_DEVICES);
  weather = Thread("name", weatherFunction);
   d5342:	f44f 6340 	mov.w	r3, #3072	; 0xc00
   d5346:	9300      	str	r3, [sp, #0]
   d5348:	aa04      	add	r2, sp, #16
   d534a:	2302      	movs	r3, #2
   d534c:	4932      	ldr	r1, [pc, #200]	; (d5418 <setup+0x1cc>)
	typedef _Function_handler<_Signature_type, _Functor> _My_handler;

	if (_My_handler::_M_not_empty_function(__f))
	  {
	    _My_handler::_M_init_functor(_M_functor, std::move(__f));
	    _M_invoker = &_My_handler::_M_invoke;
   d534e:	9607      	str	r6, [sp, #28]
   d5350:	a803      	add	r0, sp, #12
	    _M_manager = &_My_handler::_M_manager;
   d5352:	9506      	str	r5, [sp, #24]
   d5354:	f7fe ff5c 	bl	d4210 <_ZN6ThreadC1EPKcSt8functionIFvvEEhj>
#endif
    {
      // concept requirements
      __glibcxx_function_requires(_SGIAssignableConcept<_Tp>)

      _Tp __tmp = _GLIBCXX_MOVE(__a);
   d5358:	4b30      	ldr	r3, [pc, #192]	; (d541c <setup+0x1d0>)
      }

      /// Return the stored pointer.
      pointer
      get() const noexcept
      { return std::get<0>(_M_t); }
   d535a:	9a03      	ldr	r2, [sp, #12]
   d535c:	6818      	ldr	r0, [r3, #0]
      /// Release ownership of any stored pointer.
      pointer
      release() noexcept
      {
	pointer __p = get();
	std::get<0>(_M_t) = pointer();
   d535e:	9403      	str	r4, [sp, #12]
      __a = _GLIBCXX_MOVE(__b);
   d5360:	601a      	str	r2, [r3, #0]
      void
      reset(pointer __p = pointer()) noexcept
      {
	using std::swap;
	swap(std::get<0>(_M_t), __p);
	if (__p != pointer())
   d5362:	b108      	cbz	r0, d5368 <setup+0x11c>
	  get_deleter()(__p);
   d5364:	f7fe ff22 	bl	d41ac <_ZNKSt14default_deleteIN6Thread4DataEEclEPS1_.isra.16>
   d5368:	a803      	add	r0, sp, #12
   d536a:	f7fe ff32 	bl	d41d2 <_ZN6ThreadD1Ev>
   *  @ingroup functors
   *
   *  Polymorphic function wrapper.
   */
  template<typename _Res, typename... _ArgTypes>
    class function<_Res(_ArgTypes...)>
   d536e:	a804      	add	r0, sp, #16
   d5370:	f7fe ff13 	bl	d419a <_ZNSt14_Function_baseD1Ev>
	  { return true; }

      private:
	static void
	_M_init_functor(_Any_data& __functor, _Functor&& __f, true_type)
	{ new (__functor._M_access()) _Functor(std::move(__f)); }
   d5374:	4b2a      	ldr	r3, [pc, #168]	; (d5420 <setup+0x1d4>)
   d5376:	9304      	str	r3, [sp, #16]
  main = Thread("nubeds", mainFunction);
   d5378:	f44f 6340 	mov.w	r3, #3072	; 0xc00
   d537c:	9300      	str	r3, [sp, #0]
   d537e:	aa04      	add	r2, sp, #16
   d5380:	2302      	movs	r3, #2
   d5382:	4928      	ldr	r1, [pc, #160]	; (d5424 <setup+0x1d8>)
	typedef _Function_handler<_Signature_type, _Functor> _My_handler;

	if (_My_handler::_M_not_empty_function(__f))
	  {
	    _My_handler::_M_init_functor(_M_functor, std::move(__f));
	    _M_invoker = &_My_handler::_M_invoke;
   d5384:	9607      	str	r6, [sp, #28]
   d5386:	a803      	add	r0, sp, #12
	    _M_manager = &_My_handler::_M_manager;
   d5388:	9506      	str	r5, [sp, #24]
   d538a:	f7fe ff41 	bl	d4210 <_ZN6ThreadC1EPKcSt8functionIFvvEEhj>
      /// Release ownership of any stored pointer.
      pointer
      release() noexcept
      {
	pointer __p = get();
	std::get<0>(_M_t) = pointer();
   d538e:	2300      	movs	r3, #0
      }

      /// Return the stored pointer.
      pointer
      get() const noexcept
      { return std::get<0>(_M_t); }
   d5390:	9a03      	ldr	r2, [sp, #12]
      /// Release ownership of any stored pointer.
      pointer
      release() noexcept
      {
	pointer __p = get();
	std::get<0>(_M_t) = pointer();
   d5392:	9303      	str	r3, [sp, #12]
#endif
    {
      // concept requirements
      __glibcxx_function_requires(_SGIAssignableConcept<_Tp>)

      _Tp __tmp = _GLIBCXX_MOVE(__a);
   d5394:	4b24      	ldr	r3, [pc, #144]	; (d5428 <setup+0x1dc>)
   d5396:	6818      	ldr	r0, [r3, #0]
      __a = _GLIBCXX_MOVE(__b);
   d5398:	601a      	str	r2, [r3, #0]
      void
      reset(pointer __p = pointer()) noexcept
      {
	using std::swap;
	swap(std::get<0>(_M_t), __p);
	if (__p != pointer())
   d539a:	b108      	cbz	r0, d53a0 <setup+0x154>
	  get_deleter()(__p);
   d539c:	f7fe ff06 	bl	d41ac <_ZNKSt14default_deleteIN6Thread4DataEEclEPS1_.isra.16>
   d53a0:	a803      	add	r0, sp, #12
   d53a2:	f7fe ff16 	bl	d41d2 <_ZN6ThreadD1Ev>
   *  @ingroup functors
   *
   *  Polymorphic function wrapper.
   */
  template<typename _Res, typename... _ArgTypes>
    class function<_Res(_ArgTypes...)>
   d53a6:	a804      	add	r0, sp, #16
   d53a8:	f7fe fef7 	bl	d419a <_ZNSt14_Function_baseD1Ev>
  pinMode(A5, OUTPUT);
   d53ac:	2101      	movs	r1, #1
   d53ae:	200e      	movs	r0, #14
   d53b0:	f004 f9a4 	bl	d96fc <pinMode>
  pinMode(D2, OUTPUT);
   d53b4:	2101      	movs	r1, #1
   d53b6:	2002      	movs	r0, #2
   d53b8:	f004 f9a0 	bl	d96fc <pinMode>
  strip.begin();
   d53bc:	481b      	ldr	r0, [pc, #108]	; (d542c <setup+0x1e0>)
   d53be:	f001 ff1c 	bl	d71fa <_ZN17Adafruit_NeoPixel5beginEv>
  strip.show();
   d53c2:	481a      	ldr	r0, [pc, #104]	; (d542c <setup+0x1e0>)
   d53c4:	f001 ff50 	bl	d7268 <_ZN17Adafruit_NeoPixel4showEv>
}
   d53c8:	b00a      	add	sp, #40	; 0x28
   d53ca:	bd70      	pop	{r4, r5, r6, pc}
   d53cc:	2003dd48 	.word	0x2003dd48
   d53d0:	000d40e5 	.word	0x000d40e5
   d53d4:	000d40e9 	.word	0x000d40e9
   d53d8:	000db07e 	.word	0x000db07e
   d53dc:	2003dcb4 	.word	0x2003dcb4
   d53e0:	2003dc98 	.word	0x2003dc98
   d53e4:	2003dd00 	.word	0x2003dd00
   d53e8:	2003dce4 	.word	0x2003dce4
   d53ec:	000d40cd 	.word	0x000d40cd
   d53f0:	2003dc48 	.word	0x2003dc48
   d53f4:	000db087 	.word	0x000db087
   d53f8:	2003e334 	.word	0x2003e334
   d53fc:	000d4135 	.word	0x000d4135
   d5400:	000dafce 	.word	0x000dafce
   d5404:	000d4ad1 	.word	0x000d4ad1
   d5408:	000db0a8 	.word	0x000db0a8
   d540c:	000d4a59 	.word	0x000d4a59
   d5410:	000db0bc 	.word	0x000db0bc
   d5414:	000d4979 	.word	0x000d4979
   d5418:	000db0d3 	.word	0x000db0d3
   d541c:	2003dc58 	.word	0x2003dc58
   d5420:	000d5841 	.word	0x000d5841
   d5424:	000db0d8 	.word	0x000db0d8
   d5428:	2003dce0 	.word	0x2003dce0
   d542c:	2003dd34 	.word	0x2003dd34

000d5430 <_ZN13BlynkProtocolI22BlynkTransportParticleE7sendCmdEhtPKvjS3_j>:
#ifndef BLYNK_SEND_CHUNK
#define BLYNK_SEND_CHUNK 1024 // Just a big number
#endif

template <class Transp>
void BlynkProtocol<Transp>::sendCmd(uint8_t cmd, uint16_t id, const void* data, size_t length, const void* data2, size_t length2)
   d5430:	e92d 4ff0 	stmdb	sp!, {r4, r5, r6, r7, r8, r9, sl, fp, lr}
   d5434:	b083      	sub	sp, #12
   d5436:	af00      	add	r7, sp, #0
   d5438:	4604      	mov	r4, r0
    size_t write(const void* buf, size_t len) {
        return client.write((const uint8_t*)buf, len);
    }

    void flush() { client.flush(); }
    bool connected() { return client.connected(); }
   d543a:	6800      	ldr	r0, [r0, #0]
   d543c:	6b3d      	ldr	r5, [r7, #48]	; 0x30
   d543e:	4689      	mov	r9, r1
   d5440:	4616      	mov	r6, r2
   d5442:	469b      	mov	fp, r3
#endif
        internalReconnect();
        return;
    }

    lastActivityOut = BlynkMillis();
   d5444:	46ea      	mov	sl, sp
   d5446:	f003 fc2a 	bl	d8c9e <_ZN9TCPClient9connectedEv>
#endif

template <class Transp>
void BlynkProtocol<Transp>::sendCmd(uint8_t cmd, uint16_t id, const void* data, size_t length, const void* data2, size_t length2)
{
    if (!conn.connected() || (cmd != BLYNK_CMD_RESPONSE && cmd != BLYNK_CMD_PING && cmd != BLYNK_CMD_LOGIN && state != CONNECTED) ) {
   d544a:	2800      	cmp	r0, #0
   d544c:	d060      	beq.n	d5510 <_ZN13BlynkProtocolI22BlynkTransportParticleE7sendCmdEhtPKvjS3_j+0xe0>
   d544e:	f019 0ffd 	tst.w	r9, #253	; 0xfd
   d5452:	f000 809e 	beq.w	d5592 <_ZN13BlynkProtocolI22BlynkTransportParticleE7sendCmdEhtPKvjS3_j+0x162>
   d5456:	f1b9 0f06 	cmp.w	r9, #6
   d545a:	f000 809a 	beq.w	d5592 <_ZN13BlynkProtocolI22BlynkTransportParticleE7sendCmdEhtPKvjS3_j+0x162>
   d545e:	7f63      	ldrb	r3, [r4, #29]
   d5460:	2b01      	cmp	r3, #1
   d5462:	d155      	bne.n	d5510 <_ZN13BlynkProtocolI22BlynkTransportParticleE7sendCmdEhtPKvjS3_j+0xe0>
        BLYNK_LOG2(BLYNK_F("Cmd skipped:"), cmd);
#endif
        return;
    }

    if (0 == id) {
   d5464:	b916      	cbnz	r6, d546c <_ZN13BlynkProtocolI22BlynkTransportParticleE7sendCmdEhtPKvjS3_j+0x3c>
}

template <class Transp>
uint16_t BlynkProtocol<Transp>::getNextMsgId()
{
    if (msgIdOutOverride != 0)
   d5466:	8b66      	ldrh	r6, [r4, #26]
   d5468:	2e00      	cmp	r6, #0
   d546a:	d053      	beq.n	d5514 <_ZN13BlynkProtocolI22BlynkTransportParticleE7sendCmdEhtPKvjS3_j+0xe4>
    if (0 == id) {
        id = getNextMsgId();
    }

#if defined(BLYNK_MSG_LIMIT) && BLYNK_MSG_LIMIT > 0
    if (cmd >= BLYNK_CMD_TWEET && cmd <= BLYNK_CMD_HARDWARE) {
   d546c:	f1a9 030c 	sub.w	r3, r9, #12
   d5470:	2b08      	cmp	r3, #8
   d5472:	d957      	bls.n	d5524 <_ZN13BlynkProtocolI22BlynkTransportParticleE7sendCmdEhtPKvjS3_j+0xf4>
    }
#endif

    const size_t full_length = (sizeof(BlynkHeader)) +
                               (data  ? length  : 0) +
                               (data2 ? length2 : 0);
   d5474:	6b7a      	ldr	r2, [r7, #52]	; 0x34
   d5476:	f1bb 0f00 	cmp.w	fp, #0
   d547a:	bf14      	ite	ne
   d547c:	46a8      	movne	r8, r5
   d547e:	f04f 0800 	moveq.w	r8, #0
   d5482:	2a00      	cmp	r2, #0
   d5484:	6bba      	ldr	r2, [r7, #56]	; 0x38
   d5486:	f108 0305 	add.w	r3, r8, #5
   d548a:	bf14      	ite	ne
   d548c:	4690      	movne	r8, r2
   d548e:	f04f 0800 	moveq.w	r8, #0
   d5492:	4498      	add	r8, r3

#if defined(BLYNK_SEND_ATOMIC) || defined(ESP8266) || defined(ESP32) || defined(SPARK) || defined(PARTICLE) || defined(ENERGIA)
    // Those have more RAM and like single write at a time...

    uint8_t buff[full_length];
   d5494:	f108 0307 	add.w	r3, r8, #7
   d5498:	f023 0307 	bic.w	r3, r3, #7

    BlynkHeader* hdr = (BlynkHeader*)buff;
    hdr->type = cmd;
    hdr->msg_id = htons(id);
    hdr->length = htons(length+length2);
   d549c:	18aa      	adds	r2, r5, r2
                               (data2 ? length2 : 0);

#if defined(BLYNK_SEND_ATOMIC) || defined(ESP8266) || defined(ESP32) || defined(SPARK) || defined(PARTICLE) || defined(ENERGIA)
    // Those have more RAM and like single write at a time...

    uint8_t buff[full_length];
   d549e:	ebad 0d03 	sub.w	sp, sp, r3

    BlynkHeader* hdr = (BlynkHeader*)buff;
    hdr->type = cmd;
    hdr->msg_id = htons(id);
    hdr->length = htons(length+length2);
   d54a2:	f3c2 2307 	ubfx	r3, r2, #8, #8

    uint8_t buff[full_length];

    BlynkHeader* hdr = (BlynkHeader*)buff;
    hdr->type = cmd;
    hdr->msg_id = htons(id);
   d54a6:	ba76      	rev16	r6, r6
    hdr->length = htons(length+length2);
   d54a8:	ea43 2302 	orr.w	r3, r3, r2, lsl #8
                               (data2 ? length2 : 0);

#if defined(BLYNK_SEND_ATOMIC) || defined(ESP8266) || defined(ESP32) || defined(SPARK) || defined(PARTICLE) || defined(ENERGIA)
    // Those have more RAM and like single write at a time...

    uint8_t buff[full_length];
   d54ac:	f8c7 d004 	str.w	sp, [r7, #4]

    BlynkHeader* hdr = (BlynkHeader*)buff;
    hdr->type = cmd;
   d54b0:	f88d 9000 	strb.w	r9, [sp]
    hdr->msg_id = htons(id);
   d54b4:	f8ad 6001 	strh.w	r6, [sp, #1]
    hdr->length = htons(length+length2);
   d54b8:	f8ad 3003 	strh.w	r3, [sp, #3]

    size_t pos = sizeof(BlynkHeader);
    if (data && length) {
   d54bc:	f1bb 0f00 	cmp.w	fp, #0
   d54c0:	d04f      	beq.n	d5562 <_ZN13BlynkProtocolI22BlynkTransportParticleE7sendCmdEhtPKvjS3_j+0x132>
   d54c2:	2d00      	cmp	r5, #0
   d54c4:	d04d      	beq.n	d5562 <_ZN13BlynkProtocolI22BlynkTransportParticleE7sendCmdEhtPKvjS3_j+0x132>
        memcpy(buff + pos, data, length);
   d54c6:	462a      	mov	r2, r5
   d54c8:	4659      	mov	r1, fp
   d54ca:	f10d 0005 	add.w	r0, sp, #5
   d54ce:	f005 f863 	bl	da598 <memcpy>
        pos += length;
   d54d2:	1d68      	adds	r0, r5, #5
    }
    if (data2 && length2) {
   d54d4:	6b7b      	ldr	r3, [r7, #52]	; 0x34
   d54d6:	2b00      	cmp	r3, #0
   d54d8:	d145      	bne.n	d5566 <_ZN13BlynkProtocolI22BlynkTransportParticleE7sendCmdEhtPKvjS3_j+0x136>
    BlynkHeader* hdr = (BlynkHeader*)buff;
    hdr->type = cmd;
    hdr->msg_id = htons(id);
    hdr->length = htons(length+length2);

    size_t pos = sizeof(BlynkHeader);
   d54da:	2500      	movs	r5, #0
    if (data2 && length2) {
        memcpy(buff + pos, data2, length2);
    }

    size_t wlen = 0;
    while (wlen < full_length) {
   d54dc:	4545      	cmp	r5, r8
   d54de:	d24e      	bcs.n	d557e <_ZN13BlynkProtocolI22BlynkTransportParticleE7sendCmdEhtPKvjS3_j+0x14e>
        const size_t chunk = BlynkMin(size_t(BLYNK_SEND_CHUNK), full_length - wlen);
   d54e0:	ebc5 0208 	rsb	r2, r5, r8
    size_t read(void* buf, size_t len) {
        return client.readBytes((char*)buf, len);
    }

    size_t write(const void* buf, size_t len) {
        return client.write((const uint8_t*)buf, len);
   d54e4:	687b      	ldr	r3, [r7, #4]
   d54e6:	6820      	ldr	r0, [r4, #0]
   d54e8:	f5b2 6f80 	cmp.w	r2, #1024	; 0x400
   d54ec:	bf28      	it	cs
   d54ee:	f44f 6280 	movcs.w	r2, #1024	; 0x400
   d54f2:	1959      	adds	r1, r3, r5
   d54f4:	f003 fbbd 	bl	d8c72 <_ZN9TCPClient5writeEPKhj>
   d54f8:	4606      	mov	r6, r0
        BLYNK_DBG_DUMP("<", buff + wlen, chunk);
        const size_t w = conn.write(buff + wlen, chunk);
        BlynkDelay(BLYNK_SEND_THROTTLE);
   d54fa:	2000      	movs	r0, #0
   d54fc:	f001 fcf8 	bl	d6ef0 <_Z10BlynkDelaym>
        if (w == 0) {
   d5500:	2e00      	cmp	r6, #0
   d5502:	d13a      	bne.n	d557a <_ZN13BlynkProtocolI22BlynkTransportParticleE7sendCmdEhtPKvjS3_j+0x14a>
            return (1 == client.connect(addr, port));
        }
        return 0;
    }

    void disconnect() { client.stop(); }
   d5504:	6820      	ldr	r0, [r4, #0]
   d5506:	f003 fdb9 	bl	d907c <_ZN9TCPClient4stopEv>
#ifdef BLYNK_DEBUG
            BLYNK_LOG1(BLYNK_F("Cmd error"));
#endif
            conn.disconnect();
            state = CONNECTING;
   d550a:	7766      	strb	r6, [r4, #29]
            BlynkOnDisconnected();
   d550c:	f001 fcf8 	bl	d6f00 <BlynkNoOpCbk>
{
    if (!conn.connected() || (cmd != BLYNK_CMD_RESPONSE && cmd != BLYNK_CMD_PING && cmd != BLYNK_CMD_LOGIN && state != CONNECTED) ) {
#ifdef BLYNK_DEBUG_ALL
        BLYNK_LOG2(BLYNK_F("Cmd skipped:"), cmd);
#endif
        return;
   d5510:	46d5      	mov	sp, sl
   d5512:	e042      	b.n	d559a <_ZN13BlynkProtocolI22BlynkTransportParticleE7sendCmdEhtPKvjS3_j+0x16a>
template <class Transp>
uint16_t BlynkProtocol<Transp>::getNextMsgId()
{
    if (msgIdOutOverride != 0)
        return msgIdOutOverride;
    if (++msgIdOut == 0)
   d5514:	8b23      	ldrh	r3, [r4, #24]
   d5516:	3301      	adds	r3, #1
   d5518:	b29b      	uxth	r3, r3
   d551a:	b903      	cbnz	r3, d551e <_ZN13BlynkProtocolI22BlynkTransportParticleE7sendCmdEhtPKvjS3_j+0xee>
        msgIdOut = 1;
   d551c:	2301      	movs	r3, #1
   d551e:	8323      	strh	r3, [r4, #24]
    return msgIdOut;
   d5520:	8b26      	ldrh	r6, [r4, #24]
   d5522:	e7a3      	b.n	d546c <_ZN13BlynkProtocolI22BlynkTransportParticleE7sendCmdEhtPKvjS3_j+0x3c>
        id = getNextMsgId();
    }

#if defined(BLYNK_MSG_LIMIT) && BLYNK_MSG_LIMIT > 0
    if (cmd >= BLYNK_CMD_TWEET && cmd <= BLYNK_CMD_HARDWARE) {
        const millis_time_t allowed_time = BlynkMax(lastActivityOut, lastActivityIn) + 1000/BLYNK_MSG_LIMIT;
   d5524:	68e3      	ldr	r3, [r4, #12]
   d5526:	6922      	ldr	r2, [r4, #16]
   d5528:	4293      	cmp	r3, r2
   d552a:	bf38      	it	cc
   d552c:	4613      	movcc	r3, r2
   d552e:	f103 0842 	add.w	r8, r3, #66	; 0x42
        int32_t wait_time = allowed_time - BlynkMillis();
   d5532:	f001 fcdf 	bl	d6ef4 <_Z11BlynkMillisv>
        if (wait_time >= 0) {
   d5536:	ebc0 0008 	rsb	r0, r0, r8
   d553a:	2800      	cmp	r0, #0
   d553c:	db0a      	blt.n	d5554 <_ZN13BlynkProtocolI22BlynkTransportParticleE7sendCmdEhtPKvjS3_j+0x124>
#ifdef BLYNK_DEBUG_ALL
            BLYNK_LOG2(BLYNK_F("Waiting:"), wait_time);
#endif
            while (wait_time >= 0) {
                run();
   d553e:	2100      	movs	r1, #0
   d5540:	4620      	mov	r0, r4
   d5542:	f7ff fd79 	bl	d5038 <_ZN13BlynkProtocolI22BlynkTransportParticleE3runEb>
                wait_time = allowed_time - BlynkMillis();
   d5546:	f001 fcd5 	bl	d6ef4 <_Z11BlynkMillisv>
        int32_t wait_time = allowed_time - BlynkMillis();
        if (wait_time >= 0) {
#ifdef BLYNK_DEBUG_ALL
            BLYNK_LOG2(BLYNK_F("Waiting:"), wait_time);
#endif
            while (wait_time >= 0) {
   d554a:	ebc0 0008 	rsb	r0, r0, r8
   d554e:	2800      	cmp	r0, #0
   d5550:	daf5      	bge.n	d553e <_ZN13BlynkProtocolI22BlynkTransportParticleE7sendCmdEhtPKvjS3_j+0x10e>
   d5552:	e78f      	b.n	d5474 <_ZN13BlynkProtocolI22BlynkTransportParticleE7sendCmdEhtPKvjS3_j+0x44>
                run();
                wait_time = allowed_time - BlynkMillis();
            }
        } else if (nesting == 0) {
   d5554:	7f21      	ldrb	r1, [r4, #28]
   d5556:	2900      	cmp	r1, #0
   d5558:	d18c      	bne.n	d5474 <_ZN13BlynkProtocolI22BlynkTransportParticleE7sendCmdEhtPKvjS3_j+0x44>
            run();
   d555a:	4620      	mov	r0, r4
   d555c:	f7ff fd6c 	bl	d5038 <_ZN13BlynkProtocolI22BlynkTransportParticleE3runEb>
   d5560:	e788      	b.n	d5474 <_ZN13BlynkProtocolI22BlynkTransportParticleE7sendCmdEhtPKvjS3_j+0x44>
    BlynkHeader* hdr = (BlynkHeader*)buff;
    hdr->type = cmd;
    hdr->msg_id = htons(id);
    hdr->length = htons(length+length2);

    size_t pos = sizeof(BlynkHeader);
   d5562:	2005      	movs	r0, #5
   d5564:	e7b6      	b.n	d54d4 <_ZN13BlynkProtocolI22BlynkTransportParticleE7sendCmdEhtPKvjS3_j+0xa4>
    if (data && length) {
        memcpy(buff + pos, data, length);
        pos += length;
    }
    if (data2 && length2) {
   d5566:	6bbb      	ldr	r3, [r7, #56]	; 0x38
   d5568:	2b00      	cmp	r3, #0
   d556a:	d0b6      	beq.n	d54da <_ZN13BlynkProtocolI22BlynkTransportParticleE7sendCmdEhtPKvjS3_j+0xaa>
        memcpy(buff + pos, data2, length2);
   d556c:	461a      	mov	r2, r3
   d556e:	687b      	ldr	r3, [r7, #4]
   d5570:	6b79      	ldr	r1, [r7, #52]	; 0x34
   d5572:	4418      	add	r0, r3
   d5574:	f005 f810 	bl	da598 <memcpy>
   d5578:	e7af      	b.n	d54da <_ZN13BlynkProtocolI22BlynkTransportParticleE7sendCmdEhtPKvjS3_j+0xaa>
            conn.disconnect();
            state = CONNECTING;
            BlynkOnDisconnected();
            return;
        }
        wlen += w;
   d557a:	4435      	add	r5, r6
    if (data2 && length2) {
        memcpy(buff + pos, data2, length2);
    }

    size_t wlen = 0;
    while (wlen < full_length) {
   d557c:	e7ae      	b.n	d54dc <_ZN13BlynkProtocolI22BlynkTransportParticleE7sendCmdEhtPKvjS3_j+0xac>
        }
    }

#endif

    if (wlen != full_length) {
   d557e:	d003      	beq.n	d5588 <_ZN13BlynkProtocolI22BlynkTransportParticleE7sendCmdEhtPKvjS3_j+0x158>
#ifdef BLYNK_DEBUG
        BLYNK_LOG4(BLYNK_F("Sent "), wlen, '/', full_length);
#endif
        internalReconnect();
   d5580:	4620      	mov	r0, r4
   d5582:	f7ff fad5 	bl	d4b30 <_ZN13BlynkProtocolI22BlynkTransportParticleE17internalReconnectEv>
        return;
   d5586:	e7c3      	b.n	d5510 <_ZN13BlynkProtocolI22BlynkTransportParticleE7sendCmdEhtPKvjS3_j+0xe0>
    }

    lastActivityOut = BlynkMillis();
   d5588:	f001 fcb4 	bl	d6ef4 <_Z11BlynkMillisv>
   d558c:	6120      	str	r0, [r4, #16]
   d558e:	46d5      	mov	sp, sl
   d5590:	e003      	b.n	d559a <_ZN13BlynkProtocolI22BlynkTransportParticleE7sendCmdEhtPKvjS3_j+0x16a>
        BLYNK_LOG2(BLYNK_F("Cmd skipped:"), cmd);
#endif
        return;
    }

    if (0 == id) {
   d5592:	2e00      	cmp	r6, #0
   d5594:	f47f af6e 	bne.w	d5474 <_ZN13BlynkProtocolI22BlynkTransportParticleE7sendCmdEhtPKvjS3_j+0x44>
   d5598:	e765      	b.n	d5466 <_ZN13BlynkProtocolI22BlynkTransportParticleE7sendCmdEhtPKvjS3_j+0x36>
        return;
    }

    lastActivityOut = BlynkMillis();

}
   d559a:	370c      	adds	r7, #12
   d559c:	46bd      	mov	sp, r7
   d559e:	e8bd 8ff0 	ldmia.w	sp!, {r4, r5, r6, r7, r8, r9, sl, fp, pc}
	...

000d55a4 <_ZN8BlynkApiI13BlynkProtocolI22BlynkTransportParticleEE8sendInfoEv>:

#else

template<class Proto>
BLYNK_FORCE_INLINE
void BlynkApi<Proto>::sendInfo()
   d55a4:	b51f      	push	{r0, r1, r2, r3, r4, lr}
#ifdef BLYNK_HAS_PROGMEM
    char mem[profile_len];
    memcpy_P(mem, profile+8, profile_len);
    static_cast<Proto*>(this)->sendCmd(BLYNK_CMD_INTERNAL, 0, mem, profile_len);
#else
    static_cast<Proto*>(this)->sendCmd(BLYNK_CMD_INTERNAL, 0, profile+8, profile_len);
   d55a6:	2200      	movs	r2, #0
   d55a8:	2349      	movs	r3, #73	; 0x49
   d55aa:	9300      	str	r3, [sp, #0]
   d55ac:	9202      	str	r2, [sp, #8]
   d55ae:	9201      	str	r2, [sp, #4]
   d55b0:	4b03      	ldr	r3, [pc, #12]	; (d55c0 <_ZN8BlynkApiI13BlynkProtocolI22BlynkTransportParticleEE8sendInfoEv+0x1c>)
   d55b2:	2111      	movs	r1, #17
   d55b4:	f7ff ff3c 	bl	d5430 <_ZN13BlynkProtocolI22BlynkTransportParticleE7sendCmdEhtPKvjS3_j>
#endif
    return;
}
   d55b8:	b005      	add	sp, #20
   d55ba:	f85d fb04 	ldr.w	pc, [sp], #4
   d55be:	bf00      	nop
   d55c0:	000daf4c 	.word	0x000daf4c

000d55c4 <_ZN8BlynkApiI13BlynkProtocolI22BlynkTransportParticleEE12virtualWriteII8PinStateEEEviDpT_>:
     *
     * @param pin  Virtual Pin number
     * @param data Value to be sent
     */
    template <typename... Args>
    void virtualWrite(int pin, Args... values) {
   d55c4:	b5f0      	push	{r4, r5, r6, r7, lr}
   d55c6:	f2ad 4d24 	subw	sp, sp, #1060	; 0x424
        : buff((char*)addr), len(length), buff_size(length)
    {}

    explicit
    BlynkParam(void* addr, size_t length, size_t buffsize)
        : buff((char*)addr), len(length), buff_size(buffsize)
   d55ca:	ab08      	add	r3, sp, #32
   d55cc:	2400      	movs	r4, #0
   d55ce:	4605      	mov	r5, r0
   d55d0:	460f      	mov	r7, r1
   d55d2:	9305      	str	r3, [sp, #20]
        char mem[BLYNK_MAX_SENDBYTES];
        BlynkParam cmd(mem, 0, sizeof(mem));
        cmd.add("vw");
   d55d4:	a805      	add	r0, sp, #20
   d55d6:	f44f 6380 	mov.w	r3, #1024	; 0x400
   d55da:	490e      	ldr	r1, [pc, #56]	; (d5614 <_ZN8BlynkApiI13BlynkProtocolI22BlynkTransportParticleEE12virtualWriteII8PinStateEEEviDpT_+0x50>)
   d55dc:	9307      	str	r3, [sp, #28]
     *
     * @param pin  Virtual Pin number
     * @param data Value to be sent
     */
    template <typename... Args>
    void virtualWrite(int pin, Args... values) {
   d55de:	4616      	mov	r6, r2
   d55e0:	9406      	str	r4, [sp, #24]
        char mem[BLYNK_MAX_SENDBYTES];
        BlynkParam cmd(mem, 0, sizeof(mem));
        cmd.add("vw");
   d55e2:	f7fe feb5 	bl	d4350 <_ZN10BlynkParam3addEPKc>
        cmd.add(pin);
   d55e6:	4639      	mov	r1, r7
   d55e8:	a805      	add	r0, sp, #20
   d55ea:	f7fe fecd 	bl	d4388 <_ZN10BlynkParam3addEi>
#endif
#endif

    template<typename T, typename... Args>
    void add_multi(T last) {
        add(last);
   d55ee:	4631      	mov	r1, r6
   d55f0:	a805      	add	r0, sp, #20
   d55f2:	f7fe fec9 	bl	d4388 <_ZN10BlynkParam3addEi>
        cmd.add_multi(values...);
        static_cast<Proto*>(this)->sendCmd(BLYNK_CMD_HARDWARE, 0, cmd.getBuffer(), cmd.getLength()-1);
   d55f6:	9b06      	ldr	r3, [sp, #24]
   d55f8:	9402      	str	r4, [sp, #8]
   d55fa:	3b01      	subs	r3, #1
   d55fc:	9300      	str	r3, [sp, #0]
   d55fe:	9401      	str	r4, [sp, #4]
   d5600:	9b05      	ldr	r3, [sp, #20]
   d5602:	4622      	mov	r2, r4
   d5604:	2114      	movs	r1, #20
   d5606:	4628      	mov	r0, r5
   d5608:	f7ff ff12 	bl	d5430 <_ZN13BlynkProtocolI22BlynkTransportParticleE7sendCmdEhtPKvjS3_j>
    }
   d560c:	f20d 4d24 	addw	sp, sp, #1060	; 0x424
   d5610:	bdf0      	pop	{r4, r5, r6, r7, pc}
   d5612:	bf00      	nop
   d5614:	000db0df 	.word	0x000db0df

000d5618 <_ZN8BlynkApiI13BlynkProtocolI22BlynkTransportParticleEE6notifyIA13_cEEvRKT_>:
     * Sends a push notification to the App
     *
     * @param msg Text of the message
     */
    template<typename T>
    void notify(const T& msg) {
   d5618:	b530      	push	{r4, r5, lr}
   d561a:	f2ad 4d24 	subw	sp, sp, #1060	; 0x424
        : buff((char*)addr), len(length), buff_size(length)
    {}

    explicit
    BlynkParam(void* addr, size_t length, size_t buffsize)
        : buff((char*)addr), len(length), buff_size(buffsize)
   d561e:	ab08      	add	r3, sp, #32
   d5620:	2400      	movs	r4, #0
   d5622:	4605      	mov	r5, r0
   d5624:	9305      	str	r3, [sp, #20]
        char mem[BLYNK_MAX_SENDBYTES];
        BlynkParam cmd(mem, 0, sizeof(mem));
        cmd.add(msg);
   d5626:	a805      	add	r0, sp, #20
   d5628:	f44f 6380 	mov.w	r3, #1024	; 0x400
   d562c:	9307      	str	r3, [sp, #28]
   d562e:	9406      	str	r4, [sp, #24]
   d5630:	f7fe fe8e 	bl	d4350 <_ZN10BlynkParam3addEPKc>
        static_cast<Proto*>(this)->sendCmd(BLYNK_CMD_NOTIFY, 0, cmd.getBuffer(), cmd.getLength()-1);
   d5634:	9b06      	ldr	r3, [sp, #24]
   d5636:	9402      	str	r4, [sp, #8]
   d5638:	3b01      	subs	r3, #1
   d563a:	9300      	str	r3, [sp, #0]
   d563c:	9401      	str	r4, [sp, #4]
   d563e:	9b05      	ldr	r3, [sp, #20]
   d5640:	4622      	mov	r2, r4
   d5642:	210e      	movs	r1, #14
   d5644:	4628      	mov	r0, r5
   d5646:	f7ff fef3 	bl	d5430 <_ZN13BlynkProtocolI22BlynkTransportParticleE7sendCmdEhtPKvjS3_j>
    }
   d564a:	f20d 4d24 	addw	sp, sp, #1060	; 0x424
   d564e:	bd30      	pop	{r4, r5, pc}

000d5650 <_Z5timerv>:
void OnTimer() {
  timerDone = true;
  timerOn = false;
}

void timer(){
   d5650:	b570      	push	{r4, r5, r6, lr}
  if (timerDone==true){
   d5652:	4b70      	ldr	r3, [pc, #448]	; (d5814 <_Z5timerv+0x1c4>)
   d5654:	6819      	ldr	r1, [r3, #0]
   d5656:	2901      	cmp	r1, #1
   d5658:	461d      	mov	r5, r3
   d565a:	d170      	bne.n	d573e <_Z5timerv+0xee>
    Blynk.virtualWrite(V1, LOW);
   d565c:	2200      	movs	r2, #0
   d565e:	486e      	ldr	r0, [pc, #440]	; (d5818 <_Z5timerv+0x1c8>)
    Blynk.notify("Time's UP!!!");
    x2 = matrix_1.width();
   d5660:	4c6e      	ldr	r4, [pc, #440]	; (d581c <_Z5timerv+0x1cc>)
  timerOn = false;
}

void timer(){
  if (timerDone==true){
    Blynk.virtualWrite(V1, LOW);
   d5662:	f7ff ffaf 	bl	d55c4 <_ZN8BlynkApiI13BlynkProtocolI22BlynkTransportParticleEE12virtualWriteII8PinStateEEEviDpT_>
    Blynk.notify("Time's UP!!!");
   d5666:	496e      	ldr	r1, [pc, #440]	; (d5820 <_Z5timerv+0x1d0>)
   d5668:	486b      	ldr	r0, [pc, #428]	; (d5818 <_Z5timerv+0x1c8>)
   d566a:	f7ff ffd5 	bl	d5618 <_ZN8BlynkApiI13BlynkProtocolI22BlynkTransportParticleEE6notifyIA13_cEEvRKT_>
    x2 = matrix_1.width();
   d566e:	486d      	ldr	r0, [pc, #436]	; (d5824 <_Z5timerv+0x1d4>)
   d5670:	f001 f801 	bl	d6676 <_ZN12Adafruit_GFX5widthEv>
   d5674:	2636      	movs	r6, #54	; 0x36
   d5676:	6020      	str	r0, [r4, #0]
    for(int i = 0;i<54;i++){
    matrix_1.fillScreen(0);
   d5678:	2100      	movs	r1, #0
   d567a:	486a      	ldr	r0, [pc, #424]	; (d5824 <_Z5timerv+0x1d4>)
   d567c:	f001 fc76 	bl	d6f6c <_ZN18Adafruit_NeoMatrix10fillScreenEt>
    matrix_1.setCursor(x2, 0);
   d5680:	2200      	movs	r2, #0
   d5682:	f9b4 1000 	ldrsh.w	r1, [r4]
   d5686:	4867      	ldr	r0, [pc, #412]	; (d5824 <_Z5timerv+0x1d4>)
   d5688:	f000 ffed 	bl	d6666 <_ZN12Adafruit_GFX9setCursorEss>
    tone(D2, 3401, 500); //connect two to D2
   d568c:	f44f 72fa 	mov.w	r2, #500	; 0x1f4
   d5690:	f640 5149 	movw	r1, #3401	; 0xd49
   d5694:	2002      	movs	r0, #2
   d5696:	f003 fe45 	bl	d9324 <tone>
    tone(A5, 3817, 500);
   d569a:	f44f 72fa 	mov.w	r2, #500	; 0x1f4
   d569e:	f640 61e9 	movw	r1, #3817	; 0xee9
   d56a2:	200e      	movs	r0, #14
   d56a4:	f003 fe3e 	bl	d9324 <tone>
    tone(D2, 3817, 500);
   d56a8:	f44f 72fa 	mov.w	r2, #500	; 0x1f4
   d56ac:	f640 61e9 	movw	r1, #3817	; 0xee9
   d56b0:	2002      	movs	r0, #2
   d56b2:	f003 fe37 	bl	d9324 <tone>
    tone(A5, 3401, 500); // connect two to A5
   d56b6:	f44f 72fa 	mov.w	r2, #500	; 0x1f4
   d56ba:	f640 5149 	movw	r1, #3401	; 0xd49
   d56be:	200e      	movs	r0, #14
   d56c0:	f003 fe30 	bl	d9324 <tone>
    matrix_1.print(F("Time's Up   "));
   d56c4:	4958      	ldr	r1, [pc, #352]	; (d5828 <_Z5timerv+0x1d8>)
   d56c6:	4857      	ldr	r0, [pc, #348]	; (d5824 <_Z5timerv+0x1d4>)
   d56c8:	f003 f885 	bl	d87d6 <_ZN5Print5printEPK19__FlashStringHelper>
    if(--x2 < -36) {
   d56cc:	6823      	ldr	r3, [r4, #0]
   d56ce:	3b01      	subs	r3, #1
   d56d0:	6023      	str	r3, [r4, #0]
   d56d2:	3324      	adds	r3, #36	; 0x24
   d56d4:	da0d      	bge.n	d56f2 <_Z5timerv+0xa2>
        x2 = matrix_1.width();
   d56d6:	4853      	ldr	r0, [pc, #332]	; (d5824 <_Z5timerv+0x1d4>)
   d56d8:	f000 ffcd 	bl	d6676 <_ZN12Adafruit_GFX5widthEv>
   d56dc:	4b4f      	ldr	r3, [pc, #316]	; (d581c <_Z5timerv+0x1cc>)
        matrix_1.setTextColor(matrix_1.Color(80, 255, 0));
   d56de:	21ff      	movs	r1, #255	; 0xff
    tone(A5, 3817, 500);
    tone(D2, 3817, 500);
    tone(A5, 3401, 500); // connect two to A5
    matrix_1.print(F("Time's Up   "));
    if(--x2 < -36) {
        x2 = matrix_1.width();
   d56e0:	6018      	str	r0, [r3, #0]
        matrix_1.setTextColor(matrix_1.Color(80, 255, 0));
   d56e2:	2200      	movs	r2, #0
   d56e4:	2050      	movs	r0, #80	; 0x50
   d56e6:	f001 fd4d 	bl	d7184 <_ZN18Adafruit_NeoMatrix5ColorEhhh>
   d56ea:	4601      	mov	r1, r0
   d56ec:	484d      	ldr	r0, [pc, #308]	; (d5824 <_Z5timerv+0x1d4>)
   d56ee:	f000 ffbd 	bl	d666c <_ZN12Adafruit_GFX12setTextColorEt>
    }
    tone(D2, 3401, 500); //connect two to D2
   d56f2:	f44f 72fa 	mov.w	r2, #500	; 0x1f4
   d56f6:	f640 5149 	movw	r1, #3401	; 0xd49
   d56fa:	2002      	movs	r0, #2
   d56fc:	f003 fe12 	bl	d9324 <tone>
    tone(A5, 3817, 500);
   d5700:	f44f 72fa 	mov.w	r2, #500	; 0x1f4
   d5704:	f640 61e9 	movw	r1, #3817	; 0xee9
   d5708:	200e      	movs	r0, #14
   d570a:	f003 fe0b 	bl	d9324 <tone>
    tone(D2, 3817, 500);
   d570e:	f44f 72fa 	mov.w	r2, #500	; 0x1f4
   d5712:	f640 61e9 	movw	r1, #3817	; 0xee9
   d5716:	2002      	movs	r0, #2
   d5718:	f003 fe04 	bl	d9324 <tone>
    tone(A5, 3401, 500); // connect two to A5
   d571c:	f44f 72fa 	mov.w	r2, #500	; 0x1f4
   d5720:	f640 5149 	movw	r1, #3401	; 0xd49
   d5724:	200e      	movs	r0, #14
   d5726:	f003 fdfd 	bl	d9324 <tone>
    matrix_1.show();
   d572a:	4840      	ldr	r0, [pc, #256]	; (d582c <_Z5timerv+0x1dc>)
   d572c:	f001 fd9c 	bl	d7268 <_ZN17Adafruit_NeoPixel4showEv>
    delay(100);
   d5730:	2064      	movs	r0, #100	; 0x64
   d5732:	f002 fb17 	bl	d7d64 <delay>
void timer(){
  if (timerDone==true){
    Blynk.virtualWrite(V1, LOW);
    Blynk.notify("Time's UP!!!");
    x2 = matrix_1.width();
    for(int i = 0;i<54;i++){
   d5736:	3e01      	subs	r6, #1
   d5738:	d19e      	bne.n	d5678 <_Z5timerv+0x28>
    tone(D2, 3817, 500);
    tone(A5, 3401, 500); // connect two to A5
    matrix_1.show();
    delay(100);
    }
    timerDone = false;
   d573a:	602e      	str	r6, [r5, #0]
   d573c:	bd70      	pop	{r4, r5, r6, pc}
  } else if(timerOn == true){
   d573e:	4b3c      	ldr	r3, [pc, #240]	; (d5830 <_Z5timerv+0x1e0>)
   d5740:	681b      	ldr	r3, [r3, #0]
   d5742:	2b01      	cmp	r3, #1
   d5744:	d13b      	bne.n	d57be <_Z5timerv+0x16e>
    for(int i = timerTime;i>0;i-=1000){
   d5746:	4b3b      	ldr	r3, [pc, #236]	; (d5834 <_Z5timerv+0x1e4>)
    updateTimer.Update();
    Serial.println(i/1000);
    matrix_1.fillScreen(0);
    matrix_1.setCursor(2, 0);
    matrix_1.print(i/1000);
    if(--x2 < -36) {
   d5748:	4e34      	ldr	r6, [pc, #208]	; (d581c <_Z5timerv+0x1cc>)
    matrix_1.show();
    delay(100);
    }
    timerDone = false;
  } else if(timerOn == true){
    for(int i = timerTime;i>0;i-=1000){
   d574a:	681c      	ldr	r4, [r3, #0]
   d574c:	2c00      	cmp	r4, #0
   d574e:	dd5f      	ble.n	d5810 <_Z5timerv+0x1c0>
    updateTimer.Update();
   d5750:	4839      	ldr	r0, [pc, #228]	; (d5838 <_Z5timerv+0x1e8>)
   d5752:	f001 fbbd 	bl	d6ed0 <_ZN20SparkCorePolledTimer6UpdateEv>
    Serial.println(i/1000);
   d5756:	f44f 757a 	mov.w	r5, #1000	; 0x3e8
   d575a:	f003 fedd 	bl	d9518 <_Z16_fetch_usbserialv>
   d575e:	fb94 f5f5 	sdiv	r5, r4, r5
   d5762:	220a      	movs	r2, #10
   d5764:	4629      	mov	r1, r5
   d5766:	f003 f8a3 	bl	d88b0 <_ZN5Print7printlnEii>
    matrix_1.fillScreen(0);
   d576a:	2100      	movs	r1, #0
   d576c:	482d      	ldr	r0, [pc, #180]	; (d5824 <_Z5timerv+0x1d4>)
   d576e:	f001 fbfd 	bl	d6f6c <_ZN18Adafruit_NeoMatrix10fillScreenEt>
    matrix_1.setCursor(2, 0);
   d5772:	2200      	movs	r2, #0
   d5774:	2102      	movs	r1, #2
   d5776:	482b      	ldr	r0, [pc, #172]	; (d5824 <_Z5timerv+0x1d4>)
   d5778:	f000 ff75 	bl	d6666 <_ZN12Adafruit_GFX9setCursorEss>
    matrix_1.print(i/1000);
   d577c:	220a      	movs	r2, #10
   d577e:	4629      	mov	r1, r5
   d5780:	4828      	ldr	r0, [pc, #160]	; (d5824 <_Z5timerv+0x1d4>)
   d5782:	f003 f893 	bl	d88ac <_ZN5Print5printEii>
    if(--x2 < -36) {
   d5786:	6833      	ldr	r3, [r6, #0]
   d5788:	3b01      	subs	r3, #1
   d578a:	6033      	str	r3, [r6, #0]
   d578c:	3324      	adds	r3, #36	; 0x24
   d578e:	da0c      	bge.n	d57aa <_Z5timerv+0x15a>
      x2 = matrix_1.width();
   d5790:	4824      	ldr	r0, [pc, #144]	; (d5824 <_Z5timerv+0x1d4>)
   d5792:	f000 ff70 	bl	d6676 <_ZN12Adafruit_GFX5widthEv>
      matrix_1.setTextColor(matrix_1.Color(80, 255, 0));
   d5796:	21ff      	movs	r1, #255	; 0xff
    Serial.println(i/1000);
    matrix_1.fillScreen(0);
    matrix_1.setCursor(2, 0);
    matrix_1.print(i/1000);
    if(--x2 < -36) {
      x2 = matrix_1.width();
   d5798:	6030      	str	r0, [r6, #0]
      matrix_1.setTextColor(matrix_1.Color(80, 255, 0));
   d579a:	2200      	movs	r2, #0
   d579c:	2050      	movs	r0, #80	; 0x50
   d579e:	f001 fcf1 	bl	d7184 <_ZN18Adafruit_NeoMatrix5ColorEhhh>
   d57a2:	4601      	mov	r1, r0
   d57a4:	481f      	ldr	r0, [pc, #124]	; (d5824 <_Z5timerv+0x1d4>)
   d57a6:	f000 ff61 	bl	d666c <_ZN12Adafruit_GFX12setTextColorEt>
    }
    matrix_1.show();
   d57aa:	4820      	ldr	r0, [pc, #128]	; (d582c <_Z5timerv+0x1dc>)
   d57ac:	f001 fd5c 	bl	d7268 <_ZN17Adafruit_NeoPixel4showEv>
    delay(1000);
   d57b0:	f44f 707a 	mov.w	r0, #1000	; 0x3e8
   d57b4:	f002 fad6 	bl	d7d64 <delay>
    matrix_1.show();
    delay(100);
    }
    timerDone = false;
  } else if(timerOn == true){
    for(int i = timerTime;i>0;i-=1000){
   d57b8:	f5a4 747a 	sub.w	r4, r4, #1000	; 0x3e8
   d57bc:	e7c6      	b.n	d574c <_Z5timerv+0xfc>
    matrix_1.show();
    delay(1000);
    }
  } else {
    matrix_1.fillScreen(0);
    matrix_1.setCursor(x2, 0);
   d57be:	4c17      	ldr	r4, [pc, #92]	; (d581c <_Z5timerv+0x1cc>)
    }
    matrix_1.show();
    delay(1000);
    }
  } else {
    matrix_1.fillScreen(0);
   d57c0:	4818      	ldr	r0, [pc, #96]	; (d5824 <_Z5timerv+0x1d4>)
   d57c2:	2100      	movs	r1, #0
   d57c4:	f001 fbd2 	bl	d6f6c <_ZN18Adafruit_NeoMatrix10fillScreenEt>
    matrix_1.setCursor(x2, 0);
   d57c8:	2200      	movs	r2, #0
   d57ca:	f9b4 1000 	ldrsh.w	r1, [r4]
   d57ce:	4815      	ldr	r0, [pc, #84]	; (d5824 <_Z5timerv+0x1d4>)
   d57d0:	f000 ff49 	bl	d6666 <_ZN12Adafruit_GFX9setCursorEss>
    matrix_1.print(F("TIMER"));
   d57d4:	4919      	ldr	r1, [pc, #100]	; (d583c <_Z5timerv+0x1ec>)
   d57d6:	4813      	ldr	r0, [pc, #76]	; (d5824 <_Z5timerv+0x1d4>)
   d57d8:	f002 fffd 	bl	d87d6 <_ZN5Print5printEPK19__FlashStringHelper>
    if(--x2 < -36) {
   d57dc:	6823      	ldr	r3, [r4, #0]
   d57de:	3b01      	subs	r3, #1
   d57e0:	6023      	str	r3, [r4, #0]
   d57e2:	3324      	adds	r3, #36	; 0x24
   d57e4:	da0c      	bge.n	d5800 <_Z5timerv+0x1b0>
      x2 = matrix_1.width();
   d57e6:	480f      	ldr	r0, [pc, #60]	; (d5824 <_Z5timerv+0x1d4>)
   d57e8:	f000 ff45 	bl	d6676 <_ZN12Adafruit_GFX5widthEv>
      matrix_1.setTextColor(matrix_1.Color(80, 255, 0));
   d57ec:	21ff      	movs	r1, #255	; 0xff
  } else {
    matrix_1.fillScreen(0);
    matrix_1.setCursor(x2, 0);
    matrix_1.print(F("TIMER"));
    if(--x2 < -36) {
      x2 = matrix_1.width();
   d57ee:	6020      	str	r0, [r4, #0]
      matrix_1.setTextColor(matrix_1.Color(80, 255, 0));
   d57f0:	2200      	movs	r2, #0
   d57f2:	2050      	movs	r0, #80	; 0x50
   d57f4:	f001 fcc6 	bl	d7184 <_ZN18Adafruit_NeoMatrix5ColorEhhh>
   d57f8:	4601      	mov	r1, r0
   d57fa:	480a      	ldr	r0, [pc, #40]	; (d5824 <_Z5timerv+0x1d4>)
   d57fc:	f000 ff36 	bl	d666c <_ZN12Adafruit_GFX12setTextColorEt>
    }
    matrix_1.show();
   d5800:	480a      	ldr	r0, [pc, #40]	; (d582c <_Z5timerv+0x1dc>)
   d5802:	f001 fd31 	bl	d7268 <_ZN17Adafruit_NeoPixel4showEv>
    delay(100);
   d5806:	2064      	movs	r0, #100	; 0x64
    }
}
   d5808:	e8bd 4070 	ldmia.w	sp!, {r4, r5, r6, lr}
    if(--x2 < -36) {
      x2 = matrix_1.width();
      matrix_1.setTextColor(matrix_1.Color(80, 255, 0));
    }
    matrix_1.show();
    delay(100);
   d580c:	f002 baaa 	b.w	d7d64 <delay>
   d5810:	bd70      	pop	{r4, r5, r6, pc}
   d5812:	bf00      	nop
   d5814:	2003dc90 	.word	0x2003dc90
   d5818:	2003e334 	.word	0x2003e334
   d581c:	2003dd28 	.word	0x2003dd28
   d5820:	000db0e2 	.word	0x000db0e2
   d5824:	2003dce4 	.word	0x2003dce4
   d5828:	000db0ef 	.word	0x000db0ef
   d582c:	2003dd00 	.word	0x2003dd00
   d5830:	2003ddbc 	.word	0x2003ddbc
   d5834:	2003db78 	.word	0x2003db78
   d5838:	2003dc48 	.word	0x2003dc48
   d583c:	000db0fc 	.word	0x000db0fc

000d5840 <_Z12mainFunctionv>:
    }
  }
}

void mainFunction()
{
   d5840:	e92d 4ff0 	stmdb	sp!, {r4, r5, r6, r7, r8, r9, sl, fp, lr}
  Blynk.run();
  BLYNK_WRITE(V1);
  BLYNK_WRITE(V0);
  BLYNK_WRITE(V2);
  BLYNK_WRITE(V3);
  matrix.setBrightness(brightness);
   d5844:	f8df 9350 	ldr.w	r9, [pc, #848]	; d5b98 <_Z12mainFunctionv+0x358>
    }
  }
}

void mainFunction()
{
   d5848:	b099      	sub	sp, #100	; 0x64
  while(1){
  Blynk.run();
   d584a:	2100      	movs	r1, #0
   d584c:	48ba      	ldr	r0, [pc, #744]	; (d5b38 <_Z12mainFunctionv+0x2f8>)
  BLYNK_WRITE(V0);
  BLYNK_WRITE(V2);
  BLYNK_WRITE(V3);
  matrix.setBrightness(brightness);
  matrix_1.setBrightness(brightness);
  matrix.setTextColor(matrix.Color(r,g,b));
   d584e:	4ebb      	ldr	r6, [pc, #748]	; (d5b3c <_Z12mainFunctionv+0x2fc>)
   d5850:	4fbb      	ldr	r7, [pc, #748]	; (d5b40 <_Z12mainFunctionv+0x300>)
   d5852:	f8df 8348 	ldr.w	r8, [pc, #840]	; d5b9c <_Z12mainFunctionv+0x35c>
  matrix_1.setTextColor(matrix.Color(r,g,b));
  sensors_event_t accelData, orientationData;
  bno.getEvent(&accelData, Adafruit_BNO055::VECTOR_ACCELEROMETER);
  bno.getEvent(&orientationData, Adafruit_BNO055::VECTOR_EULER);
  x = accelData.acceleration.x;
   d5856:	4cbb      	ldr	r4, [pc, #748]	; (d5b44 <_Z12mainFunctionv+0x304>)
  y = accelData.acceleration.y;
   d5858:	4dbb      	ldr	r5, [pc, #748]	; (d5b48 <_Z12mainFunctionv+0x308>)
  z = accelData.acceleration.z;
  ori = orientationData.orientation.x;
   d585a:	f8df a344 	ldr.w	sl, [pc, #836]	; d5ba0 <_Z12mainFunctionv+0x360>
  ntpTime->nowMillis(&now);
   d585e:	f8df b344 	ldr.w	fp, [pc, #836]	; d5ba4 <_Z12mainFunctionv+0x364>
}

void mainFunction()
{
  while(1){
  Blynk.run();
   d5862:	f7ff fbe9 	bl	d5038 <_ZN13BlynkProtocolI22BlynkTransportParticleE3runEb>
  BLYNK_WRITE(V1);
  BLYNK_WRITE(V0);
  BLYNK_WRITE(V2);
  BLYNK_WRITE(V3);
  matrix.setBrightness(brightness);
   d5866:	f899 1000 	ldrb.w	r1, [r9]
   d586a:	48b8      	ldr	r0, [pc, #736]	; (d5b4c <_Z12mainFunctionv+0x30c>)
   d586c:	f001 fef0 	bl	d7650 <_ZN17Adafruit_NeoPixel13setBrightnessEh>
  matrix_1.setBrightness(brightness);
   d5870:	f899 1000 	ldrb.w	r1, [r9]
   d5874:	48b6      	ldr	r0, [pc, #728]	; (d5b50 <_Z12mainFunctionv+0x310>)
   d5876:	f001 feeb 	bl	d7650 <_ZN17Adafruit_NeoPixel13setBrightnessEh>
  matrix.setTextColor(matrix.Color(r,g,b));
   d587a:	7832      	ldrb	r2, [r6, #0]
   d587c:	7839      	ldrb	r1, [r7, #0]
   d587e:	f898 0000 	ldrb.w	r0, [r8]
   d5882:	f001 fc7f 	bl	d7184 <_ZN18Adafruit_NeoMatrix5ColorEhhh>
   d5886:	4601      	mov	r1, r0
   d5888:	48b2      	ldr	r0, [pc, #712]	; (d5b54 <_Z12mainFunctionv+0x314>)
   d588a:	f000 feef 	bl	d666c <_ZN12Adafruit_GFX12setTextColorEt>
  matrix_1.setTextColor(matrix.Color(r,g,b));
   d588e:	7832      	ldrb	r2, [r6, #0]
   d5890:	7839      	ldrb	r1, [r7, #0]
   d5892:	f898 0000 	ldrb.w	r0, [r8]
   d5896:	f001 fc75 	bl	d7184 <_ZN18Adafruit_NeoMatrix5ColorEhhh>
   d589a:	4601      	mov	r1, r0
   d589c:	48ae      	ldr	r0, [pc, #696]	; (d5b58 <_Z12mainFunctionv+0x318>)
   d589e:	f000 fee5 	bl	d666c <_ZN12Adafruit_GFX12setTextColorEt>
  sensors_event_t accelData, orientationData;
  bno.getEvent(&accelData, Adafruit_BNO055::VECTOR_ACCELEROMETER);
   d58a2:	2208      	movs	r2, #8
   d58a4:	a906      	add	r1, sp, #24
   d58a6:	48ad      	ldr	r0, [pc, #692]	; (d5b5c <_Z12mainFunctionv+0x31c>)
   d58a8:	f000 fcde 	bl	d6268 <_ZN15Adafruit_BNO0558getEventEP15sensors_event_tNS_22adafruit_vector_type_tE>
  bno.getEvent(&orientationData, Adafruit_BNO055::VECTOR_EULER);
   d58ac:	221a      	movs	r2, #26
   d58ae:	a90f      	add	r1, sp, #60	; 0x3c
   d58b0:	48aa      	ldr	r0, [pc, #680]	; (d5b5c <_Z12mainFunctionv+0x31c>)
   d58b2:	f000 fcd9 	bl	d6268 <_ZN15Adafruit_BNO0558getEventEP15sensors_event_tNS_22adafruit_vector_type_tE>
  x = accelData.acceleration.x;
   d58b6:	9b0b      	ldr	r3, [sp, #44]	; 0x2c
   d58b8:	6023      	str	r3, [r4, #0]
  y = accelData.acceleration.y;
   d58ba:	9b0c      	ldr	r3, [sp, #48]	; 0x30
   d58bc:	602b      	str	r3, [r5, #0]
  z = accelData.acceleration.z;
   d58be:	4ba8      	ldr	r3, [pc, #672]	; (d5b60 <_Z12mainFunctionv+0x320>)
   d58c0:	9a0d      	ldr	r2, [sp, #52]	; 0x34
   d58c2:	601a      	str	r2, [r3, #0]
  ori = orientationData.orientation.x;
   d58c4:	9a14      	ldr	r2, [sp, #80]	; 0x50
   d58c6:	f8ca 2000 	str.w	r2, [sl]
  ntpTime->nowMillis(&now);
   d58ca:	4aa6      	ldr	r2, [pc, #664]	; (d5b64 <_Z12mainFunctionv+0x324>)
  sensors_event_t accelData, orientationData;
  bno.getEvent(&accelData, Adafruit_BNO055::VECTOR_ACCELEROMETER);
  bno.getEvent(&orientationData, Adafruit_BNO055::VECTOR_EULER);
  x = accelData.acceleration.x;
  y = accelData.acceleration.y;
  z = accelData.acceleration.z;
   d58cc:	9301      	str	r3, [sp, #4]
  ori = orientationData.orientation.x;
  ntpTime->nowMillis(&now);
   d58ce:	4659      	mov	r1, fp
   d58d0:	6810      	ldr	r0, [r2, #0]
   d58d2:	f001 fef3 	bl	d76bc <_ZN7NtpTime9nowMillisEP11epochMillis>
  timeNow = hhmmss(now.seconds, currentTimeZone);
   d58d6:	4aa4      	ldr	r2, [pc, #656]	; (d5b68 <_Z12mainFunctionv+0x328>)
   d58d8:	f8db 1000 	ldr.w	r1, [fp]
   d58dc:	f8df b2c8 	ldr.w	fp, [pc, #712]	; d5ba8 <_Z12mainFunctionv+0x368>
   d58e0:	6812      	ldr	r2, [r2, #0]
   d58e2:	a802      	add	r0, sp, #8
   d58e4:	f7fe fd82 	bl	d43ec <_Z6hhmmssmi>
   d58e8:	a902      	add	r1, sp, #8
   d58ea:	4658      	mov	r0, fp
   d58ec:	f003 f912 	bl	d8b14 <_ZN6StringaSEOS_>
   d58f0:	a802      	add	r0, sp, #8
   d58f2:	f003 f87e 	bl	d89f2 <_ZN6StringD1Ev>
  if(z>9&&x<3.00&&y<3.00){ 
   d58f6:	9b01      	ldr	r3, [sp, #4]
   d58f8:	edd3 7a00 	vldr	s15, [r3]
   d58fc:	eeb2 7a02 	vmov.f32	s14, #34	; 0x41100000  9.0
   d5900:	eef4 7ac7 	vcmpe.f32	s15, s14
   d5904:	eef1 fa10 	vmrs	APSR_nzcv, fpscr
   d5908:	dd3d      	ble.n	d5986 <_Z12mainFunctionv+0x146>
   d590a:	ed94 6a00 	vldr	s12, [r4]
   d590e:	eef0 6a08 	vmov.f32	s13, #8	; 0x40400000  3.0
   d5912:	eeb4 6ae6 	vcmpe.f32	s12, s13
   d5916:	eef1 fa10 	vmrs	APSR_nzcv, fpscr
   d591a:	d534      	bpl.n	d5986 <_Z12mainFunctionv+0x146>
   d591c:	ed95 6a00 	vldr	s12, [r5]
   d5920:	eeb4 6ae6 	vcmpe.f32	s12, s13
   d5924:	eef1 fa10 	vmrs	APSR_nzcv, fpscr
   d5928:	d52d      	bpl.n	d5986 <_Z12mainFunctionv+0x146>
    matrix_1.clear();
   d592a:	4889      	ldr	r0, [pc, #548]	; (d5b50 <_Z12mainFunctionv+0x310>)
    matrix_1.show();
    if(millis() > waitMillis) {
   d592c:	4d8f      	ldr	r5, [pc, #572]	; (d5b6c <_Z12mainFunctionv+0x32c>)
  z = accelData.acceleration.z;
  ori = orientationData.orientation.x;
  ntpTime->nowMillis(&now);
  timeNow = hhmmss(now.seconds, currentTimeZone);
  if(z>9&&x<3.00&&y<3.00){ 
    matrix_1.clear();
   d592e:	f001 feb5 	bl	d769c <_ZN17Adafruit_NeoPixel5clearEv>
    matrix_1.show();
   d5932:	4887      	ldr	r0, [pc, #540]	; (d5b50 <_Z12mainFunctionv+0x310>)
   d5934:	f001 fc98 	bl	d7268 <_ZN17Adafruit_NeoPixel4showEv>
#endif

#include "timer_hal.h"
#include "delay_hal.h"

inline system_tick_t millis(void) { return HAL_Timer_Get_Milli_Seconds(); }
   d5938:	f001 ff38 	bl	d77ac <HAL_Timer_Get_Milli_Seconds>
    if(millis() > waitMillis) {
   d593c:	682b      	ldr	r3, [r5, #0]
   d593e:	4283      	cmp	r3, r0
   d5940:	d283      	bcs.n	d584a <_Z12mainFunctionv+0xa>
      matrix.fillScreen(0);
      matrix.setCursor(x1, 0);
   d5942:	4c8b      	ldr	r4, [pc, #556]	; (d5b70 <_Z12mainFunctionv+0x330>)
  timeNow = hhmmss(now.seconds, currentTimeZone);
  if(z>9&&x<3.00&&y<3.00){ 
    matrix_1.clear();
    matrix_1.show();
    if(millis() > waitMillis) {
      matrix.fillScreen(0);
   d5944:	4883      	ldr	r0, [pc, #524]	; (d5b54 <_Z12mainFunctionv+0x314>)
   d5946:	2100      	movs	r1, #0
   d5948:	f001 fb10 	bl	d6f6c <_ZN18Adafruit_NeoMatrix10fillScreenEt>
      matrix.setCursor(x1, 0);
   d594c:	2200      	movs	r2, #0
   d594e:	f9b4 1000 	ldrsh.w	r1, [r4]
   d5952:	4880      	ldr	r0, [pc, #512]	; (d5b54 <_Z12mainFunctionv+0x314>)
   d5954:	f000 fe87 	bl	d6666 <_ZN12Adafruit_GFX9setCursorEss>
      matrix.print(timeNow);
   d5958:	f8db 1000 	ldr.w	r1, [fp]
   d595c:	487d      	ldr	r0, [pc, #500]	; (d5b54 <_Z12mainFunctionv+0x314>)
   d595e:	f002 ff33 	bl	d87c8 <_ZN5Print5printEPKc>
      if(--x1 < -36) {
   d5962:	6823      	ldr	r3, [r4, #0]
   d5964:	3b01      	subs	r3, #1
   d5966:	6023      	str	r3, [r4, #0]
   d5968:	3324      	adds	r3, #36	; 0x24
   d596a:	da03      	bge.n	d5974 <_Z12mainFunctionv+0x134>
        x1 = matrix.width();
   d596c:	4879      	ldr	r0, [pc, #484]	; (d5b54 <_Z12mainFunctionv+0x314>)
   d596e:	f000 fe82 	bl	d6676 <_ZN12Adafruit_GFX5widthEv>
   d5972:	6020      	str	r0, [r4, #0]
      }
      matrix.show();
   d5974:	4875      	ldr	r0, [pc, #468]	; (d5b4c <_Z12mainFunctionv+0x30c>)
   d5976:	f001 fc77 	bl	d7268 <_ZN17Adafruit_NeoPixel4showEv>
   d597a:	f001 ff17 	bl	d77ac <HAL_Timer_Get_Milli_Seconds>
      waitMillis = millis() + (300);
   d597e:	f500 7096 	add.w	r0, r0, #300	; 0x12c
   d5982:	6028      	str	r0, [r5, #0]
   d5984:	e761      	b.n	d584a <_Z12mainFunctionv+0xa>
    }
  } else if(z<-9&&y<3.00&&x<3.00){
   d5986:	eefa 6a02 	vmov.f32	s13, #162	; 0xc1100000 -9.0
   d598a:	eef4 7ae6 	vcmpe.f32	s15, s13
   d598e:	eef1 fa10 	vmrs	APSR_nzcv, fpscr
   d5992:	d518      	bpl.n	d59c6 <_Z12mainFunctionv+0x186>
   d5994:	edd5 5a00 	vldr	s11, [r5]
   d5998:	eeb0 6a08 	vmov.f32	s12, #8	; 0x40400000  3.0
   d599c:	eef4 5ac6 	vcmpe.f32	s11, s12
   d59a0:	eef1 fa10 	vmrs	APSR_nzcv, fpscr
   d59a4:	d50f      	bpl.n	d59c6 <_Z12mainFunctionv+0x186>
   d59a6:	edd4 5a00 	vldr	s11, [r4]
   d59aa:	eef4 5ac6 	vcmpe.f32	s11, s12
   d59ae:	eef1 fa10 	vmrs	APSR_nzcv, fpscr
   d59b2:	d508      	bpl.n	d59c6 <_Z12mainFunctionv+0x186>
    matrix.clear();
   d59b4:	4865      	ldr	r0, [pc, #404]	; (d5b4c <_Z12mainFunctionv+0x30c>)
   d59b6:	f001 fe71 	bl	d769c <_ZN17Adafruit_NeoPixel5clearEv>
    matrix.show();
   d59ba:	4864      	ldr	r0, [pc, #400]	; (d5b4c <_Z12mainFunctionv+0x30c>)
   d59bc:	f001 fc54 	bl	d7268 <_ZN17Adafruit_NeoPixel4showEv>
    timer();
   d59c0:	f7ff fe46 	bl	d5650 <_Z5timerv>
   d59c4:	e741      	b.n	d584a <_Z12mainFunctionv+0xa>
  } else if(y>9&&x<3.00&&z<3.00){
   d59c6:	ed95 6a00 	vldr	s12, [r5]
   d59ca:	eeb4 6ac7 	vcmpe.f32	s12, s14
   d59ce:	eef1 fa10 	vmrs	APSR_nzcv, fpscr
   d59d2:	dd16      	ble.n	d5a02 <_Z12mainFunctionv+0x1c2>
   d59d4:	ed94 5a00 	vldr	s10, [r4]
   d59d8:	eef0 5a08 	vmov.f32	s11, #8	; 0x40400000  3.0
   d59dc:	eeb4 5ae5 	vcmpe.f32	s10, s11
   d59e0:	eef1 fa10 	vmrs	APSR_nzcv, fpscr
   d59e4:	d50d      	bpl.n	d5a02 <_Z12mainFunctionv+0x1c2>
   d59e6:	eef4 7ae5 	vcmpe.f32	s15, s11
   d59ea:	eef1 fa10 	vmrs	APSR_nzcv, fpscr
   d59ee:	d561      	bpl.n	d5ab4 <_Z12mainFunctionv+0x274>
    matrix_1.clear();
   d59f0:	4857      	ldr	r0, [pc, #348]	; (d5b50 <_Z12mainFunctionv+0x310>)
   d59f2:	f001 fe53 	bl	d769c <_ZN17Adafruit_NeoPixel5clearEv>
    matrix_1.show();
   d59f6:	4856      	ldr	r0, [pc, #344]	; (d5b50 <_Z12mainFunctionv+0x310>)
   d59f8:	f001 fc36 	bl	d7268 <_ZN17Adafruit_NeoPixel4showEv>
    stopwatch();
   d59fc:	f7fe fe64 	bl	d46c8 <_Z9stopwatchv>
   d5a00:	e723      	b.n	d584a <_Z12mainFunctionv+0xa>
  } else if(y<-9&&x<3.00&&z<3.00){
   d5a02:	eeb4 6ae6 	vcmpe.f32	s12, s13
   d5a06:	eef1 fa10 	vmrs	APSR_nzcv, fpscr
   d5a0a:	d558      	bpl.n	d5abe <_Z12mainFunctionv+0x27e>
   d5a0c:	edd4 5a00 	vldr	s11, [r4]
   d5a10:	eef0 6a08 	vmov.f32	s13, #8	; 0x40400000  3.0
   d5a14:	eef4 5ae6 	vcmpe.f32	s11, s13
   d5a18:	eef1 fa10 	vmrs	APSR_nzcv, fpscr
   d5a1c:	d54f      	bpl.n	d5abe <_Z12mainFunctionv+0x27e>
   d5a1e:	eef0 6a08 	vmov.f32	s13, #8	; 0x40400000  3.0
   d5a22:	eef4 7ae6 	vcmpe.f32	s15, s13
   d5a26:	eef1 fa10 	vmrs	APSR_nzcv, fpscr
   d5a2a:	d548      	bpl.n	d5abe <_Z12mainFunctionv+0x27e>
    matrix.clear();
   d5a2c:	4847      	ldr	r0, [pc, #284]	; (d5b4c <_Z12mainFunctionv+0x30c>)
   d5a2e:	f001 fe35 	bl	d769c <_ZN17Adafruit_NeoPixel5clearEv>
    matrix.show();
   d5a32:	4846      	ldr	r0, [pc, #280]	; (d5b4c <_Z12mainFunctionv+0x30c>)
   d5a34:	f001 fc18 	bl	d7268 <_ZN17Adafruit_NeoPixel4showEv>
	unsigned char equals(const String &s) const;
	unsigned char equals(const char *cstr) const;
	unsigned char operator == (const String &rhs) const {return equals(rhs);}
	unsigned char operator == (const char *cstr) const {return equals(cstr);}
	unsigned char operator != (const String &rhs) const {return !equals(rhs);}
	unsigned char operator != (const char *cstr) const {return !equals(cstr);}
   d5a38:	494e      	ldr	r1, [pc, #312]	; (d5b74 <_Z12mainFunctionv+0x334>)
   d5a3a:	484f      	ldr	r0, [pc, #316]	; (d5b78 <_Z12mainFunctionv+0x338>)
   d5a3c:	f003 f8c5 	bl	d8bca <_ZNK6String6equalsEPKc>
    if (tempReceived!="")
   d5a40:	4605      	mov	r5, r0
   d5a42:	2800      	cmp	r0, #0
   d5a44:	f47f af01 	bne.w	d584a <_Z12mainFunctionv+0xa>
  {
    matrix_1.fillScreen(0);
    matrix_1.setCursor(x1, 0);
   d5a48:	4c49      	ldr	r4, [pc, #292]	; (d5b70 <_Z12mainFunctionv+0x330>)
  } else if(y<-9&&x<3.00&&z<3.00){
    matrix.clear();
    matrix.show();
    if (tempReceived!="")
  {
    matrix_1.fillScreen(0);
   d5a4a:	4601      	mov	r1, r0
   d5a4c:	4842      	ldr	r0, [pc, #264]	; (d5b58 <_Z12mainFunctionv+0x318>)
   d5a4e:	f001 fa8d 	bl	d6f6c <_ZN18Adafruit_NeoMatrix10fillScreenEt>
    matrix_1.setCursor(x1, 0);
   d5a52:	462a      	mov	r2, r5
   d5a54:	f9b4 1000 	ldrsh.w	r1, [r4]
   d5a58:	483f      	ldr	r0, [pc, #252]	; (d5b58 <_Z12mainFunctionv+0x318>)
   d5a5a:	f000 fe04 	bl	d6666 <_ZN12Adafruit_GFX9setCursorEss>
};

class StringSumHelper : public String
{
public:
	StringSumHelper(const String &s) : String(s) {}
   d5a5e:	4946      	ldr	r1, [pc, #280]	; (d5b78 <_Z12mainFunctionv+0x338>)
   d5a60:	a802      	add	r0, sp, #8
   d5a62:	f003 f84c 	bl	d8afe <_ZN6StringC1ERKS_>
    matrix_1.print(tempReceived + "F " + currentStatus + " Rain: " + precipProb + "%");
   d5a66:	4945      	ldr	r1, [pc, #276]	; (d5b7c <_Z12mainFunctionv+0x33c>)
   d5a68:	a802      	add	r0, sp, #8
   d5a6a:	f003 f89c 	bl	d8ba6 <_ZplRK15StringSumHelperPKc>
   d5a6e:	4944      	ldr	r1, [pc, #272]	; (d5b80 <_Z12mainFunctionv+0x340>)
   d5a70:	f003 f88d 	bl	d8b8e <_ZplRK15StringSumHelperRK6String>
   d5a74:	4943      	ldr	r1, [pc, #268]	; (d5b84 <_Z12mainFunctionv+0x344>)
   d5a76:	f003 f896 	bl	d8ba6 <_ZplRK15StringSumHelperPKc>
   d5a7a:	4943      	ldr	r1, [pc, #268]	; (d5b88 <_Z12mainFunctionv+0x348>)
   d5a7c:	f003 f887 	bl	d8b8e <_ZplRK15StringSumHelperRK6String>
   d5a80:	4942      	ldr	r1, [pc, #264]	; (d5b8c <_Z12mainFunctionv+0x34c>)
   d5a82:	f003 f890 	bl	d8ba6 <_ZplRK15StringSumHelperPKc>
   d5a86:	6801      	ldr	r1, [r0, #0]
   d5a88:	4833      	ldr	r0, [pc, #204]	; (d5b58 <_Z12mainFunctionv+0x318>)
   d5a8a:	f002 fe9d 	bl	d87c8 <_ZN5Print5printEPKc>

        friend class StringPrintableHelper;

};

class StringSumHelper : public String
   d5a8e:	a802      	add	r0, sp, #8
   d5a90:	f002 ffaf 	bl	d89f2 <_ZN6StringD1Ev>
    if(--x1 < -200) {
   d5a94:	6823      	ldr	r3, [r4, #0]
   d5a96:	3b01      	subs	r3, #1
   d5a98:	6023      	str	r3, [r4, #0]
   d5a9a:	33c8      	adds	r3, #200	; 0xc8
   d5a9c:	da03      	bge.n	d5aa6 <_Z12mainFunctionv+0x266>
    x1 = matrix_1.width();
   d5a9e:	482e      	ldr	r0, [pc, #184]	; (d5b58 <_Z12mainFunctionv+0x318>)
   d5aa0:	f000 fde9 	bl	d6676 <_ZN12Adafruit_GFX5widthEv>
   d5aa4:	6020      	str	r0, [r4, #0]
    }
    matrix_1.show();
   d5aa6:	482a      	ldr	r0, [pc, #168]	; (d5b50 <_Z12mainFunctionv+0x310>)
   d5aa8:	f001 fbde 	bl	d7268 <_ZN17Adafruit_NeoPixel4showEv>
    delay(100);
   d5aac:	2064      	movs	r0, #100	; 0x64
   d5aae:	f002 f959 	bl	d7d64 <delay>
   d5ab2:	e6ca      	b.n	d584a <_Z12mainFunctionv+0xa>
    timer();
  } else if(y>9&&x<3.00&&z<3.00){
    matrix_1.clear();
    matrix_1.show();
    stopwatch();
  } else if(y<-9&&x<3.00&&z<3.00){
   d5ab4:	eeb4 6ae6 	vcmpe.f32	s12, s13
   d5ab8:	eef1 fa10 	vmrs	APSR_nzcv, fpscr
   d5abc:	d4af      	bmi.n	d5a1e <_Z12mainFunctionv+0x1de>
    x1 = matrix_1.width();
    }
    matrix_1.show();
    delay(100);
  }
  } else if(x>9&&z<3.00&&y<3.00){
   d5abe:	edd4 6a00 	vldr	s13, [r4]
   d5ac2:	eef4 6ac7 	vcmpe.f32	s13, s14
   d5ac6:	eef1 fa10 	vmrs	APSR_nzcv, fpscr
   d5aca:	f77f aebe 	ble.w	d584a <_Z12mainFunctionv+0xa>
   d5ace:	eeb0 7a08 	vmov.f32	s14, #8	; 0x40400000  3.0
   d5ad2:	eef4 7ac7 	vcmpe.f32	s15, s14
   d5ad6:	eef1 fa10 	vmrs	APSR_nzcv, fpscr
   d5ada:	f57f aeb6 	bpl.w	d584a <_Z12mainFunctionv+0xa>
   d5ade:	eeb4 6ac7 	vcmpe.f32	s12, s14
   d5ae2:	eef1 fa10 	vmrs	APSR_nzcv, fpscr
   d5ae6:	f57f aeb0 	bpl.w	d584a <_Z12mainFunctionv+0xa>
    if (ori>0&&ori<90){
   d5aea:	edda 7a00 	vldr	s15, [sl]
   d5aee:	ed9f 7a28 	vldr	s14, [pc, #160]	; d5b90 <_Z12mainFunctionv+0x350>
   d5af2:	eef5 7ac0 	vcmpe.f32	s15, #0.0
   d5af6:	eef1 fa10 	vmrs	APSR_nzcv, fpscr
   d5afa:	dd59      	ble.n	d5bb0 <_Z12mainFunctionv+0x370>
   d5afc:	eef4 7ac7 	vcmpe.f32	s15, s14
   d5b00:	eef1 fa10 	vmrs	APSR_nzcv, fpscr
   d5b04:	d554      	bpl.n	d5bb0 <_Z12mainFunctionv+0x370>
      matrix_1.clear();
   d5b06:	4812      	ldr	r0, [pc, #72]	; (d5b50 <_Z12mainFunctionv+0x310>)
   d5b08:	f001 fdc8 	bl	d769c <_ZN17Adafruit_NeoPixel5clearEv>
      matrix_1.show();
   d5b0c:	4810      	ldr	r0, [pc, #64]	; (d5b50 <_Z12mainFunctionv+0x310>)
   d5b0e:	f001 fbab 	bl	d7268 <_ZN17Adafruit_NeoPixel4showEv>
      matrix.fillScreen(matrix.Color(200,200,200));
   d5b12:	22c8      	movs	r2, #200	; 0xc8
   d5b14:	4611      	mov	r1, r2
   d5b16:	4610      	mov	r0, r2
   d5b18:	f001 fb34 	bl	d7184 <_ZN18Adafruit_NeoMatrix5ColorEhhh>
   d5b1c:	4601      	mov	r1, r0
   d5b1e:	480d      	ldr	r0, [pc, #52]	; (d5b54 <_Z12mainFunctionv+0x314>)
   d5b20:	f001 fa24 	bl	d6f6c <_ZN18Adafruit_NeoMatrix10fillScreenEt>
      matrix.show();
   d5b24:	4809      	ldr	r0, [pc, #36]	; (d5b4c <_Z12mainFunctionv+0x30c>)
   d5b26:	f001 fb9f 	bl	d7268 <_ZN17Adafruit_NeoPixel4showEv>
      Serial.println("light");
   d5b2a:	f003 fcf5 	bl	d9518 <_Z16_fetch_usbserialv>
   d5b2e:	4919      	ldr	r1, [pc, #100]	; (d5b94 <_Z12mainFunctionv+0x354>)
   d5b30:	f002 fe61 	bl	d87f6 <_ZN5Print7printlnEPKc>
   d5b34:	e689      	b.n	d584a <_Z12mainFunctionv+0xa>
   d5b36:	bf00      	nop
   d5b38:	2003e334 	.word	0x2003e334
   d5b3c:	2003db7c 	.word	0x2003db7c
   d5b40:	2003db6c 	.word	0x2003db6c
   d5b44:	2003dc6c 	.word	0x2003dc6c
   d5b48:	2003dc70 	.word	0x2003dc70
   d5b4c:	2003dcb4 	.word	0x2003dcb4
   d5b50:	2003dd00 	.word	0x2003dd00
   d5b54:	2003dc98 	.word	0x2003dc98
   d5b58:	2003dce4 	.word	0x2003dce4
   d5b5c:	2003dd48 	.word	0x2003dd48
   d5b60:	2003dd30 	.word	0x2003dd30
   d5b64:	2003dd2c 	.word	0x2003dd2c
   d5b68:	2003db80 	.word	0x2003db80
   d5b6c:	2003dc94 	.word	0x2003dc94
   d5b70:	2003dcdc 	.word	0x2003dcdc
   d5b74:	000dbc20 	.word	0x000dbc20
   d5b78:	2003e354 	.word	0x2003e354
   d5b7c:	000db102 	.word	0x000db102
   d5b80:	2003ddac 	.word	0x2003ddac
   d5b84:	000db105 	.word	0x000db105
   d5b88:	2003dd60 	.word	0x2003dd60
   d5b8c:	000db10d 	.word	0x000db10d
   d5b90:	42b40000 	.word	0x42b40000
   d5b94:	000db11b 	.word	0x000db11b
   d5b98:	2003db74 	.word	0x2003db74
   d5b9c:	2003db70 	.word	0x2003db70
   d5ba0:	2003dc44 	.word	0x2003dc44
   d5ba4:	2003dc78 	.word	0x2003dc78
   d5ba8:	2003dc5c 	.word	0x2003dc5c
   d5bac:	43340000 	.word	0x43340000
    } else if (ori>90&&ori<180){
   d5bb0:	eef4 7ac7 	vcmpe.f32	s15, s14
   d5bb4:	eef1 fa10 	vmrs	APSR_nzcv, fpscr
   d5bb8:	ed1f 7a04 	vldr	s14, [pc, #-16]	; d5bac <_Z12mainFunctionv+0x36c>
   d5bbc:	dd2f      	ble.n	d5c1e <_Z12mainFunctionv+0x3de>
   d5bbe:	eef4 7ac7 	vcmpe.f32	s15, s14
   d5bc2:	eef1 fa10 	vmrs	APSR_nzcv, fpscr
   d5bc6:	d52a      	bpl.n	d5c1e <_Z12mainFunctionv+0x3de>
      matrix_1.clear();
   d5bc8:	4836      	ldr	r0, [pc, #216]	; (d5ca4 <_Z12mainFunctionv+0x464>)
   d5bca:	f001 fd67 	bl	d769c <_ZN17Adafruit_NeoPixel5clearEv>
      matrix_1.show();
   d5bce:	4835      	ldr	r0, [pc, #212]	; (d5ca4 <_Z12mainFunctionv+0x464>)
   d5bd0:	f001 fb4a 	bl	d7268 <_ZN17Adafruit_NeoPixel4showEv>
      matrix.fillScreen(matrix.Color(255,255,255));
   d5bd4:	22ff      	movs	r2, #255	; 0xff
   d5bd6:	4611      	mov	r1, r2
   d5bd8:	4610      	mov	r0, r2
   d5bda:	f001 fad3 	bl	d7184 <_ZN18Adafruit_NeoMatrix5ColorEhhh>
   d5bde:	4601      	mov	r1, r0
   d5be0:	4831      	ldr	r0, [pc, #196]	; (d5ca8 <_Z12mainFunctionv+0x468>)
   d5be2:	f001 f9c3 	bl	d6f6c <_ZN18Adafruit_NeoMatrix10fillScreenEt>
      matrix.setBrightness(100);
   d5be6:	2164      	movs	r1, #100	; 0x64
   d5be8:	4830      	ldr	r0, [pc, #192]	; (d5cac <_Z12mainFunctionv+0x46c>)
   d5bea:	f001 fd31 	bl	d7650 <_ZN17Adafruit_NeoPixel13setBrightnessEh>
      matrix.show();
   d5bee:	482f      	ldr	r0, [pc, #188]	; (d5cac <_Z12mainFunctionv+0x46c>)
   d5bf0:	f001 fb3a 	bl	d7268 <_ZN17Adafruit_NeoPixel4showEv>
      delay(500);
   d5bf4:	f44f 70fa 	mov.w	r0, #500	; 0x1f4
   d5bf8:	f002 f8b4 	bl	d7d64 <delay>
      matrix.setBrightness(0);
   d5bfc:	2100      	movs	r1, #0
   d5bfe:	482b      	ldr	r0, [pc, #172]	; (d5cac <_Z12mainFunctionv+0x46c>)
   d5c00:	f001 fd26 	bl	d7650 <_ZN17Adafruit_NeoPixel13setBrightnessEh>
      matrix.show();
   d5c04:	4829      	ldr	r0, [pc, #164]	; (d5cac <_Z12mainFunctionv+0x46c>)
   d5c06:	f001 fb2f 	bl	d7268 <_ZN17Adafruit_NeoPixel4showEv>
      delay(500);
   d5c0a:	f44f 70fa 	mov.w	r0, #500	; 0x1f4
   d5c0e:	f002 f8a9 	bl	d7d64 <delay>
      Serial.println("flash");
   d5c12:	f003 fc81 	bl	d9518 <_Z16_fetch_usbserialv>
   d5c16:	4926      	ldr	r1, [pc, #152]	; (d5cb0 <_Z12mainFunctionv+0x470>)
   d5c18:	f002 fded 	bl	d87f6 <_ZN5Print7printlnEPKc>
   d5c1c:	e615      	b.n	d584a <_Z12mainFunctionv+0xa>
    } else if (ori>180&&ori<270){
   d5c1e:	eef4 7ac7 	vcmpe.f32	s15, s14
   d5c22:	eef1 fa10 	vmrs	APSR_nzcv, fpscr
   d5c26:	ed9f 7a23 	vldr	s14, [pc, #140]	; d5cb4 <_Z12mainFunctionv+0x474>
   d5c2a:	dd22      	ble.n	d5c72 <_Z12mainFunctionv+0x432>
   d5c2c:	eef4 7ac7 	vcmpe.f32	s15, s14
   d5c30:	eef1 fa10 	vmrs	APSR_nzcv, fpscr
   d5c34:	d51d      	bpl.n	d5c72 <_Z12mainFunctionv+0x432>
      matrix.clear();
   d5c36:	481d      	ldr	r0, [pc, #116]	; (d5cac <_Z12mainFunctionv+0x46c>)
   d5c38:	f001 fd30 	bl	d769c <_ZN17Adafruit_NeoPixel5clearEv>
      matrix.show();
   d5c3c:	481b      	ldr	r0, [pc, #108]	; (d5cac <_Z12mainFunctionv+0x46c>)
   d5c3e:	f001 fb13 	bl	d7268 <_ZN17Adafruit_NeoPixel4showEv>
      matrix_1.fillScreen(matrix.Color(r,g,b));
   d5c42:	7832      	ldrb	r2, [r6, #0]
   d5c44:	7839      	ldrb	r1, [r7, #0]
   d5c46:	f898 0000 	ldrb.w	r0, [r8]
   d5c4a:	f001 fa9b 	bl	d7184 <_ZN18Adafruit_NeoMatrix5ColorEhhh>
   d5c4e:	4601      	mov	r1, r0
   d5c50:	4819      	ldr	r0, [pc, #100]	; (d5cb8 <_Z12mainFunctionv+0x478>)
   d5c52:	f001 f98b 	bl	d6f6c <_ZN18Adafruit_NeoMatrix10fillScreenEt>
      matrix_1.setBrightness(brightness);
   d5c56:	4b19      	ldr	r3, [pc, #100]	; (d5cbc <_Z12mainFunctionv+0x47c>)
   d5c58:	4812      	ldr	r0, [pc, #72]	; (d5ca4 <_Z12mainFunctionv+0x464>)
   d5c5a:	7819      	ldrb	r1, [r3, #0]
   d5c5c:	f001 fcf8 	bl	d7650 <_ZN17Adafruit_NeoPixel13setBrightnessEh>
      matrix_1.show();
   d5c60:	4810      	ldr	r0, [pc, #64]	; (d5ca4 <_Z12mainFunctionv+0x464>)
   d5c62:	f001 fb01 	bl	d7268 <_ZN17Adafruit_NeoPixel4showEv>
      Serial.println("customlight");
   d5c66:	f003 fc57 	bl	d9518 <_Z16_fetch_usbserialv>
   d5c6a:	4915      	ldr	r1, [pc, #84]	; (d5cc0 <_Z12mainFunctionv+0x480>)
   d5c6c:	f002 fdc3 	bl	d87f6 <_ZN5Print7printlnEPKc>
   d5c70:	e5eb      	b.n	d584a <_Z12mainFunctionv+0xa>
    } else if (ori>270&&ori<360){
   d5c72:	eef4 7ac7 	vcmpe.f32	s15, s14
   d5c76:	eef1 fa10 	vmrs	APSR_nzcv, fpscr
   d5c7a:	f77f ade6 	ble.w	d584a <_Z12mainFunctionv+0xa>
   d5c7e:	ed9f 7a11 	vldr	s14, [pc, #68]	; d5cc4 <_Z12mainFunctionv+0x484>
   d5c82:	eef4 7ac7 	vcmpe.f32	s15, s14
   d5c86:	eef1 fa10 	vmrs	APSR_nzcv, fpscr
   d5c8a:	f57f adde 	bpl.w	d584a <_Z12mainFunctionv+0xa>
      matrix.clear();
   d5c8e:	4807      	ldr	r0, [pc, #28]	; (d5cac <_Z12mainFunctionv+0x46c>)
   d5c90:	f001 fd04 	bl	d769c <_ZN17Adafruit_NeoPixel5clearEv>
      matrix.show();
   d5c94:	4805      	ldr	r0, [pc, #20]	; (d5cac <_Z12mainFunctionv+0x46c>)
   d5c96:	f001 fae7 	bl	d7268 <_ZN17Adafruit_NeoPixel4showEv>
      rainbow(20);
   d5c9a:	2014      	movs	r0, #20
   d5c9c:	f7fe fc24 	bl	d44e8 <_Z7rainbowh>
  }
}

void mainFunction()
{
  while(1){
   d5ca0:	e5d3      	b.n	d584a <_Z12mainFunctionv+0xa>
   d5ca2:	bf00      	nop
   d5ca4:	2003dd00 	.word	0x2003dd00
   d5ca8:	2003dc98 	.word	0x2003dc98
   d5cac:	2003dcb4 	.word	0x2003dcb4
   d5cb0:	000db10f 	.word	0x000db10f
   d5cb4:	43870000 	.word	0x43870000
   d5cb8:	2003dce4 	.word	0x2003dce4
   d5cbc:	2003db74 	.word	0x2003db74
   d5cc0:	000db115 	.word	0x000db115
   d5cc4:	43b40000 	.word	0x43b40000

000d5cc8 <_ZN15Adafruit_BNO055D0Ev>:
   d5cc8:	b510      	push	{r4, lr}
   d5cca:	2114      	movs	r1, #20
   d5ccc:	4604      	mov	r4, r0
   d5cce:	f003 fdd6 	bl	d987e <_ZdlPvj>
   d5cd2:	4620      	mov	r0, r4
   d5cd4:	bd10      	pop	{r4, pc}

000d5cd6 <_ZN18Adafruit_NeoMatrixD0Ev>:
   d5cd6:	b510      	push	{r4, lr}
   d5cd8:	4604      	mov	r4, r0
   d5cda:	f7fe fa3d 	bl	d4158 <_ZN18Adafruit_NeoMatrixD1Ev>
   d5cde:	4620      	mov	r0, r4
   d5ce0:	2144      	movs	r1, #68	; 0x44
   d5ce2:	f003 fdcc 	bl	d987e <_ZdlPvj>
   d5ce6:	4620      	mov	r0, r4
   d5ce8:	bd10      	pop	{r4, pc}
	...

000d5cec <_GLOBAL__sub_I_Blynk>:
} // namespace particle

// particle::Flag<TagT, ValueT>
template<typename TagT, typename ValueT>
inline particle::Flag<TagT, ValueT>::Flag(ValueT val) :
        val_(val) {
   d5cec:	4b70      	ldr	r3, [pc, #448]	; (d5eb0 <_GLOBAL__sub_I_Blynk+0x1c4>)
}
}

void loop(){
  delay(CONCURRENT_WAIT_FOREVER);
   d5cee:	e92d 43f7 	stmdb	sp!, {r0, r1, r2, r4, r5, r6, r7, r8, r9, lr}
   d5cf2:	2500      	movs	r5, #0

class BlynkTransportParticle
{
public:
    BlynkTransportParticle()
        : domain(NULL), port(0)
   d5cf4:	4e6f      	ldr	r6, [pc, #444]	; (d5eb4 <_GLOBAL__sub_I_Blynk+0x1c8>)
   d5cf6:	701d      	strb	r5, [r3, #0]
   d5cf8:	4b6f      	ldr	r3, [pc, #444]	; (d5eb8 <_GLOBAL__sub_I_Blynk+0x1cc>)
#ifndef BlynkSimpleParticle_h
#define BlynkSimpleParticle_h

#include "BlynkParticle.h"

static BlynkTransportParticle _blynkTransport;
   d5cfa:	4c70      	ldr	r4, [pc, #448]	; (d5ebc <_GLOBAL__sub_I_Blynk+0x1d0>)
String global_lat = ""; //variables for location data
String global_lon = "";
String global_ip = ""; //through here
SparkCorePolledTimer updateTimer(timerTime);
Adafruit_BNO055 bno = Adafruit_BNO055(55);
Adafruit_NeoMatrix matrix = Adafruit_NeoMatrix(16, 8, PIXEL_PIN,
   d5cfc:	f8df 8228 	ldr.w	r8, [pc, #552]	; d5f28 <_GLOBAL__sub_I_Blynk+0x23c>
   d5d00:	2701      	movs	r7, #1
   d5d02:	701f      	strb	r7, [r3, #0]

inline void pinSetFast(pin_t _pin) __attribute__((always_inline));
inline void pinResetFast(pin_t _pin) __attribute__((always_inline));
inline int32_t pinReadFast(pin_t _pin) __attribute__((always_inline));

static NRF5x_Pin_Info* PIN_MAP = HAL_Pin_Map();
   d5d04:	f001 fd6a 	bl	d77dc <HAL_Pin_Map>
   d5d08:	4630      	mov	r0, r6
   d5d0a:	f003 fa6b 	bl	d91e4 <_ZN9TCPClientC1Ev>
   d5d0e:	f106 001c 	add.w	r0, r6, #28
   d5d12:	f002 fbbf 	bl	d8494 <_ZN9IPAddressC1Ev>
   d5d16:	4622      	mov	r2, r4
   d5d18:	4969      	ldr	r1, [pc, #420]	; (d5ec0 <_GLOBAL__sub_I_Blynk+0x1d4>)
   d5d1a:	6375      	str	r5, [r6, #52]	; 0x34
   d5d1c:	4630      	mov	r0, r6
   d5d1e:	8735      	strh	r5, [r6, #56]	; 0x38
   d5d20:	f003 fda8 	bl	d9874 <__aeabi_atexit>
        , lastActivityOut(0)
        , lastHeartbeat(0)
        , msgIdOut(0)
        , msgIdOutOverride(0)
        , nesting(0)
        , state(CONNECTING)
   d5d24:	4b67      	ldr	r3, [pc, #412]	; (d5ec4 <_GLOBAL__sub_I_Blynk+0x1d8>)
#include <JsonParserGeneratorRK.h>
#define PIXEL_PIN A3             // Set up for Neopixel RGB board side 1 Analog Pin
#define PIXEL_PIN_1 A4           // Set up for Neopixel RGB board side 2 Analog Pin
#define PIXEL_COUNT 128          // Neopixel RGB board total pixel count
#define PIXEL_TYPE WS2812B       // Neopixel RGB board total pixel type
SYSTEM_THREAD(ENABLED);
   d5d26:	4629      	mov	r1, r5
   d5d28:	601e      	str	r6, [r3, #0]
   d5d2a:	605d      	str	r5, [r3, #4]
   d5d2c:	609d      	str	r5, [r3, #8]
   d5d2e:	60dd      	str	r5, [r3, #12]
   d5d30:	611d      	str	r5, [r3, #16]
   d5d32:	615d      	str	r5, [r3, #20]
   d5d34:	831d      	strh	r5, [r3, #24]
   d5d36:	835d      	strh	r5, [r3, #26]
   d5d38:	771d      	strb	r5, [r3, #28]
   d5d3a:	775d      	strb	r5, [r3, #29]
   d5d3c:	4638      	mov	r0, r7
   d5d3e:	f001 ff05 	bl	d7b4c <system_thread_set_state>
Thread main;
   d5d42:	4e61      	ldr	r6, [pc, #388]	; (d5ec8 <_GLOBAL__sub_I_Blynk+0x1dc>)

  template<std::size_t _Idx, typename _Head>
    struct _Head_base<_Idx, _Head, false>
    {
      constexpr _Head_base()
      : _M_head_impl() { }
   d5d44:	4861      	ldr	r0, [pc, #388]	; (d5ecc <_GLOBAL__sub_I_Blynk+0x1e0>)
Thread weather;
int currentTimeZone = 5;     
NtpTime* ntpTime;
float x,y,z,ori;
String timeNow;
   d5d46:	4f62      	ldr	r7, [pc, #392]	; (d5ed0 <_GLOBAL__sub_I_Blynk+0x1e4>)
   d5d48:	6005      	str	r5, [r0, #0]
#define PIXEL_PIN A3             // Set up for Neopixel RGB board side 1 Analog Pin
#define PIXEL_PIN_1 A4           // Set up for Neopixel RGB board side 2 Analog Pin
#define PIXEL_COUNT 128          // Neopixel RGB board total pixel count
#define PIXEL_TYPE WS2812B       // Neopixel RGB board total pixel type
SYSTEM_THREAD(ENABLED);
Thread main;
   d5d4a:	4622      	mov	r2, r4
   d5d4c:	4631      	mov	r1, r6
   d5d4e:	f003 fd91 	bl	d9874 <__aeabi_atexit>
   d5d52:	4860      	ldr	r0, [pc, #384]	; (d5ed4 <_GLOBAL__sub_I_Blynk+0x1e8>)
Thread weather;
   d5d54:	4631      	mov	r1, r6
int currentTimeZone = 5;     
NtpTime* ntpTime;
float x,y,z,ori;
String timeNow;
   d5d56:	4e60      	ldr	r6, [pc, #384]	; (d5ed8 <_GLOBAL__sub_I_Blynk+0x1ec>)
   d5d58:	6005      	str	r5, [r0, #0]
#define PIXEL_PIN_1 A4           // Set up for Neopixel RGB board side 2 Analog Pin
#define PIXEL_COUNT 128          // Neopixel RGB board total pixel count
#define PIXEL_TYPE WS2812B       // Neopixel RGB board total pixel type
SYSTEM_THREAD(ENABLED);
Thread main;
Thread weather;
   d5d5a:	4622      	mov	r2, r4
int currentTimeZone = 5;     
NtpTime* ntpTime;
float x,y,z,ori;
String timeNow;
   d5d5c:	4d5f      	ldr	r5, [pc, #380]	; (d5edc <_GLOBAL__sub_I_Blynk+0x1f0>)
#define PIXEL_PIN_1 A4           // Set up for Neopixel RGB board side 2 Analog Pin
#define PIXEL_COUNT 128          // Neopixel RGB board total pixel count
#define PIXEL_TYPE WS2812B       // Neopixel RGB board total pixel type
SYSTEM_THREAD(ENABLED);
Thread main;
Thread weather;
   d5d5e:	f003 fd89 	bl	d9874 <__aeabi_atexit>
int currentTimeZone = 5;     
NtpTime* ntpTime;
float x,y,z,ori;
String timeNow;
   d5d62:	4631      	mov	r1, r6
   d5d64:	4638      	mov	r0, r7
   d5d66:	f002 fe8b 	bl	d8a80 <_ZN6StringC1EPK19__FlashStringHelper>
   d5d6a:	4638      	mov	r0, r7
int r = 255;
int g =255;
int b = 255;
float secondsdisplay;
unsigned int nextTime = 30;    // Next time to contact the server
String tempReceived = "";
   d5d6c:	4f5c      	ldr	r7, [pc, #368]	; (d5ee0 <_GLOBAL__sub_I_Blynk+0x1f4>)
Thread main;
Thread weather;
int currentTimeZone = 5;     
NtpTime* ntpTime;
float x,y,z,ori;
String timeNow;
   d5d6e:	4622      	mov	r2, r4
   d5d70:	4629      	mov	r1, r5
   d5d72:	f003 fd7f 	bl	d9874 <__aeabi_atexit>
int r = 255;
int g =255;
int b = 255;
float secondsdisplay;
unsigned int nextTime = 30;    // Next time to contact the server
String tempReceived = "";
   d5d76:	4631      	mov	r1, r6
   d5d78:	4638      	mov	r0, r7
   d5d7a:	f002 fe81 	bl	d8a80 <_ZN6StringC1EPK19__FlashStringHelper>
   d5d7e:	4638      	mov	r0, r7
String currentStatus;
   d5d80:	4f58      	ldr	r7, [pc, #352]	; (d5ee4 <_GLOBAL__sub_I_Blynk+0x1f8>)
int r = 255;
int g =255;
int b = 255;
float secondsdisplay;
unsigned int nextTime = 30;    // Next time to contact the server
String tempReceived = "";
   d5d82:	4622      	mov	r2, r4
   d5d84:	4629      	mov	r1, r5
   d5d86:	f003 fd75 	bl	d9874 <__aeabi_atexit>
String currentStatus;
   d5d8a:	4631      	mov	r1, r6
   d5d8c:	4638      	mov	r0, r7
   d5d8e:	f002 fe77 	bl	d8a80 <_ZN6StringC1EPK19__FlashStringHelper>
   d5d92:	4638      	mov	r0, r7
String precipProb;
   d5d94:	4f54      	ldr	r7, [pc, #336]	; (d5ee8 <_GLOBAL__sub_I_Blynk+0x1fc>)
int g =255;
int b = 255;
float secondsdisplay;
unsigned int nextTime = 30;    // Next time to contact the server
String tempReceived = "";
String currentStatus;
   d5d96:	4622      	mov	r2, r4
   d5d98:	4629      	mov	r1, r5
   d5d9a:	f003 fd6b 	bl	d9874 <__aeabi_atexit>
String precipProb;
   d5d9e:	4631      	mov	r1, r6
   d5da0:	4638      	mov	r0, r7
   d5da2:	f002 fe6d 	bl	d8a80 <_ZN6StringC1EPK19__FlashStringHelper>
   d5da6:	4622      	mov	r2, r4
   d5da8:	4629      	mov	r1, r5
   d5daa:	4638      	mov	r0, r7
class JsonParserStatic : public JsonParser {
public:
	/**
	 * @brief Construct a JsonParser using a static buffer and static maximum number of tokens.
	 */
	explicit JsonParserStatic() : JsonParser(staticBuffer, BUFFER_SIZE, staticTokens, MAX_TOKENS) {};
   d5dac:	4f4f      	ldr	r7, [pc, #316]	; (d5eec <_GLOBAL__sub_I_Blynk+0x200>)
   d5dae:	f003 fd61 	bl	d9874 <__aeabi_atexit>
   d5db2:	2332      	movs	r3, #50	; 0x32
   d5db4:	9300      	str	r3, [sp, #0]
   d5db6:	f107 012c 	add.w	r1, r7, #44	; 0x2c
   d5dba:	f507 730b 	add.w	r3, r7, #556	; 0x22c
   d5dbe:	f44f 7200 	mov.w	r2, #512	; 0x200
   d5dc2:	4638      	mov	r0, r7
   d5dc4:	f000 fcd2 	bl	d676c <_ZN10JsonParserC1EPcjPN21JsonParserGeneratorRK9jsmntok_tEj>
   d5dc8:	4b49      	ldr	r3, [pc, #292]	; (d5ef0 <_GLOBAL__sub_I_Blynk+0x204>)
   d5dca:	603b      	str	r3, [r7, #0]
JsonParserStatic<512, 50> jsonParser;
   d5dcc:	4638      	mov	r0, r7
String global_lat = ""; //variables for location data
   d5dce:	4f49      	ldr	r7, [pc, #292]	; (d5ef4 <_GLOBAL__sub_I_Blynk+0x208>)
float secondsdisplay;
unsigned int nextTime = 30;    // Next time to contact the server
String tempReceived = "";
String currentStatus;
String precipProb;
JsonParserStatic<512, 50> jsonParser;
   d5dd0:	4949      	ldr	r1, [pc, #292]	; (d5ef8 <_GLOBAL__sub_I_Blynk+0x20c>)
   d5dd2:	4622      	mov	r2, r4
   d5dd4:	f003 fd4e 	bl	d9874 <__aeabi_atexit>
String global_lat = ""; //variables for location data
   d5dd8:	4631      	mov	r1, r6
   d5dda:	4638      	mov	r0, r7
   d5ddc:	f002 fe50 	bl	d8a80 <_ZN6StringC1EPK19__FlashStringHelper>
   d5de0:	4638      	mov	r0, r7
String global_lon = "";
   d5de2:	4f46      	ldr	r7, [pc, #280]	; (d5efc <_GLOBAL__sub_I_Blynk+0x210>)
unsigned int nextTime = 30;    // Next time to contact the server
String tempReceived = "";
String currentStatus;
String precipProb;
JsonParserStatic<512, 50> jsonParser;
String global_lat = ""; //variables for location data
   d5de4:	4622      	mov	r2, r4
   d5de6:	4629      	mov	r1, r5
   d5de8:	f003 fd44 	bl	d9874 <__aeabi_atexit>
String global_lon = "";
   d5dec:	4631      	mov	r1, r6
   d5dee:	4638      	mov	r0, r7
   d5df0:	f002 fe46 	bl	d8a80 <_ZN6StringC1EPK19__FlashStringHelper>
   d5df4:	4638      	mov	r0, r7
String global_ip = ""; //through here
   d5df6:	4f42      	ldr	r7, [pc, #264]	; (d5f00 <_GLOBAL__sub_I_Blynk+0x214>)
String tempReceived = "";
String currentStatus;
String precipProb;
JsonParserStatic<512, 50> jsonParser;
String global_lat = ""; //variables for location data
String global_lon = "";
   d5df8:	4622      	mov	r2, r4
   d5dfa:	4629      	mov	r1, r5
   d5dfc:	f003 fd3a 	bl	d9874 <__aeabi_atexit>
String global_ip = ""; //through here
   d5e00:	4631      	mov	r1, r6
   d5e02:	4638      	mov	r0, r7
   d5e04:	f002 fe3c 	bl	d8a80 <_ZN6StringC1EPK19__FlashStringHelper>
   d5e08:	4622      	mov	r2, r4
   d5e0a:	4629      	mov	r1, r5
   d5e0c:	4638      	mov	r0, r7
   d5e0e:	f003 fd31 	bl	d9874 <__aeabi_atexit>
SparkCorePolledTimer updateTimer(timerTime);
   d5e12:	4b3c      	ldr	r3, [pc, #240]	; (d5f04 <_GLOBAL__sub_I_Blynk+0x218>)
   d5e14:	483c      	ldr	r0, [pc, #240]	; (d5f08 <_GLOBAL__sub_I_Blynk+0x21c>)
   d5e16:	6819      	ldr	r1, [r3, #0]
Adafruit_BNO055 bno = Adafruit_BNO055(55);
   d5e18:	4d3c      	ldr	r5, [pc, #240]	; (d5f0c <_GLOBAL__sub_I_Blynk+0x220>)
Adafruit_NeoMatrix matrix = Adafruit_NeoMatrix(16, 8, PIXEL_PIN,
   d5e1a:	4e3d      	ldr	r6, [pc, #244]	; (d5f10 <_GLOBAL__sub_I_Blynk+0x224>)
String precipProb;
JsonParserStatic<512, 50> jsonParser;
String global_lat = ""; //variables for location data
String global_lon = "";
String global_ip = ""; //through here
SparkCorePolledTimer updateTimer(timerTime);
   d5e1c:	f001 f83e 	bl	d6e9c <_ZN20SparkCorePolledTimerC1Em>
    VECTOR_LINEARACCEL = BNO055_LINEAR_ACCEL_DATA_X_LSB_ADDR,
    VECTOR_GRAVITY = BNO055_GRAVITY_DATA_X_LSB_ADDR
  } adafruit_vector_type_t;

  Adafruit_BNO055(int32_t sensorID = -1, uint8_t address = BNO055_ADDRESS_A,
                  TwoWire *theWire = &Wire);
   d5e20:	f003 fce6 	bl	d97f0 <_Z19__fetch_global_Wirev>
Adafruit_BNO055 bno = Adafruit_BNO055(55);
   d5e24:	2228      	movs	r2, #40	; 0x28
   d5e26:	4603      	mov	r3, r0
   d5e28:	2137      	movs	r1, #55	; 0x37
   d5e2a:	4628      	mov	r0, r5
   d5e2c:	f000 f8a0 	bl	d5f70 <_ZN15Adafruit_BNO055C1ElhP7TwoWire>
   d5e30:	4622      	mov	r2, r4
   d5e32:	4938      	ldr	r1, [pc, #224]	; (d5f14 <_GLOBAL__sub_I_Blynk+0x228>)
   d5e34:	4628      	mov	r0, r5
   d5e36:	f003 fd1d 	bl	d9874 <__aeabi_atexit>
Adafruit_NeoMatrix matrix = Adafruit_NeoMatrix(16, 8, PIXEL_PIN,
   d5e3a:	2702      	movs	r7, #2
   d5e3c:	2310      	movs	r3, #16
   d5e3e:	f04f 0906 	mov.w	r9, #6
   d5e42:	4619      	mov	r1, r3
  NEO_MATRIX_TOP     + NEO_MATRIX_RIGHT +
  NEO_MATRIX_COLUMNS + NEO_MATRIX_PROGRESSIVE,
  PIXEL_TYPE);
Adafruit_NeoMatrix matrix_1 = Adafruit_NeoMatrix(16, 8, PIXEL_PIN_1,
   d5e44:	4d34      	ldr	r5, [pc, #208]	; (d5f18 <_GLOBAL__sub_I_Blynk+0x22c>)
String global_lat = ""; //variables for location data
String global_lon = "";
String global_ip = ""; //through here
SparkCorePolledTimer updateTimer(timerTime);
Adafruit_BNO055 bno = Adafruit_BNO055(55);
Adafruit_NeoMatrix matrix = Adafruit_NeoMatrix(16, 8, PIXEL_PIN,
   d5e46:	9701      	str	r7, [sp, #4]
   d5e48:	f8cd 9000 	str.w	r9, [sp]
   d5e4c:	2208      	movs	r2, #8
   d5e4e:	4630      	mov	r0, r6
   d5e50:	f001 f96e 	bl	d7130 <_ZN18Adafruit_NeoMatrixC1Eiihhh>
   d5e54:	4622      	mov	r2, r4
   d5e56:	4641      	mov	r1, r8
   d5e58:	4630      	mov	r0, r6
   d5e5a:	f003 fd0b 	bl	d9874 <__aeabi_atexit>
  NEO_MATRIX_TOP     + NEO_MATRIX_RIGHT +
  NEO_MATRIX_COLUMNS + NEO_MATRIX_PROGRESSIVE,
  PIXEL_TYPE);
Adafruit_NeoMatrix matrix_1 = Adafruit_NeoMatrix(16, 8, PIXEL_PIN_1,
   d5e5e:	230f      	movs	r3, #15
   d5e60:	9701      	str	r7, [sp, #4]
   d5e62:	f8cd 9000 	str.w	r9, [sp]
   d5e66:	2208      	movs	r2, #8
   d5e68:	2110      	movs	r1, #16
   d5e6a:	4628      	mov	r0, r5
   d5e6c:	f001 f960 	bl	d7130 <_ZN18Adafruit_NeoMatrixC1Eiihhh>
   d5e70:	4641      	mov	r1, r8
  NEO_MATRIX_TOP     + NEO_MATRIX_RIGHT +
  NEO_MATRIX_COLUMNS + NEO_MATRIX_PROGRESSIVE,
  PIXEL_TYPE);
Adafruit_NeoPixel strip(PIXEL_COUNT, PIXEL_PIN_1, PIXEL_TYPE);
   d5e72:	f8df 80b8 	ldr.w	r8, [pc, #184]	; d5f2c <_GLOBAL__sub_I_Blynk+0x240>
Adafruit_BNO055 bno = Adafruit_BNO055(55);
Adafruit_NeoMatrix matrix = Adafruit_NeoMatrix(16, 8, PIXEL_PIN,
  NEO_MATRIX_TOP     + NEO_MATRIX_RIGHT +
  NEO_MATRIX_COLUMNS + NEO_MATRIX_PROGRESSIVE,
  PIXEL_TYPE);
Adafruit_NeoMatrix matrix_1 = Adafruit_NeoMatrix(16, 8, PIXEL_PIN_1,
   d5e76:	4622      	mov	r2, r4
   d5e78:	4628      	mov	r0, r5
   d5e7a:	f003 fcfb 	bl	d9874 <__aeabi_atexit>
  NEO_MATRIX_TOP     + NEO_MATRIX_RIGHT +
  NEO_MATRIX_COLUMNS + NEO_MATRIX_PROGRESSIVE,
  PIXEL_TYPE);
Adafruit_NeoPixel strip(PIXEL_COUNT, PIXEL_PIN_1, PIXEL_TYPE);
   d5e7e:	463b      	mov	r3, r7
   d5e80:	220f      	movs	r2, #15
   d5e82:	2180      	movs	r1, #128	; 0x80
   d5e84:	4640      	mov	r0, r8
   d5e86:	f001 f9dd 	bl	d7244 <_ZN17Adafruit_NeoPixelC1Ethh>
   d5e8a:	4622      	mov	r2, r4
   d5e8c:	4923      	ldr	r1, [pc, #140]	; (d5f1c <_GLOBAL__sub_I_Blynk+0x230>)
   d5e8e:	4640      	mov	r0, r8
   d5e90:	f003 fcf0 	bl	d9874 <__aeabi_atexit>
int x1 = matrix.width();
   d5e94:	4630      	mov	r0, r6
   d5e96:	f000 fbee 	bl	d6676 <_ZN12Adafruit_GFX5widthEv>
   d5e9a:	4b21      	ldr	r3, [pc, #132]	; (d5f20 <_GLOBAL__sub_I_Blynk+0x234>)
   d5e9c:	6018      	str	r0, [r3, #0]
int x2 = matrix_1.width();
   d5e9e:	4628      	mov	r0, r5
   d5ea0:	f000 fbe9 	bl	d6676 <_ZN12Adafruit_GFX5widthEv>
   d5ea4:	4b1f      	ldr	r3, [pc, #124]	; (d5f24 <_GLOBAL__sub_I_Blynk+0x238>)
   d5ea6:	6018      	str	r0, [r3, #0]
}
}

void loop(){
  delay(CONCURRENT_WAIT_FOREVER);
   d5ea8:	b003      	add	sp, #12
   d5eaa:	e8bd 83f0 	ldmia.w	sp!, {r4, r5, r6, r7, r8, r9, pc}
   d5eae:	bf00      	nop
   d5eb0:	2003dd5c 	.word	0x2003dd5c
   d5eb4:	2003dd70 	.word	0x2003dd70
   d5eb8:	2003dc54 	.word	0x2003dc54
   d5ebc:	2003dc3c 	.word	0x2003dc3c
   d5ec0:	000d4a19 	.word	0x000d4a19
   d5ec4:	2003e334 	.word	0x2003e334
   d5ec8:	000d41d3 	.word	0x000d41d3
   d5ecc:	2003dce0 	.word	0x2003dce0
   d5ed0:	2003dc5c 	.word	0x2003dc5c
   d5ed4:	2003dc58 	.word	0x2003dc58
   d5ed8:	000dbc20 	.word	0x000dbc20
   d5edc:	000d89f3 	.word	0x000d89f3
   d5ee0:	2003e354 	.word	0x2003e354
   d5ee4:	2003ddac 	.word	0x2003ddac
   d5ee8:	2003dd60 	.word	0x2003dd60
   d5eec:	2003ddc4 	.word	0x2003ddc4
   d5ef0:	000daf3c 	.word	0x000daf3c
   d5ef4:	2003e310 	.word	0x2003e310
   d5ef8:	000d4171 	.word	0x000d4171
   d5efc:	2003dc80 	.word	0x2003dc80
   d5f00:	2003e324 	.word	0x2003e324
   d5f04:	2003db78 	.word	0x2003db78
   d5f08:	2003dc48 	.word	0x2003dc48
   d5f0c:	2003dd48 	.word	0x2003dd48
   d5f10:	2003dc98 	.word	0x2003dc98
   d5f14:	000d4101 	.word	0x000d4101
   d5f18:	2003dce4 	.word	0x2003dce4
   d5f1c:	000d71a5 	.word	0x000d71a5
   d5f20:	2003dcdc 	.word	0x2003dcdc
   d5f24:	2003dd28 	.word	0x2003dd28
   d5f28:	000d4159 	.word	0x000d4159
   d5f2c:	2003dd34 	.word	0x2003dd34

000d5f30 <_ZN15Adafruit_BNO0559getSensorEP8sensor_t>:

/*!
 *  @brief  Provides the sensor_t data for this sensor
 *  @param  sensor
 */
void Adafruit_BNO055::getSensor(sensor_t *sensor) {
   d5f30:	b538      	push	{r3, r4, r5, lr}
   d5f32:	460c      	mov	r4, r1
   d5f34:	4605      	mov	r5, r0
  /* Clear the sensor_t object */
  memset(sensor, 0, sizeof(sensor_t));
   d5f36:	2228      	movs	r2, #40	; 0x28
   d5f38:	2100      	movs	r1, #0
   d5f3a:	4620      	mov	r0, r4
   d5f3c:	f004 fb37 	bl	da5ae <memset>

  /* Insert the sensor name in the fixed length char array */
  strncpy(sensor->name, "BNO055", sizeof(sensor->name) - 1);
   d5f40:	220b      	movs	r2, #11
   d5f42:	4909      	ldr	r1, [pc, #36]	; (d5f68 <_ZN15Adafruit_BNO0559getSensorEP8sensor_t+0x38>)
   d5f44:	4620      	mov	r0, r4
   d5f46:	f004 fbad 	bl	da6a4 <strncpy>
  sensor->name[sizeof(sensor->name) - 1] = 0;
   d5f4a:	2300      	movs	r3, #0
  sensor->version = 1;
   d5f4c:	2201      	movs	r2, #1
  /* Clear the sensor_t object */
  memset(sensor, 0, sizeof(sensor_t));

  /* Insert the sensor name in the fixed length char array */
  strncpy(sensor->name, "BNO055", sizeof(sensor->name) - 1);
  sensor->name[sizeof(sensor->name) - 1] = 0;
   d5f4e:	72e3      	strb	r3, [r4, #11]
  sensor->version = 1;
   d5f50:	60e2      	str	r2, [r4, #12]
  sensor->sensor_id = _sensorID;
   d5f52:	68ea      	ldr	r2, [r5, #12]
  sensor->type = SENSOR_TYPE_ORIENTATION;
  sensor->min_delay = 0;
   d5f54:	6263      	str	r3, [r4, #36]	; 0x24
  sensor->max_value = 0.0F;
   d5f56:	2300      	movs	r3, #0

  /* Insert the sensor name in the fixed length char array */
  strncpy(sensor->name, "BNO055", sizeof(sensor->name) - 1);
  sensor->name[sizeof(sensor->name) - 1] = 0;
  sensor->version = 1;
  sensor->sensor_id = _sensorID;
   d5f58:	6122      	str	r2, [r4, #16]
  sensor->type = SENSOR_TYPE_ORIENTATION;
  sensor->min_delay = 0;
  sensor->max_value = 0.0F;
   d5f5a:	61a3      	str	r3, [r4, #24]
  /* Insert the sensor name in the fixed length char array */
  strncpy(sensor->name, "BNO055", sizeof(sensor->name) - 1);
  sensor->name[sizeof(sensor->name) - 1] = 0;
  sensor->version = 1;
  sensor->sensor_id = _sensorID;
  sensor->type = SENSOR_TYPE_ORIENTATION;
   d5f5c:	2203      	movs	r2, #3
  sensor->min_delay = 0;
  sensor->max_value = 0.0F;
  sensor->min_value = 0.0F;
   d5f5e:	61e3      	str	r3, [r4, #28]
  sensor->resolution = 0.01F;
   d5f60:	4b02      	ldr	r3, [pc, #8]	; (d5f6c <_ZN15Adafruit_BNO0559getSensorEP8sensor_t+0x3c>)
  /* Insert the sensor name in the fixed length char array */
  strncpy(sensor->name, "BNO055", sizeof(sensor->name) - 1);
  sensor->name[sizeof(sensor->name) - 1] = 0;
  sensor->version = 1;
  sensor->sensor_id = _sensorID;
  sensor->type = SENSOR_TYPE_ORIENTATION;
   d5f62:	6162      	str	r2, [r4, #20]
  sensor->min_delay = 0;
  sensor->max_value = 0.0F;
  sensor->min_value = 0.0F;
  sensor->resolution = 0.01F;
   d5f64:	6223      	str	r3, [r4, #32]
   d5f66:	bd38      	pop	{r3, r4, r5, pc}
   d5f68:	000db121 	.word	0x000db121
   d5f6c:	3c23d70a 	.word	0x3c23d70a

000d5f70 <_ZN15Adafruit_BNO055C1ElhP7TwoWire>:
 *  @param  address
 *          i2c address
 *  @param  *theWire
 *          Wire object
 */
Adafruit_BNO055::Adafruit_BNO055(int32_t sensorID, uint8_t address,
   d5f70:	b530      	push	{r4, r5, lr}
                                 TwoWire *theWire) {
   d5f72:	4d03      	ldr	r5, [pc, #12]	; (d5f80 <_ZN15Adafruit_BNO055C1ElhP7TwoWire+0x10>)
   d5f74:	6005      	str	r5, [r0, #0]
  _sensorID = sensorID;
   d5f76:	60c1      	str	r1, [r0, #12]
  _address = address;
   d5f78:	7142      	strb	r2, [r0, #5]
  _wire = theWire;
   d5f7a:	6083      	str	r3, [r0, #8]
}
   d5f7c:	bd30      	pop	{r4, r5, pc}
   d5f7e:	bf00      	nop
   d5f80:	000db130 	.word	0x000db130

000d5f84 <_ZN15Adafruit_BNO0556write8ENS_21adafruit_bno055_reg_tEh>:
}

/*!
 *  @brief  Writes an 8 bit value over I2C
 */
bool Adafruit_BNO055::write8(adafruit_bno055_reg_t reg, byte value) {
   d5f84:	b570      	push	{r4, r5, r6, lr}
   d5f86:	4604      	mov	r4, r0
   d5f88:	460e      	mov	r6, r1
  _wire->beginTransmission(_address);
   d5f8a:	7941      	ldrb	r1, [r0, #5]
   d5f8c:	6880      	ldr	r0, [r0, #8]
}

/*!
 *  @brief  Writes an 8 bit value over I2C
 */
bool Adafruit_BNO055::write8(adafruit_bno055_reg_t reg, byte value) {
   d5f8e:	4615      	mov	r5, r2
  _wire->beginTransmission(_address);
   d5f90:	f002 fa36 	bl	d8400 <_ZN7TwoWire17beginTransmissionEh>
#if ARDUINO >= 100
  _wire->write((uint8_t)reg);
   d5f94:	68a0      	ldr	r0, [r4, #8]
   d5f96:	6803      	ldr	r3, [r0, #0]
   d5f98:	4631      	mov	r1, r6
   d5f9a:	689b      	ldr	r3, [r3, #8]
   d5f9c:	4798      	blx	r3
  _wire->write((uint8_t)value);
   d5f9e:	68a0      	ldr	r0, [r4, #8]
   d5fa0:	6803      	ldr	r3, [r0, #0]
   d5fa2:	4629      	mov	r1, r5
   d5fa4:	689b      	ldr	r3, [r3, #8]
   d5fa6:	4798      	blx	r3
#else
  _wire->send(reg);
  _wire->send(value);
#endif
  _wire->endTransmission();
   d5fa8:	68a0      	ldr	r0, [r4, #8]
   d5faa:	f002 fa31 	bl	d8410 <_ZN7TwoWire15endTransmissionEv>

  /* ToDo: Check for error! */
  return true;
}
   d5fae:	2001      	movs	r0, #1
   d5fb0:	bd70      	pop	{r4, r5, r6, pc}

000d5fb2 <_ZN15Adafruit_BNO0557setModeENS_24adafruit_bno055_opmode_tE>:
 *            OPERATION_MODE_COMPASS,
 *            OPERATION_MODE_M4G,
 *            OPERATION_MODE_NDOF_FMC_OFF,
 *            OPERATION_MODE_NDOF]
 */
void Adafruit_BNO055::setMode(adafruit_bno055_opmode_t mode) {
   d5fb2:	b508      	push	{r3, lr}
   d5fb4:	460a      	mov	r2, r1
  _mode = mode;
   d5fb6:	7401      	strb	r1, [r0, #16]
  write8(BNO055_OPR_MODE_ADDR, _mode);
   d5fb8:	213d      	movs	r1, #61	; 0x3d
   d5fba:	f7ff ffe3 	bl	d5f84 <_ZN15Adafruit_BNO0556write8ENS_21adafruit_bno055_reg_tEh>
  delay(30);
   d5fbe:	201e      	movs	r0, #30
}
   d5fc0:	e8bd 4008 	ldmia.w	sp!, {r3, lr}
 *            OPERATION_MODE_NDOF]
 */
void Adafruit_BNO055::setMode(adafruit_bno055_opmode_t mode) {
  _mode = mode;
  write8(BNO055_OPR_MODE_ADDR, _mode);
  delay(30);
   d5fc4:	f001 bece 	b.w	d7d64 <delay>

000d5fc8 <_ZN15Adafruit_BNO05516setExtCrystalUseEb>:
/*!
 *  @brief  Use the external 32.768KHz crystal
 *  @param  usextal
 *          use external crystal boolean
 */
void Adafruit_BNO055::setExtCrystalUse(boolean usextal) {
   d5fc8:	b570      	push	{r4, r5, r6, lr}
   d5fca:	460d      	mov	r5, r1
  adafruit_bno055_opmode_t modeback = _mode;

  /* Switch to config mode (just in case since this is the default) */
  setMode(OPERATION_MODE_CONFIG);
   d5fcc:	2100      	movs	r1, #0
/*!
 *  @brief  Use the external 32.768KHz crystal
 *  @param  usextal
 *          use external crystal boolean
 */
void Adafruit_BNO055::setExtCrystalUse(boolean usextal) {
   d5fce:	4604      	mov	r4, r0
  adafruit_bno055_opmode_t modeback = _mode;
   d5fd0:	7c06      	ldrb	r6, [r0, #16]

  /* Switch to config mode (just in case since this is the default) */
  setMode(OPERATION_MODE_CONFIG);
   d5fd2:	f7ff ffee 	bl	d5fb2 <_ZN15Adafruit_BNO0557setModeENS_24adafruit_bno055_opmode_tE>
  delay(25);
   d5fd6:	2019      	movs	r0, #25
   d5fd8:	f001 fec4 	bl	d7d64 <delay>
  write8(BNO055_PAGE_ID_ADDR, 0);
   d5fdc:	2200      	movs	r2, #0
   d5fde:	2107      	movs	r1, #7
   d5fe0:	4620      	mov	r0, r4
   d5fe2:	f7ff ffcf 	bl	d5f84 <_ZN15Adafruit_BNO0556write8ENS_21adafruit_bno055_reg_tEh>
  if (usextal) {
   d5fe6:	b10d      	cbz	r5, d5fec <_ZN15Adafruit_BNO05516setExtCrystalUseEb+0x24>
    write8(BNO055_SYS_TRIGGER_ADDR, 0x80);
   d5fe8:	2280      	movs	r2, #128	; 0x80
   d5fea:	e000      	b.n	d5fee <_ZN15Adafruit_BNO05516setExtCrystalUseEb+0x26>
  } else {
    write8(BNO055_SYS_TRIGGER_ADDR, 0x00);
   d5fec:	462a      	mov	r2, r5
   d5fee:	213f      	movs	r1, #63	; 0x3f
   d5ff0:	4620      	mov	r0, r4
   d5ff2:	f7ff ffc7 	bl	d5f84 <_ZN15Adafruit_BNO0556write8ENS_21adafruit_bno055_reg_tEh>
  }
  delay(10);
   d5ff6:	200a      	movs	r0, #10
   d5ff8:	f001 feb4 	bl	d7d64 <delay>
  /* Set the requested operating mode (see section 3.3) */
  setMode(modeback);
   d5ffc:	4620      	mov	r0, r4
   d5ffe:	4631      	mov	r1, r6
   d6000:	f7ff ffd7 	bl	d5fb2 <_ZN15Adafruit_BNO0557setModeENS_24adafruit_bno055_opmode_tE>
  delay(20);
   d6004:	2014      	movs	r0, #20
}
   d6006:	e8bd 4070 	ldmia.w	sp!, {r4, r5, r6, lr}
    write8(BNO055_SYS_TRIGGER_ADDR, 0x00);
  }
  delay(10);
  /* Set the requested operating mode (see section 3.3) */
  setMode(modeback);
  delay(20);
   d600a:	f001 beab 	b.w	d7d64 <delay>

000d600e <_ZN15Adafruit_BNO0555read8ENS_21adafruit_bno055_reg_tE>:
}

/*!
 *  @brief  Reads an 8 bit value over I2C
 */
byte Adafruit_BNO055::read8(adafruit_bno055_reg_t reg) {
   d600e:	b538      	push	{r3, r4, r5, lr}
   d6010:	4604      	mov	r4, r0
   d6012:	460d      	mov	r5, r1
  byte value = 0;

  _wire->beginTransmission(_address);
   d6014:	7941      	ldrb	r1, [r0, #5]
   d6016:	6880      	ldr	r0, [r0, #8]
   d6018:	f002 f9f2 	bl	d8400 <_ZN7TwoWire17beginTransmissionEh>
#if ARDUINO >= 100
  _wire->write((uint8_t)reg);
   d601c:	68a0      	ldr	r0, [r4, #8]
   d601e:	6803      	ldr	r3, [r0, #0]
   d6020:	4629      	mov	r1, r5
   d6022:	689b      	ldr	r3, [r3, #8]
   d6024:	4798      	blx	r3
#else
  _wire->send(reg);
#endif
  _wire->endTransmission();
   d6026:	68a0      	ldr	r0, [r4, #8]
   d6028:	f002 f9f2 	bl	d8410 <_ZN7TwoWire15endTransmissionEv>
  _wire->requestFrom(_address, (byte)1);
   d602c:	2201      	movs	r2, #1
   d602e:	7961      	ldrb	r1, [r4, #5]
   d6030:	68a0      	ldr	r0, [r4, #8]
   d6032:	f002 f9e2 	bl	d83fa <_ZN7TwoWire11requestFromEhh>
#if ARDUINO >= 100
  value = _wire->read();
   d6036:	68a0      	ldr	r0, [r4, #8]
   d6038:	6803      	ldr	r3, [r0, #0]
   d603a:	695b      	ldr	r3, [r3, #20]
   d603c:	4798      	blx	r3
#else
  value = _wire->receive();
#endif

  return value;
}
   d603e:	b2c0      	uxtb	r0, r0
   d6040:	bd38      	pop	{r3, r4, r5, pc}

000d6042 <_ZN15Adafruit_BNO0555beginENS_24adafruit_bno055_opmode_tE>:
 *            OPERATION_MODE_M4G,
 *            OPERATION_MODE_NDOF_FMC_OFF,
 *            OPERATION_MODE_NDOF]
 *  @return true if process is successful
 */
bool Adafruit_BNO055::begin(adafruit_bno055_opmode_t mode) {
   d6042:	b538      	push	{r3, r4, r5, lr}
   d6044:	4604      	mov	r4, r0
    "On an arduino Zero, BNO055's ADR pin must be high. Fix that, then delete this line."
  _address = BNO055_ADDRESS_B;
#endif

  /* Enable I2C */
  _wire->begin();
   d6046:	6880      	ldr	r0, [r0, #8]
 *            OPERATION_MODE_M4G,
 *            OPERATION_MODE_NDOF_FMC_OFF,
 *            OPERATION_MODE_NDOF]
 *  @return true if process is successful
 */
bool Adafruit_BNO055::begin(adafruit_bno055_opmode_t mode) {
   d6048:	460d      	mov	r5, r1
    "On an arduino Zero, BNO055's ADR pin must be high. Fix that, then delete this line."
  _address = BNO055_ADDRESS_B;
#endif

  /* Enable I2C */
  _wire->begin();
   d604a:	f002 f9c7 	bl	d83dc <_ZN7TwoWire5beginEv>
#ifdef ESP8266
  _wire->setClockStretchLimit(1000); // Allow for 1000us of clock stretching
#endif

  /* Make sure we have the right device */
  uint8_t id = read8(BNO055_CHIP_ID_ADDR);
   d604e:	2100      	movs	r1, #0
   d6050:	4620      	mov	r0, r4
   d6052:	f7ff ffdc 	bl	d600e <_ZN15Adafruit_BNO0555read8ENS_21adafruit_bno055_reg_tE>
  if (id != BNO055_ID) {
   d6056:	28a0      	cmp	r0, #160	; 0xa0
   d6058:	d109      	bne.n	d606e <_ZN15Adafruit_BNO0555beginENS_24adafruit_bno055_opmode_tE+0x2c>
      return false; // still not? ok bail
    }
  }

  /* Switch to config mode (just in case since this is the default) */
  setMode(OPERATION_MODE_CONFIG);
   d605a:	4620      	mov	r0, r4
   d605c:	2100      	movs	r1, #0
   d605e:	f7ff ffa8 	bl	d5fb2 <_ZN15Adafruit_BNO0557setModeENS_24adafruit_bno055_opmode_tE>

  /* Reset */
  write8(BNO055_SYS_TRIGGER_ADDR, 0x20);
   d6062:	2220      	movs	r2, #32
   d6064:	213f      	movs	r1, #63	; 0x3f
   d6066:	4620      	mov	r0, r4
   d6068:	f7ff ff8c 	bl	d5f84 <_ZN15Adafruit_BNO0556write8ENS_21adafruit_bno055_reg_tEh>
   d606c:	e00b      	b.n	d6086 <_ZN15Adafruit_BNO0555beginENS_24adafruit_bno055_opmode_tE+0x44>
#endif

  /* Make sure we have the right device */
  uint8_t id = read8(BNO055_CHIP_ID_ADDR);
  if (id != BNO055_ID) {
    delay(1000); // hold on for boot
   d606e:	f44f 707a 	mov.w	r0, #1000	; 0x3e8
   d6072:	f001 fe77 	bl	d7d64 <delay>
    id = read8(BNO055_CHIP_ID_ADDR);
   d6076:	2100      	movs	r1, #0
   d6078:	4620      	mov	r0, r4
   d607a:	f7ff ffc8 	bl	d600e <_ZN15Adafruit_BNO0555read8ENS_21adafruit_bno055_reg_tE>
    if (id != BNO055_ID) {
   d607e:	28a0      	cmp	r0, #160	; 0xa0
   d6080:	d0eb      	beq.n	d605a <_ZN15Adafruit_BNO0555beginENS_24adafruit_bno055_opmode_tE+0x18>
      return false; // still not? ok bail
   d6082:	2000      	movs	r0, #0
  /* Set the requested operating mode (see section 3.3) */
  setMode(mode);
  delay(20);

  return true;
}
   d6084:	bd38      	pop	{r3, r4, r5, pc}
  /* Switch to config mode (just in case since this is the default) */
  setMode(OPERATION_MODE_CONFIG);

  /* Reset */
  write8(BNO055_SYS_TRIGGER_ADDR, 0x20);
  while (read8(BNO055_CHIP_ID_ADDR) != BNO055_ID) {
   d6086:	2100      	movs	r1, #0
   d6088:	4620      	mov	r0, r4
   d608a:	f7ff ffc0 	bl	d600e <_ZN15Adafruit_BNO0555read8ENS_21adafruit_bno055_reg_tE>
   d608e:	28a0      	cmp	r0, #160	; 0xa0
   d6090:	d003      	beq.n	d609a <_ZN15Adafruit_BNO0555beginENS_24adafruit_bno055_opmode_tE+0x58>
    delay(10);
   d6092:	200a      	movs	r0, #10
   d6094:	f001 fe66 	bl	d7d64 <delay>
  /* Switch to config mode (just in case since this is the default) */
  setMode(OPERATION_MODE_CONFIG);

  /* Reset */
  write8(BNO055_SYS_TRIGGER_ADDR, 0x20);
  while (read8(BNO055_CHIP_ID_ADDR) != BNO055_ID) {
   d6098:	e7f5      	b.n	d6086 <_ZN15Adafruit_BNO0555beginENS_24adafruit_bno055_opmode_tE+0x44>
    delay(10);
  }
  delay(50);
   d609a:	2032      	movs	r0, #50	; 0x32
   d609c:	f001 fe62 	bl	d7d64 <delay>

  /* Set to normal power mode */
  write8(BNO055_PWR_MODE_ADDR, POWER_MODE_NORMAL);
   d60a0:	2200      	movs	r2, #0
   d60a2:	213e      	movs	r1, #62	; 0x3e
   d60a4:	4620      	mov	r0, r4
   d60a6:	f7ff ff6d 	bl	d5f84 <_ZN15Adafruit_BNO0556write8ENS_21adafruit_bno055_reg_tEh>
  delay(10);
   d60aa:	200a      	movs	r0, #10
   d60ac:	f001 fe5a 	bl	d7d64 <delay>

  write8(BNO055_PAGE_ID_ADDR, 0);
   d60b0:	2200      	movs	r2, #0
   d60b2:	2107      	movs	r1, #7
   d60b4:	4620      	mov	r0, r4
   d60b6:	f7ff ff65 	bl	d5f84 <_ZN15Adafruit_BNO0556write8ENS_21adafruit_bno055_reg_tEh>
  delay(10);
  write8(BNO055_AXIS_MAP_SIGN_ADDR, REMAP_SIGN_P2); // P0-P7, Default is P1
  delay(10);
  */

  write8(BNO055_SYS_TRIGGER_ADDR, 0x0);
   d60ba:	2200      	movs	r2, #0
   d60bc:	213f      	movs	r1, #63	; 0x3f
   d60be:	4620      	mov	r0, r4
   d60c0:	f7ff ff60 	bl	d5f84 <_ZN15Adafruit_BNO0556write8ENS_21adafruit_bno055_reg_tEh>
  delay(10);
   d60c4:	200a      	movs	r0, #10
   d60c6:	f001 fe4d 	bl	d7d64 <delay>
  /* Set the requested operating mode (see section 3.3) */
  setMode(mode);
   d60ca:	4629      	mov	r1, r5
   d60cc:	4620      	mov	r0, r4
   d60ce:	f7ff ff70 	bl	d5fb2 <_ZN15Adafruit_BNO0557setModeENS_24adafruit_bno055_opmode_tE>
  delay(20);
   d60d2:	2014      	movs	r0, #20
   d60d4:	f001 fe46 	bl	d7d64 <delay>

  return true;
   d60d8:	2001      	movs	r0, #1
   d60da:	bd38      	pop	{r3, r4, r5, pc}

000d60dc <_ZN15Adafruit_BNO0557readLenENS_21adafruit_bno055_reg_tEPhh>:

/*!
 *  @brief  Reads the specified number of bytes over I2C
 */
bool Adafruit_BNO055::readLen(adafruit_bno055_reg_t reg, byte *buffer,
                              uint8_t len) {
   d60dc:	b5f8      	push	{r3, r4, r5, r6, r7, lr}
   d60de:	4604      	mov	r4, r0
   d60e0:	460e      	mov	r6, r1
  _wire->beginTransmission(_address);
   d60e2:	7941      	ldrb	r1, [r0, #5]
   d60e4:	6880      	ldr	r0, [r0, #8]

/*!
 *  @brief  Reads the specified number of bytes over I2C
 */
bool Adafruit_BNO055::readLen(adafruit_bno055_reg_t reg, byte *buffer,
                              uint8_t len) {
   d60e6:	4617      	mov	r7, r2
   d60e8:	461d      	mov	r5, r3
  _wire->beginTransmission(_address);
   d60ea:	f002 f989 	bl	d8400 <_ZN7TwoWire17beginTransmissionEh>
#if ARDUINO >= 100
  _wire->write((uint8_t)reg);
   d60ee:	68a0      	ldr	r0, [r4, #8]
   d60f0:	6803      	ldr	r3, [r0, #0]
   d60f2:	4631      	mov	r1, r6
   d60f4:	689b      	ldr	r3, [r3, #8]
   d60f6:	4798      	blx	r3
#else
  _wire->send(reg);
#endif
  _wire->endTransmission();
   d60f8:	68a0      	ldr	r0, [r4, #8]
   d60fa:	f002 f989 	bl	d8410 <_ZN7TwoWire15endTransmissionEv>
  _wire->requestFrom(_address, (byte)len);
   d60fe:	462a      	mov	r2, r5
   d6100:	7961      	ldrb	r1, [r4, #5]
   d6102:	68a0      	ldr	r0, [r4, #8]
   d6104:	f002 f979 	bl	d83fa <_ZN7TwoWire11requestFromEhh>
   d6108:	3d01      	subs	r5, #1
   d610a:	1e7e      	subs	r6, r7, #1
   d610c:	443d      	add	r5, r7

  for (uint8_t i = 0; i < len; i++) {
   d610e:	42ae      	cmp	r6, r5
   d6110:	d006      	beq.n	d6120 <_ZN15Adafruit_BNO0557readLenENS_21adafruit_bno055_reg_tEPhh+0x44>
#if ARDUINO >= 100
    buffer[i] = _wire->read();
   d6112:	68a0      	ldr	r0, [r4, #8]
   d6114:	6803      	ldr	r3, [r0, #0]
   d6116:	695b      	ldr	r3, [r3, #20]
   d6118:	4798      	blx	r3
   d611a:	f806 0f01 	strb.w	r0, [r6, #1]!
  _wire->send(reg);
#endif
  _wire->endTransmission();
  _wire->requestFrom(_address, (byte)len);

  for (uint8_t i = 0; i < len; i++) {
   d611e:	e7f6      	b.n	d610e <_ZN15Adafruit_BNO0557readLenENS_21adafruit_bno055_reg_tEPhh+0x32>
#endif
  }

  /* ToDo: Check for errors! */
  return true;
}
   d6120:	2001      	movs	r0, #1
   d6122:	bdf8      	pop	{r3, r4, r5, r6, r7, pc}

000d6124 <_ZN15Adafruit_BNO0559getVectorENS_22adafruit_vector_type_tE>:
 *            VECTOR_EULER
 *            VECTOR_LINEARACCEL
 *            VECTOR_GRAVITY]
 *  @return  vector from specified source
 */
imu::Vector<3> Adafruit_BNO055::getVector(adafruit_vector_type_t vector_type) {
   d6124:	b5f7      	push	{r0, r1, r2, r4, r5, r6, r7, lr}
   d6126:	460d      	mov	r5, r1
   d6128:	4617      	mov	r7, r2
template <uint8_t N> class Vector
{
public:
    Vector()
    {
        memset(p_vec, 0, sizeof(double)*N);
   d612a:	2100      	movs	r1, #0
   d612c:	2218      	movs	r2, #24
   d612e:	4604      	mov	r4, r0
   d6130:	f004 fa3d 	bl	da5ae <memset>
  imu::Vector<3> xyz;
  uint8_t buffer[6];
  memset(buffer, 0, 6);
   d6134:	2300      	movs	r3, #0
   d6136:	9300      	str	r3, [sp, #0]
   d6138:	f8ad 3004 	strh.w	r3, [sp, #4]

  int16_t x, y, z;
  x = y = z = 0;

  /* Read vector data (6 bytes) */
  readLen((adafruit_bno055_reg_t)vector_type, buffer, 6);
   d613c:	4628      	mov	r0, r5
   d613e:	2306      	movs	r3, #6
   d6140:	466a      	mov	r2, sp
   d6142:	4639      	mov	r1, r7
   d6144:	f7ff ffca 	bl	d60dc <_ZN15Adafruit_BNO0557readLenENS_21adafruit_bno055_reg_tEPhh>

  x = ((int16_t)buffer[0]) | (((int16_t)buffer[1]) << 8);
   d6148:	f89d 3000 	ldrb.w	r3, [sp]
   d614c:	f89d 0001 	ldrb.w	r0, [sp, #1]
  y = ((int16_t)buffer[2]) | (((int16_t)buffer[3]) << 8);
   d6150:	f89d 6003 	ldrb.w	r6, [sp, #3]
  z = ((int16_t)buffer[4]) | (((int16_t)buffer[5]) << 8);
   d6154:	f89d 5005 	ldrb.w	r5, [sp, #5]
  x = y = z = 0;

  /* Read vector data (6 bytes) */
  readLen((adafruit_bno055_reg_t)vector_type, buffer, 6);

  x = ((int16_t)buffer[0]) | (((int16_t)buffer[1]) << 8);
   d6158:	ea43 2000 	orr.w	r0, r3, r0, lsl #8
  y = ((int16_t)buffer[2]) | (((int16_t)buffer[3]) << 8);
   d615c:	f89d 3002 	ldrb.w	r3, [sp, #2]
   d6160:	ea43 2606 	orr.w	r6, r3, r6, lsl #8
  z = ((int16_t)buffer[4]) | (((int16_t)buffer[5]) << 8);
   d6164:	f89d 3004 	ldrb.w	r3, [sp, #4]

  /*!
   * Convert the value to an appropriate range (section 3.6.4)
   * and assign the value to the Vector type
   */
  switch (vector_type) {
   d6168:	2f14      	cmp	r7, #20
  /* Read vector data (6 bytes) */
  readLen((adafruit_bno055_reg_t)vector_type, buffer, 6);

  x = ((int16_t)buffer[0]) | (((int16_t)buffer[1]) << 8);
  y = ((int16_t)buffer[2]) | (((int16_t)buffer[3]) << 8);
  z = ((int16_t)buffer[4]) | (((int16_t)buffer[5]) << 8);
   d616a:	ea43 2505 	orr.w	r5, r3, r5, lsl #8
  x = y = z = 0;

  /* Read vector data (6 bytes) */
  readLen((adafruit_bno055_reg_t)vector_type, buffer, 6);

  x = ((int16_t)buffer[0]) | (((int16_t)buffer[1]) << 8);
   d616e:	b200      	sxth	r0, r0
  y = ((int16_t)buffer[2]) | (((int16_t)buffer[3]) << 8);
   d6170:	b236      	sxth	r6, r6
  z = ((int16_t)buffer[4]) | (((int16_t)buffer[5]) << 8);
   d6172:	b22d      	sxth	r5, r5

  /*!
   * Convert the value to an appropriate range (section 3.6.4)
   * and assign the value to the Vector type
   */
  switch (vector_type) {
   d6174:	d00a      	beq.n	d618c <_ZN15Adafruit_BNO0559getVectorENS_22adafruit_vector_type_tE+0x68>
   d6176:	d803      	bhi.n	d6180 <_ZN15Adafruit_BNO0559getVectorENS_22adafruit_vector_type_tE+0x5c>
   d6178:	2f08      	cmp	r7, #8
   d617a:	d020      	beq.n	d61be <_ZN15Adafruit_BNO0559getVectorENS_22adafruit_vector_type_tE+0x9a>
   d617c:	2f0e      	cmp	r7, #14
   d617e:	e004      	b.n	d618a <_ZN15Adafruit_BNO0559getVectorENS_22adafruit_vector_type_tE+0x66>
   d6180:	2f28      	cmp	r7, #40	; 0x28
   d6182:	d01c      	beq.n	d61be <_ZN15Adafruit_BNO0559getVectorENS_22adafruit_vector_type_tE+0x9a>
   d6184:	2f2e      	cmp	r7, #46	; 0x2e
   d6186:	d01a      	beq.n	d61be <_ZN15Adafruit_BNO0559getVectorENS_22adafruit_vector_type_tE+0x9a>
   d6188:	2f1a      	cmp	r7, #26
   d618a:	d132      	bne.n	d61f2 <_ZN15Adafruit_BNO0559getVectorENS_22adafruit_vector_type_tE+0xce>
    xyz[1] = ((double)y) / 16.0;
    xyz[2] = ((double)z) / 16.0;
    break;
  case VECTOR_EULER:
    /* 1 degree = 16 LSB */
    xyz[0] = ((double)x) / 16.0;
   d618c:	f003 fe2e 	bl	d9dec <__aeabi_i2d>
   d6190:	2200      	movs	r2, #0
   d6192:	4b19      	ldr	r3, [pc, #100]	; (d61f8 <_ZN15Adafruit_BNO0559getVectorENS_22adafruit_vector_type_tE+0xd4>)
   d6194:	f003 fe90 	bl	d9eb8 <__aeabi_dmul>
   d6198:	e9c4 0100 	strd	r0, r1, [r4]
    xyz[1] = ((double)y) / 16.0;
   d619c:	4630      	mov	r0, r6
   d619e:	f003 fe25 	bl	d9dec <__aeabi_i2d>
   d61a2:	2200      	movs	r2, #0
   d61a4:	4b14      	ldr	r3, [pc, #80]	; (d61f8 <_ZN15Adafruit_BNO0559getVectorENS_22adafruit_vector_type_tE+0xd4>)
   d61a6:	f003 fe87 	bl	d9eb8 <__aeabi_dmul>
   d61aa:	e9c4 0102 	strd	r0, r1, [r4, #8]
    xyz[2] = ((double)z) / 16.0;
   d61ae:	4628      	mov	r0, r5
   d61b0:	f003 fe1c 	bl	d9dec <__aeabi_i2d>
   d61b4:	2200      	movs	r2, #0
   d61b6:	4b10      	ldr	r3, [pc, #64]	; (d61f8 <_ZN15Adafruit_BNO0559getVectorENS_22adafruit_vector_type_tE+0xd4>)
   d61b8:	f003 fe7e 	bl	d9eb8 <__aeabi_dmul>
   d61bc:	e017      	b.n	d61ee <_ZN15Adafruit_BNO0559getVectorENS_22adafruit_vector_type_tE+0xca>
    xyz[1] = ((double)y) / 100.0;
    xyz[2] = ((double)z) / 100.0;
    break;
  case VECTOR_GRAVITY:
    /* 1m/s^2 = 100 LSB */
    xyz[0] = ((double)x) / 100.0;
   d61be:	f003 fe15 	bl	d9dec <__aeabi_i2d>
   d61c2:	2200      	movs	r2, #0
   d61c4:	4b0d      	ldr	r3, [pc, #52]	; (d61fc <_ZN15Adafruit_BNO0559getVectorENS_22adafruit_vector_type_tE+0xd8>)
   d61c6:	f003 ffa1 	bl	da10c <__aeabi_ddiv>
   d61ca:	e9c4 0100 	strd	r0, r1, [r4]
    xyz[1] = ((double)y) / 100.0;
   d61ce:	4630      	mov	r0, r6
   d61d0:	f003 fe0c 	bl	d9dec <__aeabi_i2d>
   d61d4:	2200      	movs	r2, #0
   d61d6:	4b09      	ldr	r3, [pc, #36]	; (d61fc <_ZN15Adafruit_BNO0559getVectorENS_22adafruit_vector_type_tE+0xd8>)
   d61d8:	f003 ff98 	bl	da10c <__aeabi_ddiv>
   d61dc:	e9c4 0102 	strd	r0, r1, [r4, #8]
    xyz[2] = ((double)z) / 100.0;
   d61e0:	4628      	mov	r0, r5
   d61e2:	f003 fe03 	bl	d9dec <__aeabi_i2d>
   d61e6:	2200      	movs	r2, #0
   d61e8:	4b04      	ldr	r3, [pc, #16]	; (d61fc <_ZN15Adafruit_BNO0559getVectorENS_22adafruit_vector_type_tE+0xd8>)
   d61ea:	f003 ff8f 	bl	da10c <__aeabi_ddiv>
   d61ee:	e9c4 0104 	strd	r0, r1, [r4, #16]
    break;
  }

  return xyz;
}
   d61f2:	4620      	mov	r0, r4
   d61f4:	b003      	add	sp, #12
   d61f6:	bdf0      	pop	{r4, r5, r6, r7, pc}
   d61f8:	3fb00000 	.word	0x3fb00000
   d61fc:	40590000 	.word	0x40590000

000d6200 <_ZN15Adafruit_BNO0558getEventEP15sensors_event_t>:
/*!
 *  @brief  Reads the sensor and returns the data as a sensors_event_t
 *  @param  event
 *  @return always returns true
 */
bool Adafruit_BNO055::getEvent(sensors_event_t *event) {
   d6200:	b570      	push	{r4, r5, r6, lr}
   d6202:	460c      	mov	r4, r1
  /* Clear the event */
  memset(event, 0, sizeof(sensors_event_t));
   d6204:	2624      	movs	r6, #36	; 0x24
/*!
 *  @brief  Reads the sensor and returns the data as a sensors_event_t
 *  @param  event
 *  @return always returns true
 */
bool Adafruit_BNO055::getEvent(sensors_event_t *event) {
   d6206:	b086      	sub	sp, #24
   d6208:	4605      	mov	r5, r0
  /* Clear the event */
  memset(event, 0, sizeof(sensors_event_t));
   d620a:	4632      	mov	r2, r6
   d620c:	2100      	movs	r1, #0
   d620e:	4620      	mov	r0, r4
   d6210:	f004 f9cd 	bl	da5ae <memset>

  event->version = sizeof(sensors_event_t);
   d6214:	6026      	str	r6, [r4, #0]
  event->sensor_id = _sensorID;
   d6216:	68eb      	ldr	r3, [r5, #12]
   d6218:	6063      	str	r3, [r4, #4]
  event->type = SENSOR_TYPE_ORIENTATION;
   d621a:	2303      	movs	r3, #3
   d621c:	60a3      	str	r3, [r4, #8]
   d621e:	f001 fac5 	bl	d77ac <HAL_Timer_Get_Milli_Seconds>
  event->timestamp = millis();

  /* Get a Euler angle sample for orientation */
  imu::Vector<3> euler = getVector(Adafruit_BNO055::VECTOR_EULER);
   d6222:	221a      	movs	r2, #26
  memset(event, 0, sizeof(sensors_event_t));

  event->version = sizeof(sensors_event_t);
  event->sensor_id = _sensorID;
  event->type = SENSOR_TYPE_ORIENTATION;
  event->timestamp = millis();
   d6224:	6120      	str	r0, [r4, #16]

  /* Get a Euler angle sample for orientation */
  imu::Vector<3> euler = getVector(Adafruit_BNO055::VECTOR_EULER);
   d6226:	4629      	mov	r1, r5
   d6228:	4668      	mov	r0, sp
   d622a:	f7ff ff7b 	bl	d6124 <_ZN15Adafruit_BNO0559getVectorENS_22adafruit_vector_type_tE>
  event->orientation.x = euler.x();
   d622e:	e9dd 0100 	ldrd	r0, r1, [sp]
   d6232:	f004 f853 	bl	da2dc <__aeabi_d2f>
   d6236:	6160      	str	r0, [r4, #20]
  event->orientation.y = euler.y();
   d6238:	e9dd 0102 	ldrd	r0, r1, [sp, #8]
   d623c:	f004 f84e 	bl	da2dc <__aeabi_d2f>
   d6240:	61a0      	str	r0, [r4, #24]
  event->orientation.z = euler.z();
   d6242:	e9dd 0104 	ldrd	r0, r1, [sp, #16]
   d6246:	f004 f849 	bl	da2dc <__aeabi_d2f>
   d624a:	61e0      	str	r0, [r4, #28]

  return true;
}
   d624c:	2001      	movs	r0, #1
   d624e:	b006      	add	sp, #24
   d6250:	bd70      	pop	{r4, r5, r6, pc}

000d6252 <_ZN3imu6VectorILh3EEaSERKS1_>:
        for(int i = 0; i < N; i++)
            ret.p_vec[i] = -p_vec[i];
        return ret;
    }

    Vector& operator=(const Vector& v)
   d6252:	b530      	push	{r4, r5, lr}
   d6254:	4603      	mov	r3, r0
   d6256:	f101 0218 	add.w	r2, r1, #24
    {
        for (int x = 0; x < N; x++ )
            p_vec[x] = v.p_vec[x];
   d625a:	e8f1 4502 	ldrd	r4, r5, [r1], #8
        return ret;
    }

    Vector& operator=(const Vector& v)
    {
        for (int x = 0; x < N; x++ )
   d625e:	4291      	cmp	r1, r2
            p_vec[x] = v.p_vec[x];
   d6260:	e8e3 4502 	strd	r4, r5, [r3], #8
        return ret;
    }

    Vector& operator=(const Vector& v)
    {
        for (int x = 0; x < N; x++ )
   d6264:	d1f9      	bne.n	d625a <_ZN3imu6VectorILh3EEaSERKS1_+0x8>
            p_vec[x] = v.p_vec[x];
        return *this;
    }
   d6266:	bd30      	pop	{r4, r5, pc}

000d6268 <_ZN15Adafruit_BNO0558getEventEP15sensors_event_tNS_22adafruit_vector_type_tE>:
 *  @param  vec_type
 *          specify the type of reading
 *  @return always returns true
 */
bool Adafruit_BNO055::getEvent(sensors_event_t *event, adafruit_vector_type_t vec_type)
{
   d6268:	b5f0      	push	{r4, r5, r6, r7, lr}
   d626a:	460c      	mov	r4, r1
  /* Clear the event */
  memset(event, 0, sizeof(sensors_event_t));
   d626c:	2724      	movs	r7, #36	; 0x24
 *  @param  vec_type
 *          specify the type of reading
 *  @return always returns true
 */
bool Adafruit_BNO055::getEvent(sensors_event_t *event, adafruit_vector_type_t vec_type)
{
   d626e:	b08d      	sub	sp, #52	; 0x34
  /* Clear the event */
  memset(event, 0, sizeof(sensors_event_t));
   d6270:	2100      	movs	r1, #0
 *  @param  vec_type
 *          specify the type of reading
 *  @return always returns true
 */
bool Adafruit_BNO055::getEvent(sensors_event_t *event, adafruit_vector_type_t vec_type)
{
   d6272:	4606      	mov	r6, r0
   d6274:	4615      	mov	r5, r2
  /* Clear the event */
  memset(event, 0, sizeof(sensors_event_t));
   d6276:	4620      	mov	r0, r4
   d6278:	463a      	mov	r2, r7
   d627a:	f004 f998 	bl	da5ae <memset>

  event->version = sizeof(sensors_event_t);
   d627e:	6027      	str	r7, [r4, #0]
  event->sensor_id = _sensorID;
   d6280:	68f3      	ldr	r3, [r6, #12]
   d6282:	6063      	str	r3, [r4, #4]
   d6284:	f001 fa92 	bl	d77ac <HAL_Timer_Get_Milli_Seconds>
template <uint8_t N> class Vector
{
public:
    Vector()
    {
        memset(p_vec, 0, sizeof(double)*N);
   d6288:	2218      	movs	r2, #24
  event->timestamp = millis();
   d628a:	6120      	str	r0, [r4, #16]
   d628c:	2100      	movs	r1, #0
   d628e:	4668      	mov	r0, sp
   d6290:	f004 f98d 	bl	da5ae <memset>

  //read the data according to vec_type
  imu::Vector<3> vec;
  if (vec_type == Adafruit_BNO055::VECTOR_LINEARACCEL)
   d6294:	2d28      	cmp	r5, #40	; 0x28
   d6296:	d101      	bne.n	d629c <_ZN15Adafruit_BNO0558getEventEP15sensors_event_tNS_22adafruit_vector_type_tE+0x34>
  {
    event->type = SENSOR_TYPE_LINEAR_ACCELERATION;
   d6298:	230a      	movs	r3, #10
   d629a:	e010      	b.n	d62be <_ZN15Adafruit_BNO0558getEventEP15sensors_event_tNS_22adafruit_vector_type_tE+0x56>

    event->acceleration.x = vec.x();
    event->acceleration.y = vec.y();
    event->acceleration.z = vec.z();
  }
  else if (vec_type == Adafruit_BNO055::VECTOR_ACCELEROMETER)
   d629c:	2d08      	cmp	r5, #8
   d629e:	d001      	beq.n	d62a4 <_ZN15Adafruit_BNO0558getEventEP15sensors_event_tNS_22adafruit_vector_type_tE+0x3c>

    event->acceleration.x = vec.x();
    event->acceleration.y = vec.y();
    event->acceleration.z = vec.z();
  }
  else if (vec_type == Adafruit_BNO055::VECTOR_GRAVITY)
   d62a0:	2d2e      	cmp	r5, #46	; 0x2e
   d62a2:	d101      	bne.n	d62a8 <_ZN15Adafruit_BNO0558getEventEP15sensors_event_tNS_22adafruit_vector_type_tE+0x40>
  {
    event->type = SENSOR_TYPE_ACCELEROMETER;
   d62a4:	2301      	movs	r3, #1
   d62a6:	e00a      	b.n	d62be <_ZN15Adafruit_BNO0558getEventEP15sensors_event_tNS_22adafruit_vector_type_tE+0x56>

    event->acceleration.x = vec.x();
    event->acceleration.y = vec.y();
    event->acceleration.z = vec.z();
  }
  else if (vec_type == Adafruit_BNO055::VECTOR_EULER)
   d62a8:	2d1a      	cmp	r5, #26
   d62aa:	d101      	bne.n	d62b0 <_ZN15Adafruit_BNO0558getEventEP15sensors_event_tNS_22adafruit_vector_type_tE+0x48>
  {
    event->type = SENSOR_TYPE_ORIENTATION;
   d62ac:	2303      	movs	r3, #3
   d62ae:	e006      	b.n	d62be <_ZN15Adafruit_BNO0558getEventEP15sensors_event_tNS_22adafruit_vector_type_tE+0x56>

    event->orientation.x = vec.x();
    event->orientation.y = vec.y();
    event->orientation.z = vec.z();
  }
  else if (vec_type == Adafruit_BNO055::VECTOR_GYROSCOPE)
   d62b0:	2d14      	cmp	r5, #20
   d62b2:	d101      	bne.n	d62b8 <_ZN15Adafruit_BNO0558getEventEP15sensors_event_tNS_22adafruit_vector_type_tE+0x50>
  {
    event->type = SENSOR_TYPE_ROTATION_VECTOR;
   d62b4:	230b      	movs	r3, #11
   d62b6:	e002      	b.n	d62be <_ZN15Adafruit_BNO0558getEventEP15sensors_event_tNS_22adafruit_vector_type_tE+0x56>

    event->gyro.x = vec.x();
    event->gyro.y = vec.y();
    event->gyro.z = vec.z();
  }
  else if (vec_type == Adafruit_BNO055::VECTOR_MAGNETOMETER)
   d62b8:	2d0e      	cmp	r5, #14
   d62ba:	d119      	bne.n	d62f0 <_ZN15Adafruit_BNO0558getEventEP15sensors_event_tNS_22adafruit_vector_type_tE+0x88>
  {
    event->type = SENSOR_TYPE_MAGNETIC_FIELD;
   d62bc:	2302      	movs	r3, #2
   d62be:	60a3      	str	r3, [r4, #8]
    vec = getVector(Adafruit_BNO055::VECTOR_MAGNETOMETER);
   d62c0:	462a      	mov	r2, r5
   d62c2:	4631      	mov	r1, r6
   d62c4:	a806      	add	r0, sp, #24
   d62c6:	f7ff ff2d 	bl	d6124 <_ZN15Adafruit_BNO0559getVectorENS_22adafruit_vector_type_tE>
   d62ca:	a906      	add	r1, sp, #24
   d62cc:	4668      	mov	r0, sp
   d62ce:	f7ff ffc0 	bl	d6252 <_ZN3imu6VectorILh3EEaSERKS1_>

    event->magnetic.x = vec.x();
   d62d2:	e9dd 0100 	ldrd	r0, r1, [sp]
   d62d6:	f004 f801 	bl	da2dc <__aeabi_d2f>
   d62da:	6160      	str	r0, [r4, #20]
    event->magnetic.y = vec.y();
   d62dc:	e9dd 0102 	ldrd	r0, r1, [sp, #8]
   d62e0:	f003 fffc 	bl	da2dc <__aeabi_d2f>
   d62e4:	61a0      	str	r0, [r4, #24]
    event->magnetic.z = vec.z();
   d62e6:	e9dd 0104 	ldrd	r0, r1, [sp, #16]
   d62ea:	f003 fff7 	bl	da2dc <__aeabi_d2f>
   d62ee:	61e0      	str	r0, [r4, #28]
  }
  

  return true;
}
   d62f0:	2001      	movs	r0, #1
   d62f2:	b00d      	add	sp, #52	; 0x34
   d62f4:	bdf0      	pop	{r4, r5, r6, r7, pc}

000d62f6 <_GLOBAL__sub_I__ZN15Adafruit_BNO055C2ElhP7TwoWire>:
   d62f6:	f001 ba71 	b.w	d77dc <HAL_Pin_Map>

000d62fa <_ZN12Adafruit_GFX8drawLineEsssst>:
}

// Bresenham's algorithm - thx wikpedia
void Adafruit_GFX::drawLine(int16_t x0, int16_t y0,
			    int16_t x1, int16_t y1,
			    uint16_t color) {
   d62fa:	e92d 4ff0 	stmdb	sp!, {r4, r5, r6, r7, r8, r9, sl, fp, lr}
   d62fe:	b085      	sub	sp, #20
   d6300:	461e      	mov	r6, r3
   d6302:	f9bd 3038 	ldrsh.w	r3, [sp, #56]	; 0x38
   d6306:	f8bd a03c 	ldrh.w	sl, [sp, #60]	; 0x3c
   d630a:	4615      	mov	r5, r2
  int16_t steep = abs(y1 - y0) > abs(x1 - x0);
   d630c:	1a9a      	subs	r2, r3, r2
   d630e:	2a00      	cmp	r2, #0
   d6310:	bfb8      	it	lt
   d6312:	4252      	neglt	r2, r2
   d6314:	9200      	str	r2, [sp, #0]
   d6316:	1a72      	subs	r2, r6, r1
   d6318:	2a00      	cmp	r2, #0
   d631a:	bfb8      	it	lt
   d631c:	4252      	neglt	r2, r2
   d631e:	9201      	str	r2, [sp, #4]
}

// Bresenham's algorithm - thx wikpedia
void Adafruit_GFX::drawLine(int16_t x0, int16_t y0,
			    int16_t x1, int16_t y1,
			    uint16_t color) {
   d6320:	460c      	mov	r4, r1
  int16_t steep = abs(y1 - y0) > abs(x1 - x0);
  if (steep) {
   d6322:	9a00      	ldr	r2, [sp, #0]
   d6324:	9901      	ldr	r1, [sp, #4]
   d6326:	428a      	cmp	r2, r1
}

// Bresenham's algorithm - thx wikpedia
void Adafruit_GFX::drawLine(int16_t x0, int16_t y0,
			    int16_t x1, int16_t y1,
			    uint16_t color) {
   d6328:	4681      	mov	r9, r0
  int16_t steep = abs(y1 - y0) > abs(x1 - x0);
  if (steep) {
   d632a:	dd05      	ble.n	d6338 <_ZN12Adafruit_GFX8drawLineEsssst+0x3e>
   d632c:	4632      	mov	r2, r6
    swap(x0, y0);
    swap(x1, y1);
   d632e:	461e      	mov	r6, r3
   d6330:	4613      	mov	r3, r2
// Bresenham's algorithm - thx wikpedia
void Adafruit_GFX::drawLine(int16_t x0, int16_t y0,
			    int16_t x1, int16_t y1,
			    uint16_t color) {
  int16_t steep = abs(y1 - y0) > abs(x1 - x0);
  if (steep) {
   d6332:	4622      	mov	r2, r4
    swap(x0, y0);
   d6334:	462c      	mov	r4, r5
   d6336:	4615      	mov	r5, r2
    swap(x1, y1);
  }

  if (x0 > x1) {
   d6338:	42b4      	cmp	r4, r6
   d633a:	dd05      	ble.n	d6348 <_ZN12Adafruit_GFX8drawLineEsssst+0x4e>
   d633c:	462a      	mov	r2, r5
    swap(x0, x1);
    swap(y0, y1);
   d633e:	461d      	mov	r5, r3
   d6340:	4613      	mov	r3, r2
  if (steep) {
    swap(x0, y0);
    swap(x1, y1);
  }

  if (x0 > x1) {
   d6342:	4622      	mov	r2, r4
   d6344:	4634      	mov	r4, r6
   d6346:	4616      	mov	r6, r2
    swap(y0, y1);
  }

  int16_t dx, dy;
  dx = x1 - x0;
  dy = abs(y1 - y0);
   d6348:	1b5a      	subs	r2, r3, r5
   d634a:	2a00      	cmp	r2, #0
   d634c:	bfb8      	it	lt
   d634e:	4252      	neglt	r2, r2
    swap(x0, x1);
    swap(y0, y1);
  }

  int16_t dx, dy;
  dx = x1 - x0;
   d6350:	ebc4 0806 	rsb	r8, r4, r6
  int16_t ystep;

  if (y0 < y1) {
    ystep = 1;
  } else {
    ystep = -1;
   d6354:	429d      	cmp	r5, r3
   d6356:	bfb4      	ite	lt
   d6358:	2301      	movlt	r3, #1
   d635a:	f04f 33ff 	movge.w	r3, #4294967295	; 0xffffffff
    swap(x0, x1);
    swap(y0, y1);
  }

  int16_t dx, dy;
  dx = x1 - x0;
   d635e:	fa1f f888 	uxth.w	r8, r8
  int16_t ystep;

  if (y0 < y1) {
    ystep = 1;
  } else {
    ystep = -1;
   d6362:	9302      	str	r3, [sp, #8]
    swap(y0, y1);
  }

  int16_t dx, dy;
  dx = x1 - x0;
  dy = abs(y1 - y0);
   d6364:	9203      	str	r2, [sp, #12]

  int16_t err = dx / 2;
   d6366:	fa0f f788 	sxth.w	r7, r8
   d636a:	2202      	movs	r2, #2
   d636c:	fb97 f7f2 	sdiv	r7, r7, r2
    ystep = 1;
  } else {
    ystep = -1;
  }

  for (; x0<=x1; x0++) {
   d6370:	42b4      	cmp	r4, r6
   d6372:	dc1f      	bgt.n	d63b4 <_ZN12Adafruit_GFX8drawLineEsssst+0xba>
    if (steep) {
   d6374:	9a01      	ldr	r2, [sp, #4]
   d6376:	9b00      	ldr	r3, [sp, #0]
   d6378:	4293      	cmp	r3, r2
   d637a:	f8d9 3000 	ldr.w	r3, [r9]
      drawPixel(y0, x0, color);
   d637e:	bfc8      	it	gt
   d6380:	4622      	movgt	r2, r4
   d6382:	f8d3 b010 	ldr.w	fp, [r3, #16]
   d6386:	bfc8      	it	gt
   d6388:	4629      	movgt	r1, r5
   d638a:	4653      	mov	r3, sl
    } else {
      drawPixel(x0, y0, color);
   d638c:	bfdc      	itt	le
   d638e:	462a      	movle	r2, r5
   d6390:	4621      	movle	r1, r4
   d6392:	4648      	mov	r0, r9
   d6394:	47d8      	blx	fp
    }
    err -= dy;
   d6396:	9b03      	ldr	r3, [sp, #12]
   d6398:	1aff      	subs	r7, r7, r3
   d639a:	b2bb      	uxth	r3, r7
   d639c:	b21f      	sxth	r7, r3
    if (err < 0) {
   d639e:	2f00      	cmp	r7, #0
   d63a0:	da05      	bge.n	d63ae <_ZN12Adafruit_GFX8drawLineEsssst+0xb4>
      y0 += ystep;
   d63a2:	9a02      	ldr	r2, [sp, #8]
      err += dx;
   d63a4:	eb08 0703 	add.w	r7, r8, r3
    } else {
      drawPixel(x0, y0, color);
    }
    err -= dy;
    if (err < 0) {
      y0 += ystep;
   d63a8:	4415      	add	r5, r2
   d63aa:	b22d      	sxth	r5, r5
      err += dx;
   d63ac:	b23f      	sxth	r7, r7
   d63ae:	3401      	adds	r4, #1
   d63b0:	b224      	sxth	r4, r4
    ystep = 1;
  } else {
    ystep = -1;
  }

  for (; x0<=x1; x0++) {
   d63b2:	e7dd      	b.n	d6370 <_ZN12Adafruit_GFX8drawLineEsssst+0x76>
    if (err < 0) {
      y0 += ystep;
      err += dx;
    }
  }
}
   d63b4:	b005      	add	sp, #20
   d63b6:	e8bd 8ff0 	ldmia.w	sp!, {r4, r5, r6, r7, r8, r9, sl, fp, pc}

000d63ba <_ZN12Adafruit_GFX8drawRectEsssst>:

// Draw a rectangle
void Adafruit_GFX::drawRect(int16_t x, int16_t y,
			    int16_t w, int16_t h,
			    uint16_t color) {
   d63ba:	e92d 47f3 	stmdb	sp!, {r0, r1, r4, r5, r6, r7, r8, r9, sl, lr}
   d63be:	f8bd 602c 	ldrh.w	r6, [sp, #44]	; 0x2c
  drawFastHLine(x, y, w, color);
   d63c2:	6807      	ldr	r7, [r0, #0]
}

// Draw a rectangle
void Adafruit_GFX::drawRect(int16_t x, int16_t y,
			    int16_t w, int16_t h,
			    uint16_t color) {
   d63c4:	f9bd a028 	ldrsh.w	sl, [sp, #40]	; 0x28
  drawFastHLine(x, y, w, color);
   d63c8:	9600      	str	r6, [sp, #0]
}

// Draw a rectangle
void Adafruit_GFX::drawRect(int16_t x, int16_t y,
			    int16_t w, int16_t h,
			    uint16_t color) {
   d63ca:	4604      	mov	r4, r0
  drawFastHLine(x, y, w, color);
   d63cc:	69ff      	ldr	r7, [r7, #28]
}

// Draw a rectangle
void Adafruit_GFX::drawRect(int16_t x, int16_t y,
			    int16_t w, int16_t h,
			    uint16_t color) {
   d63ce:	4691      	mov	r9, r2
   d63d0:	460d      	mov	r5, r1
   d63d2:	4698      	mov	r8, r3
  drawFastHLine(x, y, w, color);
   d63d4:	47b8      	blx	r7
  drawFastHLine(x, y+h-1, w, color);
   d63d6:	6823      	ldr	r3, [r4, #0]
   d63d8:	9600      	str	r6, [sp, #0]
   d63da:	f10a 32ff 	add.w	r2, sl, #4294967295	; 0xffffffff
   d63de:	444a      	add	r2, r9
   d63e0:	69df      	ldr	r7, [r3, #28]
   d63e2:	4629      	mov	r1, r5
   d63e4:	4643      	mov	r3, r8
   d63e6:	4620      	mov	r0, r4
   d63e8:	b212      	sxth	r2, r2
   d63ea:	47b8      	blx	r7
  drawFastVLine(x, y, h, color);
   d63ec:	6823      	ldr	r3, [r4, #0]
   d63ee:	9600      	str	r6, [sp, #0]
   d63f0:	699f      	ldr	r7, [r3, #24]
   d63f2:	464a      	mov	r2, r9
   d63f4:	4653      	mov	r3, sl
   d63f6:	4629      	mov	r1, r5
   d63f8:	4620      	mov	r0, r4
   d63fa:	47b8      	blx	r7
  drawFastVLine(x+w-1, y, h, color);
   d63fc:	6823      	ldr	r3, [r4, #0]
   d63fe:	960a      	str	r6, [sp, #40]	; 0x28
   d6400:	f108 31ff 	add.w	r1, r8, #4294967295	; 0xffffffff
   d6404:	4429      	add	r1, r5
   d6406:	699d      	ldr	r5, [r3, #24]
   d6408:	464a      	mov	r2, r9
   d640a:	4653      	mov	r3, sl
   d640c:	b209      	sxth	r1, r1
   d640e:	4620      	mov	r0, r4
   d6410:	46ac      	mov	ip, r5
}
   d6412:	b002      	add	sp, #8
   d6414:	e8bd 47f0 	ldmia.w	sp!, {r4, r5, r6, r7, r8, r9, sl, lr}
			    int16_t w, int16_t h,
			    uint16_t color) {
  drawFastHLine(x, y, w, color);
  drawFastHLine(x, y+h-1, w, color);
  drawFastVLine(x, y, h, color);
  drawFastVLine(x+w-1, y, h, color);
   d6418:	4760      	bx	ip

000d641a <_ZN12Adafruit_GFX13drawFastVLineEssst>:
}

void Adafruit_GFX::drawFastVLine(int16_t x, int16_t y,
				 int16_t h, uint16_t color) {
   d641a:	b537      	push	{r0, r1, r2, r4, r5, lr}
  // Update in subclasses if desired!
  drawLine(x, y, x, y+h-1, color);
   d641c:	3b01      	subs	r3, #1
   d641e:	4413      	add	r3, r2
   d6420:	6804      	ldr	r4, [r0, #0]
   d6422:	f8bd 5018 	ldrh.w	r5, [sp, #24]
   d6426:	9501      	str	r5, [sp, #4]
   d6428:	b21b      	sxth	r3, r3
   d642a:	9300      	str	r3, [sp, #0]
   d642c:	6964      	ldr	r4, [r4, #20]
   d642e:	460b      	mov	r3, r1
   d6430:	47a0      	blx	r4
}
   d6432:	b003      	add	sp, #12
   d6434:	bd30      	pop	{r4, r5, pc}

000d6436 <_ZN12Adafruit_GFX13drawFastHLineEssst>:

void Adafruit_GFX::drawFastHLine(int16_t x, int16_t y,
				 int16_t w, uint16_t color) {
   d6436:	b537      	push	{r0, r1, r2, r4, r5, lr}
  // Update in subclasses if desired!
  drawLine(x, y, x+w-1, y, color);
   d6438:	f8bd 5018 	ldrh.w	r5, [sp, #24]
   d643c:	6804      	ldr	r4, [r0, #0]
   d643e:	e88d 0024 	stmia.w	sp, {r2, r5}
   d6442:	3b01      	subs	r3, #1
   d6444:	440b      	add	r3, r1
   d6446:	6964      	ldr	r4, [r4, #20]
   d6448:	b21b      	sxth	r3, r3
   d644a:	47a0      	blx	r4
}
   d644c:	b003      	add	sp, #12
   d644e:	bd30      	pop	{r4, r5, pc}

000d6450 <_ZN12Adafruit_GFX8fillRectEsssst>:

void Adafruit_GFX::fillRect(int16_t x, int16_t y, int16_t w, int16_t h,
			    uint16_t color) {
   d6450:	e92d 47f3 	stmdb	sp!, {r0, r1, r4, r5, r6, r7, r8, r9, sl, lr}
   d6454:	f9bd 8028 	ldrsh.w	r8, [sp, #40]	; 0x28
   d6458:	f8bd 902c 	ldrh.w	r9, [sp, #44]	; 0x2c
   d645c:	4605      	mov	r5, r0
   d645e:	4617      	mov	r7, r2
  // Update in subclasses if desired!
  for (int16_t i=x; i<x+w; i++) {
   d6460:	460c      	mov	r4, r1
   d6462:	eb01 0a03 	add.w	sl, r1, r3
   d6466:	4554      	cmp	r4, sl
   d6468:	da0b      	bge.n	d6482 <_ZN12Adafruit_GFX8fillRectEsssst+0x32>
    drawFastVLine(i, y, h, color);
   d646a:	682b      	ldr	r3, [r5, #0]
   d646c:	f8cd 9000 	str.w	r9, [sp]
   d6470:	699e      	ldr	r6, [r3, #24]
   d6472:	4621      	mov	r1, r4
   d6474:	4643      	mov	r3, r8
   d6476:	463a      	mov	r2, r7
   d6478:	4628      	mov	r0, r5
   d647a:	3401      	adds	r4, #1
   d647c:	47b0      	blx	r6
   d647e:	b224      	sxth	r4, r4
}

void Adafruit_GFX::fillRect(int16_t x, int16_t y, int16_t w, int16_t h,
			    uint16_t color) {
  // Update in subclasses if desired!
  for (int16_t i=x; i<x+w; i++) {
   d6480:	e7f1      	b.n	d6466 <_ZN12Adafruit_GFX8fillRectEsssst+0x16>
    drawFastVLine(i, y, h, color);
  }
}
   d6482:	b002      	add	sp, #8
   d6484:	e8bd 87f0 	ldmia.w	sp!, {r4, r5, r6, r7, r8, r9, sl, pc}

000d6488 <_ZN12Adafruit_GFX10fillScreenEt>:

void Adafruit_GFX::fillScreen(uint16_t color) {
   d6488:	b513      	push	{r0, r1, r4, lr}
  fillRect(0, 0, _width, _height, color);
   d648a:	f9b0 200e 	ldrsh.w	r2, [r0, #14]
   d648e:	6804      	ldr	r4, [r0, #0]
   d6490:	9101      	str	r1, [sp, #4]
   d6492:	9200      	str	r2, [sp, #0]
   d6494:	2200      	movs	r2, #0
   d6496:	f9b0 300c 	ldrsh.w	r3, [r0, #12]
   d649a:	6a64      	ldr	r4, [r4, #36]	; 0x24
   d649c:	4611      	mov	r1, r2
   d649e:	47a0      	blx	r4
}
   d64a0:	b002      	add	sp, #8
   d64a2:	bd10      	pop	{r4, pc}

000d64a4 <_ZN12Adafruit_GFX13invertDisplayEb>:
 
int16_t Adafruit_GFX::height(void) {
  return _height;
}

void Adafruit_GFX::invertDisplay(boolean i) {
   d64a4:	4770      	bx	lr
	...

000d64a8 <_ZN12Adafruit_GFXC1Ess>:
	0x00, 0x19, 0x1D, 0x17, 0x12,
	0x00, 0x3C, 0x3C, 0x3C, 0x3C,
	0x00, 0x00, 0x00, 0x00, 0x00
};

Adafruit_GFX::Adafruit_GFX(int16_t w, int16_t h):
   d64a8:	b530      	push	{r4, r5, lr}
  WIDTH(w), HEIGHT(h)
   d64aa:	8101      	strh	r1, [r0, #8]
  protected:
    void setWriteError(int err = 1) { write_error = err; }
    size_t printf_impl(bool newline, const char* format, ...);

  public:
    Print() : write_error(0) {}
   d64ac:	2400      	movs	r4, #0
   d64ae:	4d08      	ldr	r5, [pc, #32]	; (d64d0 <_ZN12Adafruit_GFXC1Ess+0x28>)
   d64b0:	8142      	strh	r2, [r0, #10]
{
  _width    = WIDTH;
   d64b2:	8181      	strh	r1, [r0, #12]
  _height   = HEIGHT;
   d64b4:	81c2      	strh	r2, [r0, #14]
  rotation  = 0;
  cursor_y  = cursor_x    = 0;
  textsize  = 1;
  textcolor = textbgcolor = 0xFFFF;
   d64b6:	f64f 71ff 	movw	r1, #65535	; 0xffff
{
  _width    = WIDTH;
  _height   = HEIGHT;
  rotation  = 0;
  cursor_y  = cursor_x    = 0;
  textsize  = 1;
   d64ba:	2201      	movs	r2, #1
   d64bc:	6044      	str	r4, [r0, #4]
	0x00, 0x3C, 0x3C, 0x3C, 0x3C,
	0x00, 0x00, 0x00, 0x00, 0x00
};

Adafruit_GFX::Adafruit_GFX(int16_t w, int16_t h):
  WIDTH(w), HEIGHT(h)
   d64be:	6005      	str	r5, [r0, #0]
{
  _width    = WIDTH;
  _height   = HEIGHT;
  rotation  = 0;
   d64c0:	7644      	strb	r4, [r0, #25]
  cursor_y  = cursor_x    = 0;
   d64c2:	8204      	strh	r4, [r0, #16]
   d64c4:	8244      	strh	r4, [r0, #18]
  textsize  = 1;
   d64c6:	7602      	strb	r2, [r0, #24]
  textcolor = textbgcolor = 0xFFFF;
   d64c8:	82c1      	strh	r1, [r0, #22]
   d64ca:	8281      	strh	r1, [r0, #20]
  wrap      = true;
   d64cc:	7682      	strb	r2, [r0, #26]
}
   d64ce:	bd30      	pop	{r4, r5, pc}
   d64d0:	000db14c 	.word	0x000db14c

000d64d4 <_ZN12Adafruit_GFX8drawCharEsshtth>:
  return 1;
}

// Draw a character
void Adafruit_GFX::drawChar(int16_t x, int16_t y, unsigned char c,
			    uint16_t color, uint16_t bg, uint8_t size) {
   d64d4:	e92d 4ff0 	stmdb	sp!, {r4, r5, r6, r7, r8, r9, sl, fp, lr}
   d64d8:	b08f      	sub	sp, #60	; 0x3c
   d64da:	4605      	mov	r5, r0
   d64dc:	9106      	str	r1, [sp, #24]
   d64de:	f8bd 1060 	ldrh.w	r1, [sp, #96]	; 0x60
   d64e2:	9107      	str	r1, [sp, #28]
   d64e4:	f8bd 1064 	ldrh.w	r1, [sp, #100]	; 0x64
   d64e8:	9108      	str	r1, [sp, #32]

  if((x >= _width)            || // Clip right
   d64ea:	f9b0 100c 	ldrsh.w	r1, [r0, #12]
   d64ee:	9806      	ldr	r0, [sp, #24]
  return 1;
}

// Draw a character
void Adafruit_GFX::drawChar(int16_t x, int16_t y, unsigned char c,
			    uint16_t color, uint16_t bg, uint8_t size) {
   d64f0:	f89d 8068 	ldrb.w	r8, [sp, #104]	; 0x68

  if((x >= _width)            || // Clip right
   d64f4:	4281      	cmp	r1, r0
   d64f6:	dd7c      	ble.n	d65f2 <_ZN12Adafruit_GFX8drawCharEsshtth+0x11e>
   d64f8:	f9b5 100e 	ldrsh.w	r1, [r5, #14]
   d64fc:	4291      	cmp	r1, r2
   d64fe:	dd78      	ble.n	d65f2 <_ZN12Adafruit_GFX8drawCharEsshtth+0x11e>
     (y >= _height)           || // Clip bottom
     ((x + 6 * size - 1) < 0) || // Clip left
   d6500:	2106      	movs	r1, #6
// Draw a character
void Adafruit_GFX::drawChar(int16_t x, int16_t y, unsigned char c,
			    uint16_t color, uint16_t bg, uint8_t size) {

  if((x >= _width)            || // Clip right
     (y >= _height)           || // Clip bottom
   d6502:	fb11 0008 	smlabb	r0, r1, r8, r0
   d6506:	2800      	cmp	r0, #0
   d6508:	dd73      	ble.n	d65f2 <_ZN12Adafruit_GFX8drawCharEsshtth+0x11e>
     ((x + 6 * size - 1) < 0) || // Clip left
   d650a:	eb02 00c8 	add.w	r0, r2, r8, lsl #3
   d650e:	2800      	cmp	r0, #0
   d6510:	dd6f      	ble.n	d65f2 <_ZN12Adafruit_GFX8drawCharEsshtth+0x11e>
  for (int8_t i=0; i<6; i++ ) {
    uint8_t line;
    if (i == 5) 
      line = 0x0;
    else 
      line = pgm_read_byte(font+(c*5)+i);
   d6512:	eb03 0383 	add.w	r3, r3, r3, lsl #2
   d6516:	b296      	uxth	r6, r2
   d6518:	930c      	str	r3, [sp, #48]	; 0x30
   d651a:	f106 0308 	add.w	r3, r6, #8
   d651e:	b29b      	uxth	r3, r3
   d6520:	9109      	str	r1, [sp, #36]	; 0x24
   d6522:	2400      	movs	r4, #0
   d6524:	930d      	str	r3, [sp, #52]	; 0x34
     ((y + 8 * size - 1) < 0))   // Clip top
    return;

  for (int8_t i=0; i<6; i++ ) {
    uint8_t line;
    if (i == 5) 
   d6526:	2c05      	cmp	r4, #5
      line = 0x0;
    else 
      line = pgm_read_byte(font+(c*5)+i);
   d6528:	bf1c      	itt	ne
   d652a:	4b33      	ldrne	r3, [pc, #204]	; (d65f8 <_ZN12Adafruit_GFX8drawCharEsshtth+0x124>)
   d652c:	9a0c      	ldrne	r2, [sp, #48]	; 0x30
    for (int8_t j = 0; j<8; j++) {
      if (line & 0x1) {
        if (size == 1) // default size
          drawPixel(x+i, y+j, color);
        else {  // big size
          fillRect(x+(i*size), y+(j*size), size, size, color);
   d652e:	9605      	str	r6, [sp, #20]
  for (int8_t i=0; i<6; i++ ) {
    uint8_t line;
    if (i == 5) 
      line = 0x0;
    else 
      line = pgm_read_byte(font+(c*5)+i);
   d6530:	bf16      	itet	ne
   d6532:	191b      	addne	r3, r3, r4
    return;

  for (int8_t i=0; i<6; i++ ) {
    uint8_t line;
    if (i == 5) 
      line = 0x0;
   d6534:	f04f 0900 	moveq.w	r9, #0
    else 
      line = pgm_read_byte(font+(c*5)+i);
   d6538:	f813 9002 	ldrbne.w	r9, [r3, r2]
    for (int8_t j = 0; j<8; j++) {
      if (line & 0x1) {
        if (size == 1) // default size
          drawPixel(x+i, y+j, color);
        else {  // big size
          fillRect(x+(i*size), y+(j*size), size, size, color);
   d653c:	9604      	str	r6, [sp, #16]
   d653e:	fa1f f388 	uxth.w	r3, r8
   d6542:	9303      	str	r3, [sp, #12]
   d6544:	9a03      	ldr	r2, [sp, #12]
   d6546:	f8bd 3018 	ldrh.w	r3, [sp, #24]
   d654a:	fb04 3202 	mla	r2, r4, r2, r3
        } 
      } else if (bg != color) {
        if (size == 1) // default size
          drawPixel(x+i, y+j, bg);
   d654e:	fa13 f384 	uxtah	r3, r3, r4
    for (int8_t j = 0; j<8; j++) {
      if (line & 0x1) {
        if (size == 1) // default size
          drawPixel(x+i, y+j, color);
        else {  // big size
          fillRect(x+(i*size), y+(j*size), size, size, color);
   d6552:	b212      	sxth	r2, r2
        } 
      } else if (bg != color) {
        if (size == 1) // default size
          drawPixel(x+i, y+j, bg);
   d6554:	b21b      	sxth	r3, r3
    for (int8_t j = 0; j<8; j++) {
      if (line & 0x1) {
        if (size == 1) // default size
          drawPixel(x+i, y+j, color);
        else {  // big size
          fillRect(x+(i*size), y+(j*size), size, size, color);
   d6556:	920a      	str	r2, [sp, #40]	; 0x28
   d6558:	4637      	mov	r7, r6
        } 
      } else if (bg != color) {
        if (size == 1) // default size
          drawPixel(x+i, y+j, bg);
        else {  // big size
          fillRect(x+i*size, y+j*size, size, size, bg);
   d655a:	fa0f fa88 	sxth.w	sl, r8
        else {  // big size
          fillRect(x+(i*size), y+(j*size), size, size, color);
        } 
      } else if (bg != color) {
        if (size == 1) // default size
          drawPixel(x+i, y+j, bg);
   d655e:	930b      	str	r3, [sp, #44]	; 0x2c
    if (i == 5) 
      line = 0x0;
    else 
      line = pgm_read_byte(font+(c*5)+i);
    for (int8_t j = 0; j<8; j++) {
      if (line & 0x1) {
   d6560:	f019 0f01 	tst.w	r9, #1
   d6564:	d011      	beq.n	d658a <_ZN12Adafruit_GFX8drawCharEsshtth+0xb6>
        if (size == 1) // default size
   d6566:	f1b8 0f01 	cmp.w	r8, #1
   d656a:	682b      	ldr	r3, [r5, #0]
   d656c:	d103      	bne.n	d6576 <_ZN12Adafruit_GFX8drawCharEsshtth+0xa2>
          drawPixel(x+i, y+j, color);
   d656e:	f8d3 b010 	ldr.w	fp, [r3, #16]
   d6572:	9b07      	ldr	r3, [sp, #28]
   d6574:	e014      	b.n	d65a0 <_ZN12Adafruit_GFX8drawCharEsshtth+0xcc>
        else {  // big size
          fillRect(x+(i*size), y+(j*size), size, size, color);
   d6576:	9a07      	ldr	r2, [sp, #28]
   d6578:	9201      	str	r2, [sp, #4]
   d657a:	f8cd a000 	str.w	sl, [sp]
   d657e:	f8d3 b024 	ldr.w	fp, [r3, #36]	; 0x24
   d6582:	f9bd 2010 	ldrsh.w	r2, [sp, #16]
   d6586:	4653      	mov	r3, sl
   d6588:	e018      	b.n	d65bc <_ZN12Adafruit_GFX8drawCharEsshtth+0xe8>
        } 
      } else if (bg != color) {
   d658a:	9b07      	ldr	r3, [sp, #28]
   d658c:	9a08      	ldr	r2, [sp, #32]
   d658e:	4293      	cmp	r3, r2
   d6590:	d017      	beq.n	d65c2 <_ZN12Adafruit_GFX8drawCharEsshtth+0xee>
        if (size == 1) // default size
   d6592:	f1b8 0f01 	cmp.w	r8, #1
   d6596:	682b      	ldr	r3, [r5, #0]
   d6598:	d107      	bne.n	d65aa <_ZN12Adafruit_GFX8drawCharEsshtth+0xd6>
          drawPixel(x+i, y+j, bg);
   d659a:	f8d3 b010 	ldr.w	fp, [r3, #16]
   d659e:	4613      	mov	r3, r2
   d65a0:	b23a      	sxth	r2, r7
   d65a2:	990b      	ldr	r1, [sp, #44]	; 0x2c
   d65a4:	4628      	mov	r0, r5
   d65a6:	47d8      	blx	fp
   d65a8:	e00b      	b.n	d65c2 <_ZN12Adafruit_GFX8drawCharEsshtth+0xee>
        else {  // big size
          fillRect(x+i*size, y+j*size, size, size, bg);
   d65aa:	9a08      	ldr	r2, [sp, #32]
   d65ac:	9201      	str	r2, [sp, #4]
   d65ae:	f8cd a000 	str.w	sl, [sp]
   d65b2:	f9bd 2014 	ldrsh.w	r2, [sp, #20]
   d65b6:	f8d3 b024 	ldr.w	fp, [r3, #36]	; 0x24
   d65ba:	4653      	mov	r3, sl
   d65bc:	990a      	ldr	r1, [sp, #40]	; 0x28
   d65be:	4628      	mov	r0, r5
   d65c0:	47d8      	blx	fp
   d65c2:	9b04      	ldr	r3, [sp, #16]
   d65c4:	9a03      	ldr	r2, [sp, #12]
   d65c6:	4413      	add	r3, r2
   d65c8:	b29b      	uxth	r3, r3
   d65ca:	9304      	str	r3, [sp, #16]
   d65cc:	9b05      	ldr	r3, [sp, #20]
   d65ce:	4413      	add	r3, r2
   d65d0:	b29b      	uxth	r3, r3
   d65d2:	3701      	adds	r7, #1
   d65d4:	9305      	str	r3, [sp, #20]
    uint8_t line;
    if (i == 5) 
      line = 0x0;
    else 
      line = pgm_read_byte(font+(c*5)+i);
    for (int8_t j = 0; j<8; j++) {
   d65d6:	9b0d      	ldr	r3, [sp, #52]	; 0x34
   d65d8:	b2bf      	uxth	r7, r7
   d65da:	429f      	cmp	r7, r3
          drawPixel(x+i, y+j, bg);
        else {  // big size
          fillRect(x+i*size, y+j*size, size, size, bg);
        }
      }
      line >>= 1;
   d65dc:	ea4f 0959 	mov.w	r9, r9, lsr #1
    uint8_t line;
    if (i == 5) 
      line = 0x0;
    else 
      line = pgm_read_byte(font+(c*5)+i);
    for (int8_t j = 0; j<8; j++) {
   d65e0:	d1be      	bne.n	d6560 <_ZN12Adafruit_GFX8drawCharEsshtth+0x8c>
   d65e2:	9b09      	ldr	r3, [sp, #36]	; 0x24
   d65e4:	3b01      	subs	r3, #1
     (y >= _height)           || // Clip bottom
     ((x + 6 * size - 1) < 0) || // Clip left
     ((y + 8 * size - 1) < 0))   // Clip top
    return;

  for (int8_t i=0; i<6; i++ ) {
   d65e6:	3401      	adds	r4, #1
   d65e8:	f013 03ff 	ands.w	r3, r3, #255	; 0xff
   d65ec:	b264      	sxtb	r4, r4
   d65ee:	9309      	str	r3, [sp, #36]	; 0x24
   d65f0:	d199      	bne.n	d6526 <_ZN12Adafruit_GFX8drawCharEsshtth+0x52>
        }
      }
      line >>= 1;
    }
  }
}
   d65f2:	b00f      	add	sp, #60	; 0x3c
   d65f4:	e8bd 8ff0 	ldmia.w	sp!, {r4, r5, r6, r7, r8, r9, sl, fp, pc}
   d65f8:	000db17c 	.word	0x000db17c

000d65fc <_ZN12Adafruit_GFX5writeEh>:
      }
    }
  }
}

size_t Adafruit_GFX::write(uint8_t c) {
   d65fc:	b530      	push	{r4, r5, lr}

  if (c == '\n') {
   d65fe:	290a      	cmp	r1, #10
      }
    }
  }
}

size_t Adafruit_GFX::write(uint8_t c) {
   d6600:	b085      	sub	sp, #20
   d6602:	4604      	mov	r4, r0
   d6604:	460b      	mov	r3, r1

  if (c == '\n') {
   d6606:	d104      	bne.n	d6612 <_ZN12Adafruit_GFX5writeEh+0x16>
    cursor_y += textsize*8;
   d6608:	7e02      	ldrb	r2, [r0, #24]
   d660a:	8a43      	ldrh	r3, [r0, #18]
   d660c:	eb03 03c2 	add.w	r3, r3, r2, lsl #3
   d6610:	e023      	b.n	d665a <_ZN12Adafruit_GFX5writeEh+0x5e>
    cursor_x  = 0;
  } else if (c == '\r') {
   d6612:	290d      	cmp	r1, #13
   d6614:	d024      	beq.n	d6660 <_ZN12Adafruit_GFX5writeEh+0x64>
    // skip em
  } else {
    drawChar(cursor_x, cursor_y, c, textcolor, textbgcolor, textsize);
   d6616:	7e05      	ldrb	r5, [r0, #24]
   d6618:	f9b0 2012 	ldrsh.w	r2, [r0, #18]
   d661c:	f9b0 1010 	ldrsh.w	r1, [r0, #16]
   d6620:	9502      	str	r5, [sp, #8]
   d6622:	8ac5      	ldrh	r5, [r0, #22]
   d6624:	9501      	str	r5, [sp, #4]
   d6626:	8a85      	ldrh	r5, [r0, #20]
   d6628:	9500      	str	r5, [sp, #0]
   d662a:	f7ff ff53 	bl	d64d4 <_ZN12Adafruit_GFX8drawCharEsshtth>
    cursor_x += textsize*6;
   d662e:	7e22      	ldrb	r2, [r4, #24]
   d6630:	8a23      	ldrh	r3, [r4, #16]
   d6632:	b291      	uxth	r1, r2
   d6634:	eb01 0041 	add.w	r0, r1, r1, lsl #1
   d6638:	eb03 0340 	add.w	r3, r3, r0, lsl #1
    if (wrap && (cursor_x > (_width - textsize*6))) {
   d663c:	7ea0      	ldrb	r0, [r4, #26]
    cursor_x  = 0;
  } else if (c == '\r') {
    // skip em
  } else {
    drawChar(cursor_x, cursor_y, c, textcolor, textbgcolor, textsize);
    cursor_x += textsize*6;
   d663e:	b21b      	sxth	r3, r3
   d6640:	8223      	strh	r3, [r4, #16]
    if (wrap && (cursor_x > (_width - textsize*6))) {
   d6642:	b168      	cbz	r0, d6660 <_ZN12Adafruit_GFX5writeEh+0x64>
   d6644:	f9b4 000c 	ldrsh.w	r0, [r4, #12]
   d6648:	f06f 0505 	mvn.w	r5, #5
   d664c:	fb05 0202 	mla	r2, r5, r2, r0
   d6650:	4293      	cmp	r3, r2
   d6652:	dd05      	ble.n	d6660 <_ZN12Adafruit_GFX5writeEh+0x64>
      cursor_y += textsize*8;
   d6654:	8a63      	ldrh	r3, [r4, #18]
   d6656:	eb03 03c1 	add.w	r3, r3, r1, lsl #3
   d665a:	8263      	strh	r3, [r4, #18]
      cursor_x = 0;
   d665c:	2300      	movs	r3, #0
   d665e:	8223      	strh	r3, [r4, #16]
    }
  }
  return 1;
}
   d6660:	2001      	movs	r0, #1
   d6662:	b005      	add	sp, #20
   d6664:	bd30      	pop	{r4, r5, pc}

000d6666 <_ZN12Adafruit_GFX9setCursorEss>:
    }
  }
}

void Adafruit_GFX::setCursor(int16_t x, int16_t y) {
  cursor_x = x;
   d6666:	8201      	strh	r1, [r0, #16]
  cursor_y = y;
   d6668:	8242      	strh	r2, [r0, #18]
   d666a:	4770      	bx	lr

000d666c <_ZN12Adafruit_GFX12setTextColorEt>:
}

void Adafruit_GFX::setTextColor(uint16_t c) {
  // For 'transparent' background, we'll set the bg 
  // to the same as fg instead of using a flag
  textcolor = textbgcolor = c;
   d666c:	82c1      	strh	r1, [r0, #22]
   d666e:	8281      	strh	r1, [r0, #20]
   d6670:	4770      	bx	lr

000d6672 <_ZN12Adafruit_GFX11setTextWrapEb>:
  textcolor   = c;
  textbgcolor = b; 
}

void Adafruit_GFX::setTextWrap(boolean w) {
  wrap = w;
   d6672:	7681      	strb	r1, [r0, #26]
   d6674:	4770      	bx	lr

000d6676 <_ZN12Adafruit_GFX5widthEv>:
}

// Return the size of the display (per current rotation)
int16_t Adafruit_GFX::width(void) {
  return _width;
}
   d6676:	f9b0 000c 	ldrsh.w	r0, [r0, #12]
   d667a:	4770      	bx	lr

000d667c <_GLOBAL__sub_I__ZN12Adafruit_GFXC2Ess>:
   d667c:	f001 b8ae 	b.w	d77dc <HAL_Pin_Map>

000d6680 <_GLOBAL__sub_I_Adafruit_SensorRK.cpp>:
   d6680:	f001 b8ac 	b.w	d77dc <HAL_Pin_Map>

000d6684 <_GLOBAL__sub_I_feedBufferLock>:
  spiwrite(0x00);
  digitalWrite(_dcs, HIGH);  
#ifdef SPI_HAS_TRANSACTION
  if (useHardwareSPI) SPI.endTransaction();
#endif
}
   d6684:	b508      	push	{r3, lr}
   d6686:	f001 f8a9 	bl	d77dc <HAL_Pin_Map>
   d668a:	4b01      	ldr	r3, [pc, #4]	; (d6690 <_GLOBAL__sub_I_feedBufferLock+0xc>)
   d668c:	6018      	str	r0, [r3, #0]
   d668e:	bd08      	pop	{r3, pc}
   d6690:	2003e364 	.word	0x2003e364

000d6694 <_GLOBAL__sub_I_CellularHelper.cpp>:
   d6694:	f001 b8a2 	b.w	d77dc <HAL_Pin_Map>

000d6698 <_ZN10JsonBufferD1Ev>:


JsonBuffer::JsonBuffer()  : buffer(0), bufferLen(0), offset(0), staticBuffers(false) {

}
JsonBuffer::~JsonBuffer() {
   d6698:	b510      	push	{r4, lr}
   d669a:	4b05      	ldr	r3, [pc, #20]	; (d66b0 <_ZN10JsonBufferD1Ev+0x18>)
   d669c:	6003      	str	r3, [r0, #0]
	if (!staticBuffers && buffer) {
   d669e:	7c03      	ldrb	r3, [r0, #16]


JsonBuffer::JsonBuffer()  : buffer(0), bufferLen(0), offset(0), staticBuffers(false) {

}
JsonBuffer::~JsonBuffer() {
   d66a0:	4604      	mov	r4, r0
	if (!staticBuffers && buffer) {
   d66a2:	b91b      	cbnz	r3, d66ac <_ZN10JsonBufferD1Ev+0x14>
   d66a4:	6840      	ldr	r0, [r0, #4]
   d66a6:	b108      	cbz	r0, d66ac <_ZN10JsonBufferD1Ev+0x14>
		free(buffer);
   d66a8:	f001 fb0c 	bl	d7cc4 <free>
	}
}
   d66ac:	4620      	mov	r0, r4
   d66ae:	bd10      	pop	{r4, pc}
   d66b0:	000db680 	.word	0x000db680

000d66b4 <_ZN10JsonBufferD0Ev>:


JsonBuffer::JsonBuffer()  : buffer(0), bufferLen(0), offset(0), staticBuffers(false) {

}
JsonBuffer::~JsonBuffer() {
   d66b4:	b510      	push	{r4, lr}
   d66b6:	4604      	mov	r4, r0
	if (!staticBuffers && buffer) {
		free(buffer);
	}
}
   d66b8:	f7ff ffee 	bl	d6698 <_ZN10JsonBufferD1Ev>
   d66bc:	4620      	mov	r0, r4
   d66be:	2114      	movs	r1, #20
   d66c0:	f003 f8dd 	bl	d987e <_ZdlPvj>
   d66c4:	4620      	mov	r0, r4
   d66c6:	bd10      	pop	{r4, pc}

000d66c8 <_ZN10JsonParserD1Ev>:
		JsonBuffer(buffer, bufferLen), tokens(tokens), maxTokens(maxTokens) {

}


JsonParser::~JsonParser() {
   d66c8:	b510      	push	{r4, lr}
   d66ca:	4b07      	ldr	r3, [pc, #28]	; (d66e8 <_ZN10JsonParserD1Ev+0x20>)
   d66cc:	6003      	str	r3, [r0, #0]
	if (!staticBuffers && tokens) {
   d66ce:	7c03      	ldrb	r3, [r0, #16]
		JsonBuffer(buffer, bufferLen), tokens(tokens), maxTokens(maxTokens) {

}


JsonParser::~JsonParser() {
   d66d0:	4604      	mov	r4, r0
	if (!staticBuffers && tokens) {
   d66d2:	b91b      	cbnz	r3, d66dc <_ZN10JsonParserD1Ev+0x14>
   d66d4:	6940      	ldr	r0, [r0, #20]
   d66d6:	b108      	cbz	r0, d66dc <_ZN10JsonParserD1Ev+0x14>
		free(tokens);
   d66d8:	f001 faf4 	bl	d7cc4 <free>
		JsonBuffer(buffer, bufferLen), tokens(tokens), maxTokens(maxTokens) {

}


JsonParser::~JsonParser() {
   d66dc:	4620      	mov	r0, r4
   d66de:	f7ff ffdb 	bl	d6698 <_ZN10JsonBufferD1Ev>
	if (!staticBuffers && tokens) {
		free(tokens);
	}
}
   d66e2:	4620      	mov	r0, r4
   d66e4:	bd10      	pop	{r4, pc}
   d66e6:	bf00      	nop
   d66e8:	000db6c0 	.word	0x000db6c0

000d66ec <_ZN10JsonParserD0Ev>:
		JsonBuffer(buffer, bufferLen), tokens(tokens), maxTokens(maxTokens) {

}


JsonParser::~JsonParser() {
   d66ec:	b510      	push	{r4, lr}
   d66ee:	4604      	mov	r4, r0
	if (!staticBuffers && tokens) {
		free(tokens);
	}
}
   d66f0:	f7ff ffea 	bl	d66c8 <_ZN10JsonParserD1Ev>
   d66f4:	4620      	mov	r0, r4
   d66f6:	212c      	movs	r1, #44	; 0x2c
   d66f8:	f003 f8c1 	bl	d987e <_ZdlPvj>
   d66fc:	4620      	mov	r0, r4
   d66fe:	bd10      	pop	{r4, pc}

000d6700 <_ZN10JsonBuffer8allocateEj>:

JsonBuffer::JsonBuffer(char *buffer, size_t bufferLen)  : buffer(buffer), bufferLen(bufferLen), offset(0), staticBuffers(true) {

}

bool JsonBuffer::allocate(size_t len) {
   d6700:	b538      	push	{r3, r4, r5, lr}
	if (!staticBuffers) {
   d6702:	7c03      	ldrb	r3, [r0, #16]

JsonBuffer::JsonBuffer(char *buffer, size_t bufferLen)  : buffer(buffer), bufferLen(bufferLen), offset(0), staticBuffers(true) {

}

bool JsonBuffer::allocate(size_t len) {
   d6704:	4604      	mov	r4, r0
   d6706:	460d      	mov	r5, r1
	if (!staticBuffers) {
   d6708:	b10b      	cbz	r3, d670e <_ZN10JsonBuffer8allocateEj+0xe>
		else {
			return false;
		}
	}
	else {
		return false;
   d670a:	2000      	movs	r0, #0
   d670c:	bd38      	pop	{r3, r4, r5, pc}
}

bool JsonBuffer::allocate(size_t len) {
	if (!staticBuffers) {
		char *newBuffer;
		if (buffer) {
   d670e:	6840      	ldr	r0, [r0, #4]
   d6710:	b110      	cbz	r0, d6718 <_ZN10JsonBuffer8allocateEj+0x18>
			newBuffer = (char *) realloc(buffer, len);
   d6712:	f001 fadf 	bl	d7cd4 <realloc>
   d6716:	e002      	b.n	d671e <_ZN10JsonBuffer8allocateEj+0x1e>
		}
		else {
			newBuffer = (char *) malloc(len);
   d6718:	4608      	mov	r0, r1
   d671a:	f001 facb 	bl	d7cb4 <malloc>
		}
		if (newBuffer) {
   d671e:	2800      	cmp	r0, #0
   d6720:	d0f3      	beq.n	d670a <_ZN10JsonBuffer8allocateEj+0xa>
			buffer = newBuffer;
   d6722:	6060      	str	r0, [r4, #4]
			bufferLen = len;
   d6724:	60a5      	str	r5, [r4, #8]
			return true;
   d6726:	2001      	movs	r0, #1
		}
	}
	else {
		return false;
	}
}
   d6728:	bd38      	pop	{r3, r4, r5, pc}

000d672a <_ZN10JsonBuffer7addDataEPKcj>:

bool JsonBuffer::addData(const char *data, size_t dataLen) {
   d672a:	b570      	push	{r4, r5, r6, lr}
	if (!buffer || (offset + dataLen) > bufferLen) {
   d672c:	6843      	ldr	r3, [r0, #4]
	else {
		return false;
	}
}

bool JsonBuffer::addData(const char *data, size_t dataLen) {
   d672e:	460e      	mov	r6, r1
   d6730:	4604      	mov	r4, r0
   d6732:	4615      	mov	r5, r2
   d6734:	68c1      	ldr	r1, [r0, #12]
	if (!buffer || (offset + dataLen) > bufferLen) {
   d6736:	b17b      	cbz	r3, d6758 <_ZN10JsonBuffer7addDataEPKcj+0x2e>
   d6738:	1853      	adds	r3, r2, r1
   d673a:	6882      	ldr	r2, [r0, #8]
   d673c:	4293      	cmp	r3, r2
   d673e:	d80b      	bhi.n	d6758 <_ZN10JsonBuffer7addDataEPKcj+0x2e>
		if (!allocate(offset + dataLen)) {
			return false;
		}
	}

	memcpy(&buffer[offset], data, dataLen);
   d6740:	68e3      	ldr	r3, [r4, #12]
   d6742:	6860      	ldr	r0, [r4, #4]
   d6744:	462a      	mov	r2, r5
   d6746:	4631      	mov	r1, r6
   d6748:	4418      	add	r0, r3
   d674a:	f003 ff25 	bl	da598 <memcpy>
	offset += dataLen;
   d674e:	68e3      	ldr	r3, [r4, #12]
   d6750:	441d      	add	r5, r3
   d6752:	60e5      	str	r5, [r4, #12]

	return true;
   d6754:	2001      	movs	r0, #1
   d6756:	bd70      	pop	{r4, r5, r6, pc}
}

bool JsonBuffer::addData(const char *data, size_t dataLen) {
	if (!buffer || (offset + dataLen) > bufferLen) {
		// Need to allocate more space for data
		if (!allocate(offset + dataLen)) {
   d6758:	4429      	add	r1, r5
   d675a:	4620      	mov	r0, r4
   d675c:	f7ff ffd0 	bl	d6700 <_ZN10JsonBuffer8allocateEj>
   d6760:	2800      	cmp	r0, #0
   d6762:	d1ed      	bne.n	d6740 <_ZN10JsonBuffer7addDataEPKcj+0x16>

	memcpy(&buffer[offset], data, dataLen);
	offset += dataLen;

	return true;
}
   d6764:	bd70      	pop	{r4, r5, r6, pc}

000d6766 <_ZN10JsonBuffer5clearEv>:

void JsonBuffer::clear() {
	offset = 0;
   d6766:	2300      	movs	r3, #0
   d6768:	60c3      	str	r3, [r0, #12]
   d676a:	4770      	bx	lr

000d676c <_ZN10JsonParserC1EPcjPN21JsonParserGeneratorRK9jsmntok_tEj>:
//

JsonParser::JsonParser() : JsonBuffer(), tokens(0), maxTokens(0) {
}

JsonParser::JsonParser(char *buffer, size_t bufferLen, JsonParserGeneratorRK::jsmntok_t *tokens, size_t maxTokens) :
   d676c:	b510      	push	{r4, lr}
	if (!staticBuffers && buffer) {
		free(buffer);
	}
}

JsonBuffer::JsonBuffer(char *buffer, size_t bufferLen)  : buffer(buffer), bufferLen(bufferLen), offset(0), staticBuffers(true) {
   d676e:	6082      	str	r2, [r0, #8]
   d6770:	2200      	movs	r2, #0
   d6772:	60c2      	str	r2, [r0, #12]
   d6774:	2201      	movs	r2, #1
   d6776:	7402      	strb	r2, [r0, #16]

JsonParser::JsonParser() : JsonBuffer(), tokens(0), maxTokens(0) {
}

JsonParser::JsonParser(char *buffer, size_t bufferLen, JsonParserGeneratorRK::jsmntok_t *tokens, size_t maxTokens) :
		JsonBuffer(buffer, bufferLen), tokens(tokens), maxTokens(maxTokens) {
   d6778:	6143      	str	r3, [r0, #20]
   d677a:	4a03      	ldr	r2, [pc, #12]	; (d6788 <_ZN10JsonParserC1EPcjPN21JsonParserGeneratorRK9jsmntok_tEj+0x1c>)
   d677c:	9b02      	ldr	r3, [sp, #8]
	if (!staticBuffers && buffer) {
		free(buffer);
	}
}

JsonBuffer::JsonBuffer(char *buffer, size_t bufferLen)  : buffer(buffer), bufferLen(bufferLen), offset(0), staticBuffers(true) {
   d677e:	6041      	str	r1, [r0, #4]

JsonParser::JsonParser() : JsonBuffer(), tokens(0), maxTokens(0) {
}

JsonParser::JsonParser(char *buffer, size_t bufferLen, JsonParserGeneratorRK::jsmntok_t *tokens, size_t maxTokens) :
		JsonBuffer(buffer, bufferLen), tokens(tokens), maxTokens(maxTokens) {
   d6780:	6002      	str	r2, [r0, #0]
   d6782:	61c3      	str	r3, [r0, #28]

}
   d6784:	bd10      	pop	{r4, pc}
   d6786:	bf00      	nop
   d6788:	000db6c0 	.word	0x000db6c0

000d678c <_ZNK10JsonParser14getOuterObjectEv>:
	return 0;
}


const JsonParserGeneratorRK::jsmntok_t *JsonParser::getOuterObject() const {
	if (tokens < tokensEnd && tokens[0].type == JsonParserGeneratorRK::JSMN_OBJECT) {
   d678c:	6943      	ldr	r3, [r0, #20]
   d678e:	6982      	ldr	r2, [r0, #24]
   d6790:	4293      	cmp	r3, r2
   d6792:	d205      	bcs.n	d67a0 <_ZNK10JsonParser14getOuterObjectEv+0x14>
   d6794:	781a      	ldrb	r2, [r3, #0]
   d6796:	2a01      	cmp	r2, #1
   d6798:	bf0c      	ite	eq
   d679a:	4618      	moveq	r0, r3
   d679c:	2000      	movne	r0, #0
   d679e:	4770      	bx	lr
		return &tokens[0];
	}
	else {
		return 0;
   d67a0:	2000      	movs	r0, #0
	}
}
   d67a2:	4770      	bx	lr

000d67a4 <_ZNK10JsonParser10skipObjectEPKN21JsonParserGeneratorRK9jsmntok_tERS3_>:
	}
	return 0;
}


bool JsonParser::skipObject(const JsonParserGeneratorRK::jsmntok_t *container, const JsonParserGeneratorRK::jsmntok_t *&obj) const {
   d67a4:	b570      	push	{r4, r5, r6, lr}
	int curObjectEnd = obj->end;
   d67a6:	6813      	ldr	r3, [r2, #0]
   d67a8:	689d      	ldr	r5, [r3, #8]

	while(++obj < tokensEnd && obj->end < container->end && obj->end <= curObjectEnd) {
   d67aa:	6813      	ldr	r3, [r2, #0]
   d67ac:	f103 0410 	add.w	r4, r3, #16
   d67b0:	6014      	str	r4, [r2, #0]
   d67b2:	6986      	ldr	r6, [r0, #24]
   d67b4:	42b4      	cmp	r4, r6
   d67b6:	d20a      	bcs.n	d67ce <_ZNK10JsonParser10skipObjectEPKN21JsonParserGeneratorRK9jsmntok_tERS3_+0x2a>
   d67b8:	699b      	ldr	r3, [r3, #24]
   d67ba:	688c      	ldr	r4, [r1, #8]
   d67bc:	42a3      	cmp	r3, r4
   d67be:	da01      	bge.n	d67c4 <_ZNK10JsonParser10skipObjectEPKN21JsonParserGeneratorRK9jsmntok_tERS3_+0x20>
   d67c0:	429d      	cmp	r5, r3
   d67c2:	daf2      	bge.n	d67aa <_ZNK10JsonParser10skipObjectEPKN21JsonParserGeneratorRK9jsmntok_tERS3_+0x6>
	}

	if (obj >= tokensEnd || obj->end > container->end) {
   d67c4:	42a3      	cmp	r3, r4
   d67c6:	bfcc      	ite	gt
   d67c8:	2000      	movgt	r0, #0
   d67ca:	2001      	movle	r0, #1
   d67cc:	bd70      	pop	{r4, r5, r6, pc}
		// No object after index
		return false;
   d67ce:	2000      	movs	r0, #0
	}
	return true;
}
   d67d0:	bd70      	pop	{r4, r5, r6, pc}

000d67d2 <_ZNK10JsonParser23getKeyValueTokenByIndexEPKN21JsonParserGeneratorRK9jsmntok_tERS3_S4_j>:

bool JsonParser::getKeyValueTokenByIndex(const JsonParserGeneratorRK::jsmntok_t *container, const JsonParserGeneratorRK::jsmntok_t *&key, const JsonParserGeneratorRK::jsmntok_t *&value, size_t desiredIndex) const {
   d67d2:	e92d 47f3 	stmdb	sp!, {r0, r1, r4, r5, r6, r7, r8, r9, sl, lr}

	size_t index = 0;
	const JsonParserGeneratorRK::jsmntok_t *token = container + 1;
   d67d6:	ad02      	add	r5, sp, #8
		return false;
	}
	return true;
}

bool JsonParser::getKeyValueTokenByIndex(const JsonParserGeneratorRK::jsmntok_t *container, const JsonParserGeneratorRK::jsmntok_t *&key, const JsonParserGeneratorRK::jsmntok_t *&value, size_t desiredIndex) const {
   d67d8:	469a      	mov	sl, r3

	size_t index = 0;
	const JsonParserGeneratorRK::jsmntok_t *token = container + 1;
   d67da:	f101 0310 	add.w	r3, r1, #16
		return false;
	}
	return true;
}

bool JsonParser::getKeyValueTokenByIndex(const JsonParserGeneratorRK::jsmntok_t *container, const JsonParserGeneratorRK::jsmntok_t *&key, const JsonParserGeneratorRK::jsmntok_t *&value, size_t desiredIndex) const {
   d67de:	9e0a      	ldr	r6, [sp, #40]	; 0x28

	size_t index = 0;
	const JsonParserGeneratorRK::jsmntok_t *token = container + 1;
   d67e0:	f845 3d04 	str.w	r3, [r5, #-4]!
		return false;
	}
	return true;
}

bool JsonParser::getKeyValueTokenByIndex(const JsonParserGeneratorRK::jsmntok_t *container, const JsonParserGeneratorRK::jsmntok_t *&key, const JsonParserGeneratorRK::jsmntok_t *&value, size_t desiredIndex) const {
   d67e4:	4607      	mov	r7, r0
   d67e6:	460c      	mov	r4, r1
   d67e8:	4691      	mov	r9, r2

	size_t index = 0;
   d67ea:	f04f 0800 	mov.w	r8, #0
	const JsonParserGeneratorRK::jsmntok_t *token = container + 1;

	while(token < tokensEnd && token->end < container->end) {
   d67ee:	9b01      	ldr	r3, [sp, #4]
   d67f0:	69ba      	ldr	r2, [r7, #24]
   d67f2:	429a      	cmp	r2, r3
   d67f4:	d91e      	bls.n	d6834 <_ZNK10JsonParser23getKeyValueTokenByIndexEPKN21JsonParserGeneratorRK9jsmntok_tERS3_S4_j+0x62>
   d67f6:	6899      	ldr	r1, [r3, #8]
   d67f8:	68a2      	ldr	r2, [r4, #8]
   d67fa:	4291      	cmp	r1, r2
   d67fc:	da1a      	bge.n	d6834 <_ZNK10JsonParser23getKeyValueTokenByIndexEPKN21JsonParserGeneratorRK9jsmntok_tERS3_S4_j+0x62>
		if (desiredIndex == index) {
   d67fe:	45b0      	cmp	r8, r6
   d6800:	d10b      	bne.n	d681a <_ZNK10JsonParser23getKeyValueTokenByIndexEPKN21JsonParserGeneratorRK9jsmntok_tERS3_S4_j+0x48>
			key = token;
   d6802:	f8c9 3000 	str.w	r3, [r9]
			if (skipObject(container, token)) {
   d6806:	462a      	mov	r2, r5
   d6808:	4621      	mov	r1, r4
   d680a:	4638      	mov	r0, r7
   d680c:	f7ff ffca 	bl	d67a4 <_ZNK10JsonParser10skipObjectEPKN21JsonParserGeneratorRK9jsmntok_tERS3_>
   d6810:	b118      	cbz	r0, d681a <_ZNK10JsonParser23getKeyValueTokenByIndexEPKN21JsonParserGeneratorRK9jsmntok_tERS3_S4_j+0x48>
				value = token;
   d6812:	9b01      	ldr	r3, [sp, #4]
   d6814:	f8ca 3000 	str.w	r3, [sl]
				return true;
   d6818:	e00d      	b.n	d6836 <_ZNK10JsonParser23getKeyValueTokenByIndexEPKN21JsonParserGeneratorRK9jsmntok_tERS3_S4_j+0x64>
			}
		}
		index++;
		skipObject(container, token);
   d681a:	462a      	mov	r2, r5
   d681c:	4621      	mov	r1, r4
   d681e:	4638      	mov	r0, r7
   d6820:	f7ff ffc0 	bl	d67a4 <_ZNK10JsonParser10skipObjectEPKN21JsonParserGeneratorRK9jsmntok_tERS3_>
		skipObject(container, token);
   d6824:	462a      	mov	r2, r5
   d6826:	4621      	mov	r1, r4
   d6828:	4638      	mov	r0, r7
			if (skipObject(container, token)) {
				value = token;
				return true;
			}
		}
		index++;
   d682a:	f108 0801 	add.w	r8, r8, #1
		skipObject(container, token);
		skipObject(container, token);
   d682e:	f7ff ffb9 	bl	d67a4 <_ZNK10JsonParser10skipObjectEPKN21JsonParserGeneratorRK9jsmntok_tERS3_>
bool JsonParser::getKeyValueTokenByIndex(const JsonParserGeneratorRK::jsmntok_t *container, const JsonParserGeneratorRK::jsmntok_t *&key, const JsonParserGeneratorRK::jsmntok_t *&value, size_t desiredIndex) const {

	size_t index = 0;
	const JsonParserGeneratorRK::jsmntok_t *token = container + 1;

	while(token < tokensEnd && token->end < container->end) {
   d6832:	e7dc      	b.n	d67ee <_ZNK10JsonParser23getKeyValueTokenByIndexEPKN21JsonParserGeneratorRK9jsmntok_tERS3_S4_j+0x1c>
		index++;
		skipObject(container, token);
		skipObject(container, token);
	}

	return false;
   d6834:	2000      	movs	r0, #0
}
   d6836:	b002      	add	sp, #8
   d6838:	e8bd 87f0 	ldmia.w	sp!, {r4, r5, r6, r7, r8, r9, sl, pc}

000d683c <_ZN16JsonParserString6appendEc>:
	if (buf && bufLen) {
		memset(buf, 0, bufLen);
	}
}

void JsonParserString::append(char ch) {
   d683c:	b538      	push	{r3, r4, r5, lr}
   d683e:	4604      	mov	r4, r0
	if (str) {
   d6840:	6800      	ldr	r0, [r0, #0]
	if (buf && bufLen) {
		memset(buf, 0, bufLen);
	}
}

void JsonParserString::append(char ch) {
   d6842:	460d      	mov	r5, r1
	if (str) {
   d6844:	b110      	cbz	r0, d684c <_ZN16JsonParserString6appendEc+0x10>
		str->concat(ch);
   d6846:	f002 f995 	bl	d8b74 <_ZN6String6concatEc>
   d684a:	e007      	b.n	d685c <_ZN16JsonParserString6appendEc+0x20>
		length++;
	}
	else {
		if (buf && length < (bufLen - 1)) {
   d684c:	6861      	ldr	r1, [r4, #4]
   d684e:	b129      	cbz	r1, d685c <_ZN16JsonParserString6appendEc+0x20>
   d6850:	68a3      	ldr	r3, [r4, #8]
   d6852:	68e2      	ldr	r2, [r4, #12]
   d6854:	3b01      	subs	r3, #1
   d6856:	429a      	cmp	r2, r3
			buf[length] = ch;
   d6858:	bf38      	it	cc
   d685a:	548d      	strbcc	r5, [r1, r2]
		}
		length++;
   d685c:	68e3      	ldr	r3, [r4, #12]
   d685e:	3301      	adds	r3, #1
   d6860:	60e3      	str	r3, [r4, #12]
   d6862:	bd38      	pop	{r3, r4, r5, pc}

000d6864 <_ZN10JsonParser10appendUtf8EtR16JsonParserString>:
// [static]
void JsonParser::appendUtf8(uint16_t unicode, JsonParserString &str) {

	unsigned char value;

	if (unicode <= 0x007f) {
   d6864:	287f      	cmp	r0, #127	; 0x7f
	return true;
}


// [static]
void JsonParser::appendUtf8(uint16_t unicode, JsonParserString &str) {
   d6866:	b570      	push	{r4, r5, r6, lr}
   d6868:	460c      	mov	r4, r1

	unsigned char value;

	if (unicode <= 0x007f) {
   d686a:	d801      	bhi.n	d6870 <_ZN10JsonParser10appendUtf8EtR16JsonParserString+0xc>
		// 0x00000000 - 0x0000007F:
		str.append((char)unicode);
   d686c:	b2c1      	uxtb	r1, r0
   d686e:	e019      	b.n	d68a4 <_ZN10JsonParser10appendUtf8EtR16JsonParserString+0x40>
	}
	else
	if (unicode <= 0x7ff) {
   d6870:	f5b0 6f00 	cmp.w	r0, #2048	; 0x800
   d6874:	ea4f 15a0 	mov.w	r5, r0, asr #6
   d6878:	f000 063f 	and.w	r6, r0, #63	; 0x3f
   d687c:	d203      	bcs.n	d6886 <_ZN10JsonParser10appendUtf8EtR16JsonParserString+0x22>
		// 0x00000080 - 0x000007FF:
		// 110xxxxx 10xxxxxx

		value = (0b11000000 | ((unicode >> 6) & 0b11111));
		str.append((char)value);
   d687e:	f065 013f 	orn	r1, r5, #63	; 0x3f
   d6882:	b2c9      	uxtb	r1, r1
   d6884:	e009      	b.n	d689a <_ZN10JsonParser10appendUtf8EtR16JsonParserString+0x36>
	}
	else {
		// 0x00000800 - 0x0000FFFF:
		// 1110xxxx 10xxxxxx 10xxxxxx
		value = 0b11100000 | ((unicode >> 12) & 0b1111);
		str.append((char)value);
   d6886:	0b01      	lsrs	r1, r0, #12
   d6888:	f041 01e0 	orr.w	r1, r1, #224	; 0xe0
   d688c:	4620      	mov	r0, r4
   d688e:	f7ff ffd5 	bl	d683c <_ZN16JsonParserString6appendEc>

		value = 0b10000000 | ((unicode >> 6) & 0b111111);
		str.append((char)value);
   d6892:	f005 013f 	and.w	r1, r5, #63	; 0x3f
   d6896:	f041 0180 	orr.w	r1, r1, #128	; 0x80
   d689a:	4620      	mov	r0, r4
   d689c:	f7ff ffce 	bl	d683c <_ZN16JsonParserString6appendEc>

		value = 0b10000000 | (unicode & 0b111111);
		str.append((char)value);
   d68a0:	f046 0180 	orr.w	r1, r6, #128	; 0x80
   d68a4:	4620      	mov	r0, r4
	}
}
   d68a6:	e8bd 4070 	ldmia.w	sp!, {r4, r5, r6, lr}

		value = 0b10000000 | ((unicode >> 6) & 0b111111);
		str.append((char)value);

		value = 0b10000000 | (unicode & 0b111111);
		str.append((char)value);
   d68aa:	f7ff bfc7 	b.w	d683c <_ZN16JsonParserString6appendEc>
	...

000d68b0 <_ZNK10JsonParser13getTokenValueEPKN21JsonParserGeneratorRK9jsmntok_tER16JsonParserString>:
	bufLen = strWrapper.getLength() + 1;
	return result;
}


bool JsonParser::getTokenValue(const JsonParserGeneratorRK::jsmntok_t *token, JsonParserString &str) const {
   d68b0:	e92d 41ff 	stmdb	sp!, {r0, r1, r2, r3, r4, r5, r6, r7, r8, lr}

	int unicode;
	bool escape = false;

	for(int ii = token->start; ii < token->end; ii++) {
   d68b4:	684d      	ldr	r5, [r1, #4]
	bufLen = strWrapper.getLength() + 1;
	return result;
}


bool JsonParser::getTokenValue(const JsonParserGeneratorRK::jsmntok_t *token, JsonParserString &str) const {
   d68b6:	4680      	mov	r8, r0
   d68b8:	460f      	mov	r7, r1
   d68ba:	4616      	mov	r6, r2

	int unicode;
	bool escape = false;
   d68bc:	2400      	movs	r4, #0

	for(int ii = token->start; ii < token->end; ii++) {
   d68be:	68b8      	ldr	r0, [r7, #8]
   d68c0:	4285      	cmp	r5, r0
   d68c2:	da46      	bge.n	d6952 <_ZNK10JsonParser13getTokenValueEPKN21JsonParserGeneratorRK9jsmntok_tER16JsonParserString+0xa2>
   d68c4:	f8d8 3004 	ldr.w	r3, [r8, #4]
		if (escape) {
   d68c8:	b3cc      	cbz	r4, d693e <_ZNK10JsonParser13getTokenValueEPKN21JsonParserGeneratorRK9jsmntok_tER16JsonParserString+0x8e>
			escape = false;
			switch(buffer[ii]) {
   d68ca:	5d59      	ldrb	r1, [r3, r5]
   d68cc:	296e      	cmp	r1, #110	; 0x6e
   d68ce:	eb03 0205 	add.w	r2, r3, r5
   d68d2:	d00f      	beq.n	d68f4 <_ZNK10JsonParser13getTokenValueEPKN21JsonParserGeneratorRK9jsmntok_tER16JsonParserString+0x44>
   d68d4:	d805      	bhi.n	d68e2 <_ZNK10JsonParser13getTokenValueEPKN21JsonParserGeneratorRK9jsmntok_tER16JsonParserString+0x32>
   d68d6:	2962      	cmp	r1, #98	; 0x62
   d68d8:	d00a      	beq.n	d68f0 <_ZNK10JsonParser13getTokenValueEPKN21JsonParserGeneratorRK9jsmntok_tER16JsonParserString+0x40>
   d68da:	2966      	cmp	r1, #102	; 0x66
   d68dc:	d10b      	bne.n	d68f6 <_ZNK10JsonParser13getTokenValueEPKN21JsonParserGeneratorRK9jsmntok_tER16JsonParserString+0x46>
			case 'b':
				str.append('\b');
				break;

			case 'f':
				str.append('\f');
   d68de:	210c      	movs	r1, #12
   d68e0:	e009      	b.n	d68f6 <_ZNK10JsonParser13getTokenValueEPKN21JsonParserGeneratorRK9jsmntok_tER16JsonParserString+0x46>
	bool escape = false;

	for(int ii = token->start; ii < token->end; ii++) {
		if (escape) {
			escape = false;
			switch(buffer[ii]) {
   d68e2:	2974      	cmp	r1, #116	; 0x74
   d68e4:	d00e      	beq.n	d6904 <_ZNK10JsonParser13getTokenValueEPKN21JsonParserGeneratorRK9jsmntok_tER16JsonParserString+0x54>
   d68e6:	2975      	cmp	r1, #117	; 0x75
   d68e8:	d00e      	beq.n	d6908 <_ZNK10JsonParser13getTokenValueEPKN21JsonParserGeneratorRK9jsmntok_tER16JsonParserString+0x58>
   d68ea:	2972      	cmp	r1, #114	; 0x72
   d68ec:	d103      	bne.n	d68f6 <_ZNK10JsonParser13getTokenValueEPKN21JsonParserGeneratorRK9jsmntok_tER16JsonParserString+0x46>
   d68ee:	e007      	b.n	d6900 <_ZNK10JsonParser13getTokenValueEPKN21JsonParserGeneratorRK9jsmntok_tER16JsonParserString+0x50>
			case 'b':
				str.append('\b');
   d68f0:	2108      	movs	r1, #8
   d68f2:	e000      	b.n	d68f6 <_ZNK10JsonParser13getTokenValueEPKN21JsonParserGeneratorRK9jsmntok_tER16JsonParserString+0x46>
			case 'f':
				str.append('\f');
				break;

			case 'n':
				str.append('\n');
   d68f4:	210a      	movs	r1, #10
			case 'b':
				str.append('\b');
				break;

			case 'f':
				str.append('\f');
   d68f6:	4630      	mov	r0, r6
   d68f8:	f7ff ffa0 	bl	d683c <_ZN16JsonParserString6appendEc>
	int unicode;
	bool escape = false;

	for(int ii = token->start; ii < token->end; ii++) {
		if (escape) {
			escape = false;
   d68fc:	2400      	movs	r4, #0
				str.append('\b');
				break;

			case 'f':
				str.append('\f');
				break;
   d68fe:	e026      	b.n	d694e <_ZNK10JsonParser13getTokenValueEPKN21JsonParserGeneratorRK9jsmntok_tER16JsonParserString+0x9e>
			case 'n':
				str.append('\n');
				break;

			case 'r':
				str.append('\r');
   d6900:	210d      	movs	r1, #13
   d6902:	e7f8      	b.n	d68f6 <_ZNK10JsonParser13getTokenValueEPKN21JsonParserGeneratorRK9jsmntok_tER16JsonParserString+0x46>
				break;

			case 't':
				str.append('\t');
   d6904:	2109      	movs	r1, #9
   d6906:	e7f6      	b.n	d68f6 <_ZNK10JsonParser13getTokenValueEPKN21JsonParserGeneratorRK9jsmntok_tER16JsonParserString+0x46>
				break;

			case 'u':
				if ((ii + 4) < token->end) {
   d6908:	1d2b      	adds	r3, r5, #4
   d690a:	4298      	cmp	r0, r3
   d690c:	ddf6      	ble.n	d68fc <_ZNK10JsonParser13getTokenValueEPKN21JsonParserGeneratorRK9jsmntok_tER16JsonParserString+0x4c>
   d690e:	2300      	movs	r3, #0
					// Copy data here because buffer is not null terminated and this could
					// read past the end otherwise
					char tmp[5];
					for(size_t jj = 0; jj < 4; jj++) {
						tmp[jj] = buffer[ii + jj + 1];
   d6910:	a802      	add	r0, sp, #8
   d6912:	f812 1f01 	ldrb.w	r1, [r2, #1]!
   d6916:	5419      	strb	r1, [r3, r0]
			case 'u':
				if ((ii + 4) < token->end) {
					// Copy data here because buffer is not null terminated and this could
					// read past the end otherwise
					char tmp[5];
					for(size_t jj = 0; jj < 4; jj++) {
   d6918:	3301      	adds	r3, #1
   d691a:	2b04      	cmp	r3, #4
   d691c:	d1f8      	bne.n	d6910 <_ZNK10JsonParser13getTokenValueEPKN21JsonParserGeneratorRK9jsmntok_tER16JsonParserString+0x60>
						tmp[jj] = buffer[ii + jj + 1];
					}
					tmp[4] = 0;
   d691e:	2300      	movs	r3, #0
					if (sscanf(tmp, "%04x", &unicode) == 1) {
   d6920:	aa01      	add	r2, sp, #4
   d6922:	490e      	ldr	r1, [pc, #56]	; (d695c <_ZNK10JsonParser13getTokenValueEPKN21JsonParserGeneratorRK9jsmntok_tER16JsonParserString+0xac>)
					// read past the end otherwise
					char tmp[5];
					for(size_t jj = 0; jj < 4; jj++) {
						tmp[jj] = buffer[ii + jj + 1];
					}
					tmp[4] = 0;
   d6924:	f88d 300c 	strb.w	r3, [sp, #12]
					if (sscanf(tmp, "%04x", &unicode) == 1) {
   d6928:	f001 f9e4 	bl	d7cf4 <sscanf>
   d692c:	2801      	cmp	r0, #1
   d692e:	d1e5      	bne.n	d68fc <_ZNK10JsonParser13getTokenValueEPKN21JsonParserGeneratorRK9jsmntok_tER16JsonParserString+0x4c>
						appendUtf8((uint16_t)unicode, str);
   d6930:	4631      	mov	r1, r6
   d6932:	f8bd 0004 	ldrh.w	r0, [sp, #4]
   d6936:	f7ff ff95 	bl	d6864 <_ZN10JsonParser10appendUtf8EtR16JsonParserString>
						ii += 5; // also increments in loop
   d693a:	3505      	adds	r5, #5
   d693c:	e7de      	b.n	d68fc <_ZNK10JsonParser13getTokenValueEPKN21JsonParserGeneratorRK9jsmntok_tER16JsonParserString+0x4c>
				str.append(buffer[ii]);
				break;
			}
		}
		else
		if (buffer[ii] == '\\') {
   d693e:	5d59      	ldrb	r1, [r3, r5]
   d6940:	295c      	cmp	r1, #92	; 0x5c
   d6942:	d003      	beq.n	d694c <_ZNK10JsonParser13getTokenValueEPKN21JsonParserGeneratorRK9jsmntok_tER16JsonParserString+0x9c>
			escape = true;
		}
		else {
			str.append(buffer[ii]);
   d6944:	4630      	mov	r0, r6
   d6946:	f7ff ff79 	bl	d683c <_ZN16JsonParserString6appendEc>
   d694a:	e000      	b.n	d694e <_ZNK10JsonParser13getTokenValueEPKN21JsonParserGeneratorRK9jsmntok_tER16JsonParserString+0x9e>
				break;
			}
		}
		else
		if (buffer[ii] == '\\') {
			escape = true;
   d694c:	2401      	movs	r4, #1
bool JsonParser::getTokenValue(const JsonParserGeneratorRK::jsmntok_t *token, JsonParserString &str) const {

	int unicode;
	bool escape = false;

	for(int ii = token->start; ii < token->end; ii++) {
   d694e:	3501      	adds	r5, #1
   d6950:	e7b5      	b.n	d68be <_ZNK10JsonParser13getTokenValueEPKN21JsonParserGeneratorRK9jsmntok_tER16JsonParserString+0xe>
			str.append(buffer[ii]);
		}
	}

	return true;
}
   d6952:	2001      	movs	r0, #1
   d6954:	b004      	add	sp, #16
   d6956:	e8bd 81f0 	ldmia.w	sp!, {r4, r5, r6, r7, r8, pc}
   d695a:	bf00      	nop
   d695c:	000db68c 	.word	0x000db68c

000d6960 <_ZNK10JsonParser13getTokenValueEPKN21JsonParserGeneratorRK9jsmntok_tER6String>:
	return true;
}



bool JsonParser::getTokenValue(const JsonParserGeneratorRK::jsmntok_t *token, String &result) const {
   d6960:	b57f      	push	{r0, r1, r2, r3, r4, r5, r6, lr}
   d6962:	460c      	mov	r4, r1
   d6964:	4606      	mov	r6, r0

	result = "";
   d6966:	490c      	ldr	r1, [pc, #48]	; (d6998 <_ZNK10JsonParser13getTokenValueEPKN21JsonParserGeneratorRK9jsmntok_tER6String+0x38>)
   d6968:	4610      	mov	r0, r2
	return true;
}



bool JsonParser::getTokenValue(const JsonParserGeneratorRK::jsmntok_t *token, String &result) const {
   d696a:	4615      	mov	r5, r2

	result = "";
   d696c:	f002 f8da 	bl	d8b24 <_ZN6StringaSEPKc>
	result.reserve(token->end - token->start + 1);
   d6970:	68a3      	ldr	r3, [r4, #8]
   d6972:	6861      	ldr	r1, [r4, #4]
   d6974:	1a59      	subs	r1, r3, r1
   d6976:	3101      	adds	r1, #1
   d6978:	4628      	mov	r0, r5
   d697a:	f002 f858 	bl	d8a2e <_ZN6String7reserveEj>


//
//
//
JsonParserString::JsonParserString(String *str) : str(str), buf(0), bufLen(0), length(0){
   d697e:	2300      	movs	r3, #0

	result = "";
	result.reserve(token->end - token->start + 1);

	JsonParserString strWrapper(&result);
	return getTokenValue(token, strWrapper);
   d6980:	466a      	mov	r2, sp
   d6982:	4621      	mov	r1, r4
   d6984:	4630      	mov	r0, r6


//
//
//
JsonParserString::JsonParserString(String *str) : str(str), buf(0), bufLen(0), length(0){
   d6986:	9500      	str	r5, [sp, #0]
   d6988:	9301      	str	r3, [sp, #4]
   d698a:	9302      	str	r3, [sp, #8]
   d698c:	9303      	str	r3, [sp, #12]

	result = "";
	result.reserve(token->end - token->start + 1);

	JsonParserString strWrapper(&result);
	return getTokenValue(token, strWrapper);
   d698e:	f7ff ff8f 	bl	d68b0 <_ZNK10JsonParser13getTokenValueEPKN21JsonParserGeneratorRK9jsmntok_tER16JsonParserString>
}
   d6992:	b004      	add	sp, #16
   d6994:	bd70      	pop	{r4, r5, r6, pc}
   d6996:	bf00      	nop
   d6998:	000dbc20 	.word	0x000dbc20

000d699c <_ZNK10JsonParser18getValueTokenByKeyEPKN21JsonParserGeneratorRK9jsmntok_tEPKcRS3_>:

	return false;
}


bool JsonParser::getValueTokenByKey(const JsonParserGeneratorRK::jsmntok_t *container, const char *name, const JsonParserGeneratorRK::jsmntok_t *&value) const {
   d699c:	e92d 43f0 	stmdb	sp!, {r4, r5, r6, r7, r8, r9, lr}
   d69a0:	b089      	sub	sp, #36	; 0x24
   d69a2:	4606      	mov	r6, r0
   d69a4:	460f      	mov	r7, r1

	const JsonParserGeneratorRK::jsmntok_t *key;
	String keyName;
   d69a6:	a804      	add	r0, sp, #16
   d69a8:	4911      	ldr	r1, [pc, #68]	; (d69f0 <_ZNK10JsonParser18getValueTokenByKeyEPKN21JsonParserGeneratorRK9jsmntok_tEPKcRS3_+0x54>)

	return false;
}


bool JsonParser::getValueTokenByKey(const JsonParserGeneratorRK::jsmntok_t *container, const char *name, const JsonParserGeneratorRK::jsmntok_t *&value) const {
   d69aa:	4690      	mov	r8, r2
   d69ac:	4699      	mov	r9, r3

	const JsonParserGeneratorRK::jsmntok_t *key;
	String keyName;
   d69ae:	f002 f867 	bl	d8a80 <_ZN6StringC1EPK19__FlashStringHelper>

	for(size_t ii = 0; getKeyValueTokenByIndex(container, key, value, ii); ii++) {
   d69b2:	2500      	movs	r5, #0
   d69b4:	9500      	str	r5, [sp, #0]
   d69b6:	464b      	mov	r3, r9
   d69b8:	aa03      	add	r2, sp, #12
   d69ba:	4639      	mov	r1, r7
   d69bc:	4630      	mov	r0, r6
   d69be:	f7ff ff08 	bl	d67d2 <_ZNK10JsonParser23getKeyValueTokenByIndexEPKN21JsonParserGeneratorRK9jsmntok_tERS3_S4_j>
   d69c2:	4604      	mov	r4, r0
   d69c4:	b168      	cbz	r0, d69e2 <_ZNK10JsonParser18getValueTokenByKeyEPKN21JsonParserGeneratorRK9jsmntok_tEPKcRS3_+0x46>
		if (getTokenValue(key, keyName) && keyName == name) {
   d69c6:	aa04      	add	r2, sp, #16
   d69c8:	9903      	ldr	r1, [sp, #12]
   d69ca:	4630      	mov	r0, r6
   d69cc:	f7ff ffc8 	bl	d6960 <_ZNK10JsonParser13getTokenValueEPKN21JsonParserGeneratorRK9jsmntok_tER6String>
   d69d0:	4604      	mov	r4, r0
   d69d2:	b120      	cbz	r0, d69de <_ZNK10JsonParser18getValueTokenByKeyEPKN21JsonParserGeneratorRK9jsmntok_tEPKcRS3_+0x42>
	operator StringIfHelperType() const { return buffer ? &String::StringIfHelper : 0; }
	int compareTo(const String &s) const;
	unsigned char equals(const String &s) const;
	unsigned char equals(const char *cstr) const;
	unsigned char operator == (const String &rhs) const {return equals(rhs);}
	unsigned char operator == (const char *cstr) const {return equals(cstr);}
   d69d4:	4641      	mov	r1, r8
   d69d6:	a804      	add	r0, sp, #16
   d69d8:	f002 f8f7 	bl	d8bca <_ZNK6String6equalsEPKc>
   d69dc:	b908      	cbnz	r0, d69e2 <_ZNK10JsonParser18getValueTokenByKeyEPKN21JsonParserGeneratorRK9jsmntok_tEPKcRS3_+0x46>
bool JsonParser::getValueTokenByKey(const JsonParserGeneratorRK::jsmntok_t *container, const char *name, const JsonParserGeneratorRK::jsmntok_t *&value) const {

	const JsonParserGeneratorRK::jsmntok_t *key;
	String keyName;

	for(size_t ii = 0; getKeyValueTokenByIndex(container, key, value, ii); ii++) {
   d69de:	3501      	adds	r5, #1
   d69e0:	e7e8      	b.n	d69b4 <_ZNK10JsonParser18getValueTokenByKeyEPKN21JsonParserGeneratorRK9jsmntok_tEPKcRS3_+0x18>


bool JsonParser::getValueTokenByKey(const JsonParserGeneratorRK::jsmntok_t *container, const char *name, const JsonParserGeneratorRK::jsmntok_t *&value) const {

	const JsonParserGeneratorRK::jsmntok_t *key;
	String keyName;
   d69e2:	a804      	add	r0, sp, #16
   d69e4:	f002 f805 	bl	d89f2 <_ZN6StringD1Ev>
		if (getTokenValue(key, keyName) && keyName == name) {
			return true;
		}
	}
	return false;
}
   d69e8:	4620      	mov	r0, r4
   d69ea:	b009      	add	sp, #36	; 0x24
   d69ec:	e8bd 83f0 	ldmia.w	sp!, {r4, r5, r6, r7, r8, r9, pc}
   d69f0:	000dbc20 	.word	0x000dbc20

000d69f4 <_ZN21JsonParserGeneratorRK10jsmn_parseEPNS_11jsmn_parserEPKcjPNS_9jsmntok_tEj>:

/**
 * Parse JSON string and fill tokens.
 */
int jsmn_parse(jsmn_parser *parser, const char *js, size_t len,
		jsmntok_t *tokens, unsigned int num_tokens) {
   d69f4:	e92d 4ff0 	stmdb	sp!, {r4, r5, r6, r7, r8, r9, sl, fp, lr}
	int r;
	int i;
	jsmntok_t *token;
	int count = parser->toknext;
   d69f8:	6844      	ldr	r4, [r0, #4]
	jsmntok_t *tok;
	if (parser->toknext >= num_tokens) {
		return NULL;
	}
	tok = &tokens[parser->toknext++];
	tok->start = tok->end = -1;
   d69fa:	f04f 35ff 	mov.w	r5, #4294967295	; 0xffffffff
/**
 * Fills token type and boundaries.
 */
static void jsmn_fill_token(jsmntok_t *token, jsmntype_t type,
                            int start, int end) {
	token->type = type;
   d69fe:	f04f 0e03 	mov.w	lr, #3
	int r;
	int i;
	jsmntok_t *token;
	int count = parser->toknext;

	for (; parser->pos < len && js[parser->pos] != '\0'; parser->pos++) {
   d6a02:	f8d0 c000 	ldr.w	ip, [r0]
   d6a06:	4594      	cmp	ip, r2
   d6a08:	f080 819e 	bcs.w	d6d48 <_ZN21JsonParserGeneratorRK10jsmn_parseEPNS_11jsmn_parserEPKcjPNS_9jsmntok_tEj+0x354>
   d6a0c:	f811 800c 	ldrb.w	r8, [r1, ip]
   d6a10:	f1b8 0f00 	cmp.w	r8, #0
   d6a14:	f000 8198 	beq.w	d6d48 <_ZN21JsonParserGeneratorRK10jsmn_parseEPNS_11jsmn_parserEPKcjPNS_9jsmntok_tEj+0x354>
		char c;
		jsmntype_t type;

		c = js[parser->pos];
		switch (c) {
   d6a18:	f1b8 0f2c 	cmp.w	r8, #44	; 0x2c
   d6a1c:	f000 8116 	beq.w	d6c4c <_ZN21JsonParserGeneratorRK10jsmn_parseEPNS_11jsmn_parserEPKcjPNS_9jsmntok_tEj+0x258>
   d6a20:	d818      	bhi.n	d6a54 <_ZN21JsonParserGeneratorRK10jsmn_parseEPNS_11jsmn_parserEPKcjPNS_9jsmntok_tEj+0x60>
   d6a22:	f1b8 0f0d 	cmp.w	r8, #13
   d6a26:	f000 818b 	beq.w	d6d40 <_ZN21JsonParserGeneratorRK10jsmn_parseEPNS_11jsmn_parserEPKcjPNS_9jsmntok_tEj+0x34c>
   d6a2a:	d806      	bhi.n	d6a3a <_ZN21JsonParserGeneratorRK10jsmn_parseEPNS_11jsmn_parserEPKcjPNS_9jsmntok_tEj+0x46>
   d6a2c:	f1a8 0809 	sub.w	r8, r8, #9
   d6a30:	f1b8 0f01 	cmp.w	r8, #1
   d6a34:	f240 8184 	bls.w	d6d40 <_ZN21JsonParserGeneratorRK10jsmn_parseEPNS_11jsmn_parserEPKcjPNS_9jsmntok_tEj+0x34c>
   d6a38:	e13d      	b.n	d6cb6 <_ZN21JsonParserGeneratorRK10jsmn_parseEPNS_11jsmn_parserEPKcjPNS_9jsmntok_tEj+0x2c2>
   d6a3a:	f1b8 0f20 	cmp.w	r8, #32
   d6a3e:	f000 817f 	beq.w	d6d40 <_ZN21JsonParserGeneratorRK10jsmn_parseEPNS_11jsmn_parserEPKcjPNS_9jsmntok_tEj+0x34c>
   d6a42:	f1b8 0f22 	cmp.w	r8, #34	; 0x22
   d6a46:	f040 8136 	bne.w	d6cb6 <_ZN21JsonParserGeneratorRK10jsmn_parseEPNS_11jsmn_parserEPKcjPNS_9jsmntok_tEj+0x2c2>
		size_t len, jsmntok_t *tokens, size_t num_tokens) {
	jsmntok_t *token;

	int start = parser->pos;

	parser->pos++;
   d6a4a:	f10c 0901 	add.w	r9, ip, #1
   d6a4e:	f8c0 9000 	str.w	r9, [r0]
   d6a52:	e092      	b.n	d6b7a <_ZN21JsonParserGeneratorRK10jsmn_parseEPNS_11jsmn_parserEPKcjPNS_9jsmntok_tEj+0x186>
	for (; parser->pos < len && js[parser->pos] != '\0'; parser->pos++) {
		char c;
		jsmntype_t type;

		c = js[parser->pos];
		switch (c) {
   d6a54:	f1b8 0f5d 	cmp.w	r8, #93	; 0x5d
   d6a58:	d03c      	beq.n	d6ad4 <_ZN21JsonParserGeneratorRK10jsmn_parseEPNS_11jsmn_parserEPKcjPNS_9jsmntok_tEj+0xe0>
   d6a5a:	d807      	bhi.n	d6a6c <_ZN21JsonParserGeneratorRK10jsmn_parseEPNS_11jsmn_parserEPKcjPNS_9jsmntok_tEj+0x78>
   d6a5c:	f1b8 0f3a 	cmp.w	r8, #58	; 0x3a
   d6a60:	f000 80f0 	beq.w	d6c44 <_ZN21JsonParserGeneratorRK10jsmn_parseEPNS_11jsmn_parserEPKcjPNS_9jsmntok_tEj+0x250>
   d6a64:	f1b8 0f5b 	cmp.w	r8, #91	; 0x5b
   d6a68:	d007      	beq.n	d6a7a <_ZN21JsonParserGeneratorRK10jsmn_parseEPNS_11jsmn_parserEPKcjPNS_9jsmntok_tEj+0x86>
   d6a6a:	e124      	b.n	d6cb6 <_ZN21JsonParserGeneratorRK10jsmn_parseEPNS_11jsmn_parserEPKcjPNS_9jsmntok_tEj+0x2c2>
   d6a6c:	f1b8 0f7b 	cmp.w	r8, #123	; 0x7b
   d6a70:	d003      	beq.n	d6a7a <_ZN21JsonParserGeneratorRK10jsmn_parseEPNS_11jsmn_parserEPKcjPNS_9jsmntok_tEj+0x86>
   d6a72:	f1b8 0f7d 	cmp.w	r8, #125	; 0x7d
   d6a76:	d02d      	beq.n	d6ad4 <_ZN21JsonParserGeneratorRK10jsmn_parseEPNS_11jsmn_parserEPKcjPNS_9jsmntok_tEj+0xe0>
   d6a78:	e11d      	b.n	d6cb6 <_ZN21JsonParserGeneratorRK10jsmn_parseEPNS_11jsmn_parserEPKcjPNS_9jsmntok_tEj+0x2c2>
			case '{': case '[':
				count++;
   d6a7a:	3401      	adds	r4, #1
				if (tokens == NULL) {
   d6a7c:	2b00      	cmp	r3, #0
   d6a7e:	f000 815f 	beq.w	d6d40 <_ZN21JsonParserGeneratorRK10jsmn_parseEPNS_11jsmn_parserEPKcjPNS_9jsmntok_tEj+0x34c>
 * Allocates a fresh unused token from the token pull.
 */
static jsmntok_t *jsmn_alloc_token(jsmn_parser *parser,
		jsmntok_t *tokens, size_t num_tokens) {
	jsmntok_t *tok;
	if (parser->toknext >= num_tokens) {
   d6a82:	6847      	ldr	r7, [r0, #4]
   d6a84:	9e09      	ldr	r6, [sp, #36]	; 0x24
   d6a86:	42be      	cmp	r6, r7
   d6a88:	f240 817d 	bls.w	d6d86 <_ZN21JsonParserGeneratorRK10jsmn_parseEPNS_11jsmn_parserEPKcjPNS_9jsmntok_tEj+0x392>
		return NULL;
	}
	tok = &tokens[parser->toknext++];
   d6a8c:	f107 0c01 	add.w	ip, r7, #1
   d6a90:	f8c0 c004 	str.w	ip, [r0, #4]
   d6a94:	ea4f 1c07 	mov.w	ip, r7, lsl #4
   d6a98:	eb03 0a0c 	add.w	sl, r3, ip
	tok->start = tok->end = -1;
	tok->size = 0;
   d6a9c:	2600      	movs	r6, #0
	jsmntok_t *tok;
	if (parser->toknext >= num_tokens) {
		return NULL;
	}
	tok = &tokens[parser->toknext++];
	tok->start = tok->end = -1;
   d6a9e:	f8ca 5004 	str.w	r5, [sl, #4]
	tok->size = 0;
   d6aa2:	f8ca 600c 	str.w	r6, [sl, #12]
	jsmntok_t *tok;
	if (parser->toknext >= num_tokens) {
		return NULL;
	}
	tok = &tokens[parser->toknext++];
	tok->start = tok->end = -1;
   d6aa6:	f8ca 5008 	str.w	r5, [sl, #8]
					break;
				}
				token = jsmn_alloc_token(parser, tokens, num_tokens);
				if (token == NULL)
					return JSMN_ERROR_NOMEM;
				if (parser->toksuper != -1) {
   d6aaa:	6887      	ldr	r7, [r0, #8]
   d6aac:	1c7e      	adds	r6, r7, #1
					tokens[parser->toksuper].size++;
   d6aae:	bf1f      	itttt	ne
   d6ab0:	eb03 1907 	addne.w	r9, r3, r7, lsl #4
   d6ab4:	f8d9 700c 	ldrne.w	r7, [r9, #12]
   d6ab8:	3701      	addne	r7, #1
   d6aba:	f8c9 700c 	strne.w	r7, [r9, #12]
#ifdef JSMN_PARENT_LINKS
					token->parent = parser->toksuper;
#endif
				}
				token->type = (c == '{' ? JSMN_OBJECT : JSMN_ARRAY);
   d6abe:	f1b8 0f7b 	cmp.w	r8, #123	; 0x7b
   d6ac2:	bf14      	ite	ne
   d6ac4:	2702      	movne	r7, #2
   d6ac6:	2701      	moveq	r7, #1
   d6ac8:	f803 700c 	strb.w	r7, [r3, ip]
				token->start = parser->pos;
   d6acc:	6807      	ldr	r7, [r0, #0]
   d6ace:	f8ca 7004 	str.w	r7, [sl, #4]
   d6ad2:	e0b7      	b.n	d6c44 <_ZN21JsonParserGeneratorRK10jsmn_parseEPNS_11jsmn_parserEPKcjPNS_9jsmntok_tEj+0x250>
				parser->toksuper = parser->toknext - 1;
				break;
			case '}': case ']':
				if (tokens == NULL)
   d6ad4:	2b00      	cmp	r3, #0
   d6ad6:	f000 8133 	beq.w	d6d40 <_ZN21JsonParserGeneratorRK10jsmn_parseEPNS_11jsmn_parserEPKcjPNS_9jsmntok_tEj+0x34c>
						break;
					}
					token = &tokens[token->parent];
				}
#else
				for (i = parser->toknext - 1; i >= 0; i--) {
   d6ada:	6847      	ldr	r7, [r0, #4]
				parser->toksuper = parser->toknext - 1;
				break;
			case '}': case ']':
				if (tokens == NULL)
					break;
				type = (c == '}' ? JSMN_OBJECT : JSMN_ARRAY);
   d6adc:	f1b8 0f7d 	cmp.w	r8, #125	; 0x7d
   d6ae0:	f107 5880 	add.w	r8, r7, #268435456	; 0x10000000
   d6ae4:	f108 38ff 	add.w	r8, r8, #4294967295	; 0xffffffff
   d6ae8:	bf14      	ite	ne
   d6aea:	f04f 0a02 	movne.w	sl, #2
   d6aee:	f04f 0a01 	moveq.w	sl, #1
						break;
					}
					token = &tokens[token->parent];
				}
#else
				for (i = parser->toknext - 1; i >= 0; i--) {
   d6af2:	f107 39ff 	add.w	r9, r7, #4294967295	; 0xffffffff
   d6af6:	eb03 1808 	add.w	r8, r3, r8, lsl #4
   d6afa:	f1b9 0f00 	cmp.w	r9, #0
   d6afe:	db19      	blt.n	d6b34 <_ZN21JsonParserGeneratorRK10jsmn_parseEPNS_11jsmn_parserEPKcjPNS_9jsmntok_tEj+0x140>
					token = &tokens[i];
					if (token->start != -1 && token->end == -1) {
   d6b00:	f8d8 7004 	ldr.w	r7, [r8, #4]
   d6b04:	3701      	adds	r7, #1
   d6b06:	d010      	beq.n	d6b2a <_ZN21JsonParserGeneratorRK10jsmn_parseEPNS_11jsmn_parserEPKcjPNS_9jsmntok_tEj+0x136>
   d6b08:	f8d8 7008 	ldr.w	r7, [r8, #8]
   d6b0c:	1c7e      	adds	r6, r7, #1
   d6b0e:	d10c      	bne.n	d6b2a <_ZN21JsonParserGeneratorRK10jsmn_parseEPNS_11jsmn_parserEPKcjPNS_9jsmntok_tEj+0x136>
						if (token->type != type) {
   d6b10:	f898 b000 	ldrb.w	fp, [r8]
   d6b14:	45d3      	cmp	fp, sl
   d6b16:	f040 8129 	bne.w	d6d6c <_ZN21JsonParserGeneratorRK10jsmn_parseEPNS_11jsmn_parserEPKcjPNS_9jsmntok_tEj+0x378>
							return JSMN_ERROR_INVAL;
						}
						parser->toksuper = -1;
   d6b1a:	6087      	str	r7, [r0, #8]
						token->end = parser->pos + 1;
   d6b1c:	f10c 0701 	add.w	r7, ip, #1
   d6b20:	f8c8 7008 	str.w	r7, [r8, #8]
   d6b24:	eb03 1c09 	add.w	ip, r3, r9, lsl #4
   d6b28:	e011      	b.n	d6b4e <_ZN21JsonParserGeneratorRK10jsmn_parseEPNS_11jsmn_parserEPKcjPNS_9jsmntok_tEj+0x15a>
						break;
					}
					token = &tokens[token->parent];
				}
#else
				for (i = parser->toknext - 1; i >= 0; i--) {
   d6b2a:	f109 39ff 	add.w	r9, r9, #4294967295	; 0xffffffff
   d6b2e:	f1a8 0810 	sub.w	r8, r8, #16
   d6b32:	e7e2      	b.n	d6afa <_ZN21JsonParserGeneratorRK10jsmn_parseEPNS_11jsmn_parserEPKcjPNS_9jsmntok_tEj+0x106>
						token->end = parser->pos + 1;
						break;
					}
				}
				/* Error if unmatched closing bracket */
				if (i == -1) return JSMN_ERROR_INVAL;
   d6b34:	f1b9 3fff 	cmp.w	r9, #4294967295	; 0xffffffff
   d6b38:	f040 8102 	bne.w	d6d40 <_ZN21JsonParserGeneratorRK10jsmn_parseEPNS_11jsmn_parserEPKcjPNS_9jsmntok_tEj+0x34c>
   d6b3c:	e116      	b.n	d6d6c <_ZN21JsonParserGeneratorRK10jsmn_parseEPNS_11jsmn_parserEPKcjPNS_9jsmntok_tEj+0x378>
				for (; i >= 0; i--) {
   d6b3e:	f109 39ff 	add.w	r9, r9, #4294967295	; 0xffffffff
   d6b42:	f1b9 3fff 	cmp.w	r9, #4294967295	; 0xffffffff
   d6b46:	f1ac 0c10 	sub.w	ip, ip, #16
   d6b4a:	f000 80f9 	beq.w	d6d40 <_ZN21JsonParserGeneratorRK10jsmn_parseEPNS_11jsmn_parserEPKcjPNS_9jsmntok_tEj+0x34c>
					token = &tokens[i];
					if (token->start != -1 && token->end == -1) {
   d6b4e:	f8dc 7004 	ldr.w	r7, [ip, #4]
   d6b52:	3701      	adds	r7, #1
   d6b54:	d0f3      	beq.n	d6b3e <_ZN21JsonParserGeneratorRK10jsmn_parseEPNS_11jsmn_parserEPKcjPNS_9jsmntok_tEj+0x14a>
   d6b56:	f8dc 7008 	ldr.w	r7, [ip, #8]
   d6b5a:	3701      	adds	r7, #1
   d6b5c:	d1ef      	bne.n	d6b3e <_ZN21JsonParserGeneratorRK10jsmn_parseEPNS_11jsmn_parserEPKcjPNS_9jsmntok_tEj+0x14a>
						parser->toksuper = i;
   d6b5e:	f8c0 9008 	str.w	r9, [r0, #8]
						break;
   d6b62:	e0ed      	b.n	d6d40 <_ZN21JsonParserGeneratorRK10jsmn_parseEPNS_11jsmn_parserEPKcjPNS_9jsmntok_tEj+0x34c>
	int start = parser->pos;

	parser->pos++;

	/* Skip starting quote */
	for (; parser->pos < len && js[parser->pos] != '\0'; parser->pos++) {
   d6b64:	f811 7008 	ldrb.w	r7, [r1, r8]
   d6b68:	2f00      	cmp	r7, #0
   d6b6a:	d068      	beq.n	d6c3e <_ZN21JsonParserGeneratorRK10jsmn_parseEPNS_11jsmn_parserEPKcjPNS_9jsmntok_tEj+0x24a>
		char c = js[parser->pos];

		/* Quote: end of string */
		if (c == '\"') {
   d6b6c:	2f22      	cmp	r7, #34	; 0x22
   d6b6e:	d009      	beq.n	d6b84 <_ZN21JsonParserGeneratorRK10jsmn_parseEPNS_11jsmn_parserEPKcjPNS_9jsmntok_tEj+0x190>
#endif
			return 0;
		}

		/* Backslash: Quoted symbol expected */
		if (c == '\\' && parser->pos + 1 < len) {
   d6b70:	2f5c      	cmp	r7, #92	; 0x5c
   d6b72:	d026      	beq.n	d6bc2 <_ZN21JsonParserGeneratorRK10jsmn_parseEPNS_11jsmn_parserEPKcjPNS_9jsmntok_tEj+0x1ce>
	int start = parser->pos;

	parser->pos++;

	/* Skip starting quote */
	for (; parser->pos < len && js[parser->pos] != '\0'; parser->pos++) {
   d6b74:	6807      	ldr	r7, [r0, #0]
   d6b76:	3701      	adds	r7, #1
   d6b78:	6007      	str	r7, [r0, #0]
   d6b7a:	f8d0 8000 	ldr.w	r8, [r0]
   d6b7e:	4542      	cmp	r2, r8
   d6b80:	d8f0      	bhi.n	d6b64 <_ZN21JsonParserGeneratorRK10jsmn_parseEPNS_11jsmn_parserEPKcjPNS_9jsmntok_tEj+0x170>
   d6b82:	e05c      	b.n	d6c3e <_ZN21JsonParserGeneratorRK10jsmn_parseEPNS_11jsmn_parserEPKcjPNS_9jsmntok_tEj+0x24a>
		char c = js[parser->pos];

		/* Quote: end of string */
		if (c == '\"') {
			if (tokens == NULL) {
   d6b84:	2b00      	cmp	r3, #0
   d6b86:	f000 80ce 	beq.w	d6d26 <_ZN21JsonParserGeneratorRK10jsmn_parseEPNS_11jsmn_parserEPKcjPNS_9jsmntok_tEj+0x332>
 * Allocates a fresh unused token from the token pull.
 */
static jsmntok_t *jsmn_alloc_token(jsmn_parser *parser,
		jsmntok_t *tokens, size_t num_tokens) {
	jsmntok_t *tok;
	if (parser->toknext >= num_tokens) {
   d6b8a:	6847      	ldr	r7, [r0, #4]
   d6b8c:	9e09      	ldr	r6, [sp, #36]	; 0x24
   d6b8e:	42be      	cmp	r6, r7
   d6b90:	f240 80f7 	bls.w	d6d82 <_ZN21JsonParserGeneratorRK10jsmn_parseEPNS_11jsmn_parserEPKcjPNS_9jsmntok_tEj+0x38e>
		return NULL;
	}
	tok = &tokens[parser->toknext++];
   d6b94:	f107 0c01 	add.w	ip, r7, #1
   d6b98:	013f      	lsls	r7, r7, #4
   d6b9a:	f8c0 c004 	str.w	ip, [r0, #4]
   d6b9e:	eb03 0c07 	add.w	ip, r3, r7
	tok->start = tok->end = -1;
	tok->size = 0;
   d6ba2:	2600      	movs	r6, #0
	jsmntok_t *tok;
	if (parser->toknext >= num_tokens) {
		return NULL;
	}
	tok = &tokens[parser->toknext++];
	tok->start = tok->end = -1;
   d6ba4:	f8cc 5008 	str.w	r5, [ip, #8]
   d6ba8:	f8cc 5004 	str.w	r5, [ip, #4]
	tok->size = 0;
   d6bac:	f8cc 600c 	str.w	r6, [ip, #12]
			token = jsmn_alloc_token(parser, tokens, num_tokens);
			if (token == NULL) {
				parser->pos = start;
				return JSMN_ERROR_NOMEM;
			}
			jsmn_fill_token(token, JSMN_STRING, start+1, parser->pos);
   d6bb0:	f8d0 8000 	ldr.w	r8, [r0]
/**
 * Fills token type and boundaries.
 */
static void jsmn_fill_token(jsmntok_t *token, jsmntype_t type,
                            int start, int end) {
	token->type = type;
   d6bb4:	f803 e007 	strb.w	lr, [r3, r7]
	token->start = start;
   d6bb8:	f8cc 9004 	str.w	r9, [ip, #4]
	token->end = end;
   d6bbc:	f8cc 8008 	str.w	r8, [ip, #8]
   d6bc0:	e0b1      	b.n	d6d26 <_ZN21JsonParserGeneratorRK10jsmn_parseEPNS_11jsmn_parserEPKcjPNS_9jsmntok_tEj+0x332>
#endif
			return 0;
		}

		/* Backslash: Quoted symbol expected */
		if (c == '\\' && parser->pos + 1 < len) {
   d6bc2:	f108 0701 	add.w	r7, r8, #1
   d6bc6:	42ba      	cmp	r2, r7
   d6bc8:	d9d4      	bls.n	d6b74 <_ZN21JsonParserGeneratorRK10jsmn_parseEPNS_11jsmn_parserEPKcjPNS_9jsmntok_tEj+0x180>
			int i;
			parser->pos++;
   d6bca:	6007      	str	r7, [r0, #0]
			switch (js[parser->pos]) {
   d6bcc:	5dcf      	ldrb	r7, [r1, r7]
   d6bce:	2f66      	cmp	r7, #102	; 0x66
   d6bd0:	d0d0      	beq.n	d6b74 <_ZN21JsonParserGeneratorRK10jsmn_parseEPNS_11jsmn_parserEPKcjPNS_9jsmntok_tEj+0x180>
   d6bd2:	d808      	bhi.n	d6be6 <_ZN21JsonParserGeneratorRK10jsmn_parseEPNS_11jsmn_parserEPKcjPNS_9jsmntok_tEj+0x1f2>
   d6bd4:	2f2f      	cmp	r7, #47	; 0x2f
   d6bd6:	d0cd      	beq.n	d6b74 <_ZN21JsonParserGeneratorRK10jsmn_parseEPNS_11jsmn_parserEPKcjPNS_9jsmntok_tEj+0x180>
   d6bd8:	d801      	bhi.n	d6bde <_ZN21JsonParserGeneratorRK10jsmn_parseEPNS_11jsmn_parserEPKcjPNS_9jsmntok_tEj+0x1ea>
   d6bda:	2f22      	cmp	r7, #34	; 0x22
   d6bdc:	e007      	b.n	d6bee <_ZN21JsonParserGeneratorRK10jsmn_parseEPNS_11jsmn_parserEPKcjPNS_9jsmntok_tEj+0x1fa>
   d6bde:	2f5c      	cmp	r7, #92	; 0x5c
   d6be0:	d0c8      	beq.n	d6b74 <_ZN21JsonParserGeneratorRK10jsmn_parseEPNS_11jsmn_parserEPKcjPNS_9jsmntok_tEj+0x180>
   d6be2:	2f62      	cmp	r7, #98	; 0x62
   d6be4:	e003      	b.n	d6bee <_ZN21JsonParserGeneratorRK10jsmn_parseEPNS_11jsmn_parserEPKcjPNS_9jsmntok_tEj+0x1fa>
   d6be6:	2f72      	cmp	r7, #114	; 0x72
   d6be8:	d0c4      	beq.n	d6b74 <_ZN21JsonParserGeneratorRK10jsmn_parseEPNS_11jsmn_parserEPKcjPNS_9jsmntok_tEj+0x180>
   d6bea:	d802      	bhi.n	d6bf2 <_ZN21JsonParserGeneratorRK10jsmn_parseEPNS_11jsmn_parserEPKcjPNS_9jsmntok_tEj+0x1fe>
   d6bec:	2f6e      	cmp	r7, #110	; 0x6e
   d6bee:	d175      	bne.n	d6cdc <_ZN21JsonParserGeneratorRK10jsmn_parseEPNS_11jsmn_parserEPKcjPNS_9jsmntok_tEj+0x2e8>
   d6bf0:	e7c0      	b.n	d6b74 <_ZN21JsonParserGeneratorRK10jsmn_parseEPNS_11jsmn_parserEPKcjPNS_9jsmntok_tEj+0x180>
   d6bf2:	2f74      	cmp	r7, #116	; 0x74
   d6bf4:	d0be      	beq.n	d6b74 <_ZN21JsonParserGeneratorRK10jsmn_parseEPNS_11jsmn_parserEPKcjPNS_9jsmntok_tEj+0x180>
   d6bf6:	2f75      	cmp	r7, #117	; 0x75
   d6bf8:	d170      	bne.n	d6cdc <_ZN21JsonParserGeneratorRK10jsmn_parseEPNS_11jsmn_parserEPKcjPNS_9jsmntok_tEj+0x2e8>
				case '\"': case '/' : case '\\' : case 'b' :
				case 'f' : case 'r' : case 'n'  : case 't' :
					break;
				/* Allows escaped symbol \uXXXX */
				case 'u':
					parser->pos++;
   d6bfa:	f108 0702 	add.w	r7, r8, #2
   d6bfe:	6007      	str	r7, [r0, #0]
   d6c00:	f04f 0a04 	mov.w	sl, #4
					for(i = 0; i < 4 && parser->pos < len && js[parser->pos] != '\0'; i++) {
   d6c04:	f8d0 8000 	ldr.w	r8, [r0]
   d6c08:	4542      	cmp	r2, r8
   d6c0a:	d803      	bhi.n	d6c14 <_ZN21JsonParserGeneratorRK10jsmn_parseEPNS_11jsmn_parserEPKcjPNS_9jsmntok_tEj+0x220>
							parser->pos = start;
							return JSMN_ERROR_INVAL;
						}
						parser->pos++;
					}
					parser->pos--;
   d6c0c:	6807      	ldr	r7, [r0, #0]
   d6c0e:	3f01      	subs	r7, #1
   d6c10:	6007      	str	r7, [r0, #0]
   d6c12:	e7af      	b.n	d6b74 <_ZN21JsonParserGeneratorRK10jsmn_parseEPNS_11jsmn_parserEPKcjPNS_9jsmntok_tEj+0x180>
				case 'f' : case 'r' : case 'n'  : case 't' :
					break;
				/* Allows escaped symbol \uXXXX */
				case 'u':
					parser->pos++;
					for(i = 0; i < 4 && parser->pos < len && js[parser->pos] != '\0'; i++) {
   d6c14:	f811 7008 	ldrb.w	r7, [r1, r8]
   d6c18:	2f00      	cmp	r7, #0
   d6c1a:	d0f7      	beq.n	d6c0c <_ZN21JsonParserGeneratorRK10jsmn_parseEPNS_11jsmn_parserEPKcjPNS_9jsmntok_tEj+0x218>
						/* If it isn't a hex character we have an error */
						if(!((js[parser->pos] >= 48 && js[parser->pos] <= 57) || /* 0-9 */
   d6c1c:	f1a7 0b30 	sub.w	fp, r7, #48	; 0x30
   d6c20:	f1bb 0f09 	cmp.w	fp, #9
   d6c24:	d904      	bls.n	d6c30 <_ZN21JsonParserGeneratorRK10jsmn_parseEPNS_11jsmn_parserEPKcjPNS_9jsmntok_tEj+0x23c>
   d6c26:	f027 0720 	bic.w	r7, r7, #32
   d6c2a:	3f41      	subs	r7, #65	; 0x41
   d6c2c:	2f05      	cmp	r7, #5
   d6c2e:	d855      	bhi.n	d6cdc <_ZN21JsonParserGeneratorRK10jsmn_parseEPNS_11jsmn_parserEPKcjPNS_9jsmntok_tEj+0x2e8>
									(js[parser->pos] >= 65 && js[parser->pos] <= 70) || /* A-F */
									(js[parser->pos] >= 97 && js[parser->pos] <= 102))) { /* a-f */
							parser->pos = start;
							return JSMN_ERROR_INVAL;
						}
						parser->pos++;
   d6c30:	f108 0701 	add.w	r7, r8, #1
				case 'f' : case 'r' : case 'n'  : case 't' :
					break;
				/* Allows escaped symbol \uXXXX */
				case 'u':
					parser->pos++;
					for(i = 0; i < 4 && parser->pos < len && js[parser->pos] != '\0'; i++) {
   d6c34:	f1ba 0a01 	subs.w	sl, sl, #1
									(js[parser->pos] >= 65 && js[parser->pos] <= 70) || /* A-F */
									(js[parser->pos] >= 97 && js[parser->pos] <= 102))) { /* a-f */
							parser->pos = start;
							return JSMN_ERROR_INVAL;
						}
						parser->pos++;
   d6c38:	6007      	str	r7, [r0, #0]
				case 'f' : case 'r' : case 'n'  : case 't' :
					break;
				/* Allows escaped symbol \uXXXX */
				case 'u':
					parser->pos++;
					for(i = 0; i < 4 && parser->pos < len && js[parser->pos] != '\0'; i++) {
   d6c3a:	d1e3      	bne.n	d6c04 <_ZN21JsonParserGeneratorRK10jsmn_parseEPNS_11jsmn_parserEPKcjPNS_9jsmntok_tEj+0x210>
   d6c3c:	e7e6      	b.n	d6c0c <_ZN21JsonParserGeneratorRK10jsmn_parseEPNS_11jsmn_parserEPKcjPNS_9jsmntok_tEj+0x218>
					parser->pos = start;
					return JSMN_ERROR_INVAL;
			}
		}
	}
	parser->pos = start;
   d6c3e:	f8c0 c000 	str.w	ip, [r0]
   d6c42:	e09a      	b.n	d6d7a <_ZN21JsonParserGeneratorRK10jsmn_parseEPNS_11jsmn_parserEPKcjPNS_9jsmntok_tEj+0x386>
					tokens[parser->toksuper].size++;
				break;
			case '\t' : case '\r' : case '\n' : case ' ':
				break;
			case ':':
				parser->toksuper = parser->toknext - 1;
   d6c44:	6847      	ldr	r7, [r0, #4]
   d6c46:	3f01      	subs	r7, #1
   d6c48:	6087      	str	r7, [r0, #8]
				break;
   d6c4a:	e079      	b.n	d6d40 <_ZN21JsonParserGeneratorRK10jsmn_parseEPNS_11jsmn_parserEPKcjPNS_9jsmntok_tEj+0x34c>
			case ',':
				if (tokens != NULL && parser->toksuper != -1 &&
   d6c4c:	2b00      	cmp	r3, #0
   d6c4e:	d077      	beq.n	d6d40 <_ZN21JsonParserGeneratorRK10jsmn_parseEPNS_11jsmn_parserEPKcjPNS_9jsmntok_tEj+0x34c>
   d6c50:	6887      	ldr	r7, [r0, #8]
   d6c52:	1c7e      	adds	r6, r7, #1
   d6c54:	d074      	beq.n	d6d40 <_ZN21JsonParserGeneratorRK10jsmn_parseEPNS_11jsmn_parserEPKcjPNS_9jsmntok_tEj+0x34c>
						tokens[parser->toksuper].type != JSMN_ARRAY &&
   d6c56:	013f      	lsls	r7, r7, #4
   d6c58:	5ddf      	ldrb	r7, [r3, r7]
   d6c5a:	3f01      	subs	r7, #1
   d6c5c:	2f01      	cmp	r7, #1
   d6c5e:	d96f      	bls.n	d6d40 <_ZN21JsonParserGeneratorRK10jsmn_parseEPNS_11jsmn_parserEPKcjPNS_9jsmntok_tEj+0x34c>
						tokens[parser->toksuper].type != JSMN_OBJECT) {
#ifdef JSMN_PARENT_LINKS
					parser->toksuper = tokens[parser->toksuper].parent;
#else
					for (i = parser->toknext - 1; i >= 0; i--) {
   d6c60:	6847      	ldr	r7, [r0, #4]
   d6c62:	f107 38ff 	add.w	r8, r7, #4294967295	; 0xffffffff
   d6c66:	eb03 1c07 	add.w	ip, r3, r7, lsl #4
   d6c6a:	f1b8 0f00 	cmp.w	r8, #0
   d6c6e:	db67      	blt.n	d6d40 <_ZN21JsonParserGeneratorRK10jsmn_parseEPNS_11jsmn_parserEPKcjPNS_9jsmntok_tEj+0x34c>
						if (tokens[i].type == JSMN_ARRAY || tokens[i].type == JSMN_OBJECT) {
   d6c70:	f81c 7c10 	ldrb.w	r7, [ip, #-16]
   d6c74:	3f01      	subs	r7, #1
   d6c76:	2f01      	cmp	r7, #1
   d6c78:	d80a      	bhi.n	d6c90 <_ZN21JsonParserGeneratorRK10jsmn_parseEPNS_11jsmn_parserEPKcjPNS_9jsmntok_tEj+0x29c>
							if (tokens[i].start != -1 && tokens[i].end == -1) {
   d6c7a:	f85c 7c0c 	ldr.w	r7, [ip, #-12]
   d6c7e:	3701      	adds	r7, #1
   d6c80:	d006      	beq.n	d6c90 <_ZN21JsonParserGeneratorRK10jsmn_parseEPNS_11jsmn_parserEPKcjPNS_9jsmntok_tEj+0x29c>
   d6c82:	f85c 7c08 	ldr.w	r7, [ip, #-8]
   d6c86:	3701      	adds	r7, #1
   d6c88:	d102      	bne.n	d6c90 <_ZN21JsonParserGeneratorRK10jsmn_parseEPNS_11jsmn_parserEPKcjPNS_9jsmntok_tEj+0x29c>
								parser->toksuper = i;
   d6c8a:	f8c0 8008 	str.w	r8, [r0, #8]
								break;
   d6c8e:	e057      	b.n	d6d40 <_ZN21JsonParserGeneratorRK10jsmn_parseEPNS_11jsmn_parserEPKcjPNS_9jsmntok_tEj+0x34c>
						tokens[parser->toksuper].type != JSMN_ARRAY &&
						tokens[parser->toksuper].type != JSMN_OBJECT) {
#ifdef JSMN_PARENT_LINKS
					parser->toksuper = tokens[parser->toksuper].parent;
#else
					for (i = parser->toknext - 1; i >= 0; i--) {
   d6c90:	f108 38ff 	add.w	r8, r8, #4294967295	; 0xffffffff
   d6c94:	f1ac 0c10 	sub.w	ip, ip, #16
   d6c98:	e7e7      	b.n	d6c6a <_ZN21JsonParserGeneratorRK10jsmn_parseEPNS_11jsmn_parserEPKcjPNS_9jsmntok_tEj+0x276>
	jsmntok_t *token;
	int start;

	start = parser->pos;

	for (; parser->pos < len && js[parser->pos] != '\0'; parser->pos++) {
   d6c9a:	f811 7008 	ldrb.w	r7, [r1, r8]
   d6c9e:	b307      	cbz	r7, d6ce2 <_ZN21JsonParserGeneratorRK10jsmn_parseEPNS_11jsmn_parserEPKcjPNS_9jsmntok_tEj+0x2ee>
		switch (js[parser->pos]) {
   d6ca0:	2f20      	cmp	r7, #32
   d6ca2:	d01e      	beq.n	d6ce2 <_ZN21JsonParserGeneratorRK10jsmn_parseEPNS_11jsmn_parserEPKcjPNS_9jsmntok_tEj+0x2ee>
   d6ca4:	d810      	bhi.n	d6cc8 <_ZN21JsonParserGeneratorRK10jsmn_parseEPNS_11jsmn_parserEPKcjPNS_9jsmntok_tEj+0x2d4>
   d6ca6:	2f09      	cmp	r7, #9
   d6ca8:	d20a      	bcs.n	d6cc0 <_ZN21JsonParserGeneratorRK10jsmn_parseEPNS_11jsmn_parserEPKcjPNS_9jsmntok_tEj+0x2cc>
#endif
			case '\t' : case '\r' : case '\n' : case ' ' :
			case ','  : case ']'  : case '}' :
				goto found;
		}
		if (js[parser->pos] < 32 || js[parser->pos] >= 127) {
   d6caa:	3f20      	subs	r7, #32
   d6cac:	2f5e      	cmp	r7, #94	; 0x5e
   d6cae:	d815      	bhi.n	d6cdc <_ZN21JsonParserGeneratorRK10jsmn_parseEPNS_11jsmn_parserEPKcjPNS_9jsmntok_tEj+0x2e8>
	jsmntok_t *token;
	int start;

	start = parser->pos;

	for (; parser->pos < len && js[parser->pos] != '\0'; parser->pos++) {
   d6cb0:	f108 0701 	add.w	r7, r8, #1
   d6cb4:	6007      	str	r7, [r0, #0]
   d6cb6:	f8d0 8000 	ldr.w	r8, [r0]
   d6cba:	4542      	cmp	r2, r8
   d6cbc:	d8ed      	bhi.n	d6c9a <_ZN21JsonParserGeneratorRK10jsmn_parseEPNS_11jsmn_parserEPKcjPNS_9jsmntok_tEj+0x2a6>
   d6cbe:	e010      	b.n	d6ce2 <_ZN21JsonParserGeneratorRK10jsmn_parseEPNS_11jsmn_parserEPKcjPNS_9jsmntok_tEj+0x2ee>
		switch (js[parser->pos]) {
   d6cc0:	2f0a      	cmp	r7, #10
   d6cc2:	d90e      	bls.n	d6ce2 <_ZN21JsonParserGeneratorRK10jsmn_parseEPNS_11jsmn_parserEPKcjPNS_9jsmntok_tEj+0x2ee>
   d6cc4:	2f0d      	cmp	r7, #13
   d6cc6:	e007      	b.n	d6cd8 <_ZN21JsonParserGeneratorRK10jsmn_parseEPNS_11jsmn_parserEPKcjPNS_9jsmntok_tEj+0x2e4>
   d6cc8:	2f3a      	cmp	r7, #58	; 0x3a
   d6cca:	d00a      	beq.n	d6ce2 <_ZN21JsonParserGeneratorRK10jsmn_parseEPNS_11jsmn_parserEPKcjPNS_9jsmntok_tEj+0x2ee>
   d6ccc:	d801      	bhi.n	d6cd2 <_ZN21JsonParserGeneratorRK10jsmn_parseEPNS_11jsmn_parserEPKcjPNS_9jsmntok_tEj+0x2de>
   d6cce:	2f2c      	cmp	r7, #44	; 0x2c
   d6cd0:	e002      	b.n	d6cd8 <_ZN21JsonParserGeneratorRK10jsmn_parseEPNS_11jsmn_parserEPKcjPNS_9jsmntok_tEj+0x2e4>
   d6cd2:	2f5d      	cmp	r7, #93	; 0x5d
   d6cd4:	d005      	beq.n	d6ce2 <_ZN21JsonParserGeneratorRK10jsmn_parseEPNS_11jsmn_parserEPKcjPNS_9jsmntok_tEj+0x2ee>
   d6cd6:	2f7d      	cmp	r7, #125	; 0x7d
   d6cd8:	d1e7      	bne.n	d6caa <_ZN21JsonParserGeneratorRK10jsmn_parseEPNS_11jsmn_parserEPKcjPNS_9jsmntok_tEj+0x2b6>
   d6cda:	e002      	b.n	d6ce2 <_ZN21JsonParserGeneratorRK10jsmn_parseEPNS_11jsmn_parserEPKcjPNS_9jsmntok_tEj+0x2ee>
			case '\t' : case '\r' : case '\n' : case ' ' :
			case ','  : case ']'  : case '}' :
				goto found;
		}
		if (js[parser->pos] < 32 || js[parser->pos] >= 127) {
			parser->pos = start;
   d6cdc:	f8c0 c000 	str.w	ip, [r0]
   d6ce0:	e044      	b.n	d6d6c <_ZN21JsonParserGeneratorRK10jsmn_parseEPNS_11jsmn_parserEPKcjPNS_9jsmntok_tEj+0x378>
	parser->pos = start;
	return JSMN_ERROR_PART;
#endif

found:
	if (tokens == NULL) {
   d6ce2:	b913      	cbnz	r3, d6cea <_ZN21JsonParserGeneratorRK10jsmn_parseEPNS_11jsmn_parserEPKcjPNS_9jsmntok_tEj+0x2f6>
		parser->pos--;
   d6ce4:	f108 37ff 	add.w	r7, r8, #4294967295	; 0xffffffff
   d6ce8:	e01c      	b.n	d6d24 <_ZN21JsonParserGeneratorRK10jsmn_parseEPNS_11jsmn_parserEPKcjPNS_9jsmntok_tEj+0x330>
 * Allocates a fresh unused token from the token pull.
 */
static jsmntok_t *jsmn_alloc_token(jsmn_parser *parser,
		jsmntok_t *tokens, size_t num_tokens) {
	jsmntok_t *tok;
	if (parser->toknext >= num_tokens) {
   d6cea:	6847      	ldr	r7, [r0, #4]
   d6cec:	9e09      	ldr	r6, [sp, #36]	; 0x24
   d6cee:	42be      	cmp	r6, r7
   d6cf0:	d947      	bls.n	d6d82 <_ZN21JsonParserGeneratorRK10jsmn_parseEPNS_11jsmn_parserEPKcjPNS_9jsmntok_tEj+0x38e>
		return NULL;
	}
	tok = &tokens[parser->toknext++];
   d6cf2:	f107 0801 	add.w	r8, r7, #1
   d6cf6:	013f      	lsls	r7, r7, #4
   d6cf8:	f8c0 8004 	str.w	r8, [r0, #4]
   d6cfc:	eb03 0807 	add.w	r8, r3, r7
	tok->start = tok->end = -1;
	tok->size = 0;
   d6d00:	2600      	movs	r6, #0
	jsmntok_t *tok;
	if (parser->toknext >= num_tokens) {
		return NULL;
	}
	tok = &tokens[parser->toknext++];
	tok->start = tok->end = -1;
   d6d02:	f8c8 5008 	str.w	r5, [r8, #8]
   d6d06:	f8c8 5004 	str.w	r5, [r8, #4]
	tok->size = 0;
   d6d0a:	f8c8 600c 	str.w	r6, [r8, #12]
/**
 * Fills token type and boundaries.
 */
static void jsmn_fill_token(jsmntok_t *token, jsmntype_t type,
                            int start, int end) {
	token->type = type;
   d6d0e:	f04f 0604 	mov.w	r6, #4
	token = jsmn_alloc_token(parser, tokens, num_tokens);
	if (token == NULL) {
		parser->pos = start;
		return JSMN_ERROR_NOMEM;
	}
	jsmn_fill_token(token, JSMN_PRIMITIVE, start, parser->pos);
   d6d12:	f8d0 9000 	ldr.w	r9, [r0]
/**
 * Fills token type and boundaries.
 */
static void jsmn_fill_token(jsmntok_t *token, jsmntype_t type,
                            int start, int end) {
	token->type = type;
   d6d16:	55de      	strb	r6, [r3, r7]
	token->start = start;
   d6d18:	f8c8 c004 	str.w	ip, [r8, #4]
	token->end = end;
   d6d1c:	f8c8 9008 	str.w	r9, [r8, #8]
	}
	jsmn_fill_token(token, JSMN_PRIMITIVE, start, parser->pos);
#ifdef JSMN_PARENT_LINKS
	token->parent = parser->toksuper;
#endif
	parser->pos--;
   d6d20:	6807      	ldr	r7, [r0, #0]
   d6d22:	3f01      	subs	r7, #1
   d6d24:	6007      	str	r7, [r0, #0]
			default:
#endif
				r = jsmn_parse_primitive(parser, js, len, tokens, num_tokens);
				if (r < 0) return r;
				count++;
				if (parser->toksuper != -1 && tokens != NULL)
   d6d26:	6887      	ldr	r7, [r0, #8]
   d6d28:	1c7e      	adds	r6, r7, #1
			/* In non-strict mode every unquoted value is a primitive */
			default:
#endif
				r = jsmn_parse_primitive(parser, js, len, tokens, num_tokens);
				if (r < 0) return r;
				count++;
   d6d2a:	f104 0401 	add.w	r4, r4, #1
				if (parser->toksuper != -1 && tokens != NULL)
   d6d2e:	d007      	beq.n	d6d40 <_ZN21JsonParserGeneratorRK10jsmn_parseEPNS_11jsmn_parserEPKcjPNS_9jsmntok_tEj+0x34c>
   d6d30:	b133      	cbz	r3, d6d40 <_ZN21JsonParserGeneratorRK10jsmn_parseEPNS_11jsmn_parserEPKcjPNS_9jsmntok_tEj+0x34c>
					tokens[parser->toksuper].size++;
   d6d32:	eb03 1c07 	add.w	ip, r3, r7, lsl #4
   d6d36:	f8dc 700c 	ldr.w	r7, [ip, #12]
   d6d3a:	3701      	adds	r7, #1
   d6d3c:	f8cc 700c 	str.w	r7, [ip, #12]
	int r;
	int i;
	jsmntok_t *token;
	int count = parser->toknext;

	for (; parser->pos < len && js[parser->pos] != '\0'; parser->pos++) {
   d6d40:	6807      	ldr	r7, [r0, #0]
   d6d42:	3701      	adds	r7, #1
   d6d44:	6007      	str	r7, [r0, #0]
   d6d46:	e65c      	b.n	d6a02 <_ZN21JsonParserGeneratorRK10jsmn_parseEPNS_11jsmn_parserEPKcjPNS_9jsmntok_tEj+0xe>
				return JSMN_ERROR_INVAL;
#endif
		}
	}

	if (tokens != NULL) {
   d6d48:	b1a3      	cbz	r3, d6d74 <_ZN21JsonParserGeneratorRK10jsmn_parseEPNS_11jsmn_parserEPKcjPNS_9jsmntok_tEj+0x380>
		for (i = parser->toknext - 1; i >= 0; i--) {
   d6d4a:	6842      	ldr	r2, [r0, #4]
   d6d4c:	1e51      	subs	r1, r2, #1
   d6d4e:	eb03 1302 	add.w	r3, r3, r2, lsl #4
   d6d52:	2900      	cmp	r1, #0
   d6d54:	db0e      	blt.n	d6d74 <_ZN21JsonParserGeneratorRK10jsmn_parseEPNS_11jsmn_parserEPKcjPNS_9jsmntok_tEj+0x380>
			/* Unmatched opened object or array */
			if (tokens[i].start != -1 && tokens[i].end == -1) {
   d6d56:	f853 2c0c 	ldr.w	r2, [r3, #-12]
   d6d5a:	3201      	adds	r2, #1
   d6d5c:	d003      	beq.n	d6d66 <_ZN21JsonParserGeneratorRK10jsmn_parseEPNS_11jsmn_parserEPKcjPNS_9jsmntok_tEj+0x372>
   d6d5e:	f853 2c08 	ldr.w	r2, [r3, #-8]
   d6d62:	3201      	adds	r2, #1
   d6d64:	d009      	beq.n	d6d7a <_ZN21JsonParserGeneratorRK10jsmn_parseEPNS_11jsmn_parserEPKcjPNS_9jsmntok_tEj+0x386>
#endif
		}
	}

	if (tokens != NULL) {
		for (i = parser->toknext - 1; i >= 0; i--) {
   d6d66:	3901      	subs	r1, #1
   d6d68:	3b10      	subs	r3, #16
   d6d6a:	e7f2      	b.n	d6d52 <_ZN21JsonParserGeneratorRK10jsmn_parseEPNS_11jsmn_parserEPKcjPNS_9jsmntok_tEj+0x35e>
#else
				for (i = parser->toknext - 1; i >= 0; i--) {
					token = &tokens[i];
					if (token->start != -1 && token->end == -1) {
						if (token->type != type) {
							return JSMN_ERROR_INVAL;
   d6d6c:	f06f 0001 	mvn.w	r0, #1
   d6d70:	e8bd 8ff0 	ldmia.w	sp!, {r4, r5, r6, r7, r8, r9, sl, fp, pc}
   d6d74:	4620      	mov	r0, r4
   d6d76:	e8bd 8ff0 	ldmia.w	sp!, {r4, r5, r6, r7, r8, r9, sl, fp, pc}

	if (tokens != NULL) {
		for (i = parser->toknext - 1; i >= 0; i--) {
			/* Unmatched opened object or array */
			if (tokens[i].start != -1 && tokens[i].end == -1) {
				return JSMN_ERROR_PART;
   d6d7a:	f06f 0002 	mvn.w	r0, #2
   d6d7e:	e8bd 8ff0 	ldmia.w	sp!, {r4, r5, r6, r7, r8, r9, sl, fp, pc}
		parser->pos--;
		return 0;
	}
	token = jsmn_alloc_token(parser, tokens, num_tokens);
	if (token == NULL) {
		parser->pos = start;
   d6d82:	f8c0 c000 	str.w	ip, [r0]
		return JSMN_ERROR_NOMEM;
   d6d86:	f04f 30ff 	mov.w	r0, #4294967295	; 0xffffffff
   d6d8a:	e8bd 8ff0 	ldmia.w	sp!, {r4, r5, r6, r7, r8, r9, sl, fp, pc}

000d6d8e <_ZN10JsonParser5parseEv>:
	else {
		return false;
	}
}

bool JsonParser::parse() {
   d6d8e:	b5f7      	push	{r0, r1, r2, r4, r5, r6, r7, lr}
	if (tokens) {
   d6d90:	6943      	ldr	r3, [r0, #20]
	else {
		return false;
	}
}

bool JsonParser::parse() {
   d6d92:	4604      	mov	r4, r0
   d6d94:	f100 0620 	add.w	r6, r0, #32
	if (tokens) {
   d6d98:	b1f3      	cbz	r3, d6dd8 <_ZN10JsonParser5parseEv+0x4a>
/**
 * Creates a new parser based over a given  buffer with an array of tokens
 * available.
 */
void jsmn_init(jsmn_parser *parser) {
	parser->pos = 0;
   d6d9a:	2200      	movs	r2, #0
   d6d9c:	6202      	str	r2, [r0, #32]
	parser->toknext = 0;
   d6d9e:	6242      	str	r2, [r0, #36]	; 0x24
	parser->toksuper = -1;
   d6da0:	f04f 32ff 	mov.w	r2, #4294967295	; 0xffffffff
   d6da4:	6282      	str	r2, [r0, #40]	; 0x28

bool JsonParser::parse() {
	if (tokens) {
		// Try to use the existing token buffer if possible
		JsonParserGeneratorRK::jsmn_init(&parser);
		int result = JsonParserGeneratorRK::jsmn_parse(&parser, buffer, offset, tokens, maxTokens);
   d6da6:	69c2      	ldr	r2, [r0, #28]
   d6da8:	9200      	str	r2, [sp, #0]
   d6daa:	68c2      	ldr	r2, [r0, #12]
   d6dac:	6841      	ldr	r1, [r0, #4]
   d6dae:	4630      	mov	r0, r6
   d6db0:	f7ff fe20 	bl	d69f4 <_ZN21JsonParserGeneratorRK10jsmn_parseEPNS_11jsmn_parserEPKcjPNS_9jsmntok_tEj>
		if (result == JsonParserGeneratorRK::JSMN_ERROR_NOMEM) {
   d6db4:	1c43      	adds	r3, r0, #1
   d6db6:	d109      	bne.n	d6dcc <_ZN10JsonParser5parseEv+0x3e>
			if (staticBuffers) {
   d6db8:	7c25      	ldrb	r5, [r4, #16]
   d6dba:	b10d      	cbz	r5, d6dc0 <_ZN10JsonParser5parseEv+0x32>
				// If using static buffers and there is not enough space, fail
				return false;
   d6dbc:	2000      	movs	r0, #0
   d6dbe:	e033      	b.n	d6e28 <_ZN10JsonParser5parseEv+0x9a>
			}
			free(tokens);
   d6dc0:	6960      	ldr	r0, [r4, #20]
   d6dc2:	f000 ff7f 	bl	d7cc4 <free>
			tokens = 0;
   d6dc6:	6165      	str	r5, [r4, #20]
			maxTokens = 0;
   d6dc8:	61e5      	str	r5, [r4, #28]
   d6dca:	e005      	b.n	d6dd8 <_ZN10JsonParser5parseEv+0x4a>
		}
		else
		if (result < 0) {
   d6dcc:	2800      	cmp	r0, #0
   d6dce:	dbf5      	blt.n	d6dbc <_ZN10JsonParser5parseEv+0x2e>
			// Failed to parse: JSMN_ERROR_INVAL or JSMN_ERROR_PART
			return false;
		}
		else {
			tokensEnd = &tokens[result];
   d6dd0:	6963      	ldr	r3, [r4, #20]
   d6dd2:	eb03 1300 	add.w	r3, r3, r0, lsl #4
   d6dd6:	e025      	b.n	d6e24 <_ZN10JsonParser5parseEv+0x96>
/**
 * Creates a new parser based over a given  buffer with an array of tokens
 * available.
 */
void jsmn_init(jsmn_parser *parser) {
	parser->pos = 0;
   d6dd8:	2500      	movs	r5, #0
	parser->toknext = 0;
	parser->toksuper = -1;
   d6dda:	f04f 37ff 	mov.w	r7, #4294967295	; 0xffffffff
/**
 * Creates a new parser based over a given  buffer with an array of tokens
 * available.
 */
void jsmn_init(jsmn_parser *parser) {
	parser->pos = 0;
   d6dde:	6225      	str	r5, [r4, #32]
	parser->toknext = 0;
   d6de0:	6265      	str	r5, [r4, #36]	; 0x24
	parser->toksuper = -1;
   d6de2:	62a7      	str	r7, [r4, #40]	; 0x28
		}
	}

	// Pass 1: determine now many tokens we need
	JsonParserGeneratorRK::jsmn_init(&parser);
	int result = JsonParserGeneratorRK::jsmn_parse(&parser, buffer, offset, 0, 0);
   d6de4:	9500      	str	r5, [sp, #0]
   d6de6:	462b      	mov	r3, r5
   d6de8:	68e2      	ldr	r2, [r4, #12]
   d6dea:	6861      	ldr	r1, [r4, #4]
   d6dec:	4630      	mov	r0, r6
   d6dee:	f7ff fe01 	bl	d69f4 <_ZN21JsonParserGeneratorRK10jsmn_parseEPNS_11jsmn_parserEPKcjPNS_9jsmntok_tEj>
	if (result < 0) {
   d6df2:	2800      	cmp	r0, #0
   d6df4:	dbe2      	blt.n	d6dbc <_ZN10JsonParser5parseEv+0x2e>
	}

	// If we get here, tokens will always be == 0; it would have been freed if it was
	// too small, and this code is never executed for staticBuffers == true

	maxTokens = (size_t) result;
   d6df6:	61e0      	str	r0, [r4, #28]
	if (maxTokens > 0) {
   d6df8:	d013      	beq.n	d6e22 <_ZN10JsonParser5parseEv+0x94>
		tokens = (JsonParserGeneratorRK::jsmntok_t *)malloc(sizeof(JsonParserGeneratorRK::jsmntok_t) * maxTokens);
   d6dfa:	0100      	lsls	r0, r0, #4
   d6dfc:	f000 ff5a 	bl	d7cb4 <malloc>

		JsonParserGeneratorRK::jsmn_init(&parser);
		int result = JsonParserGeneratorRK::jsmn_parse(&parser, buffer, offset, tokens, maxTokens);
   d6e00:	69e2      	ldr	r2, [r4, #28]
	// If we get here, tokens will always be == 0; it would have been freed if it was
	// too small, and this code is never executed for staticBuffers == true

	maxTokens = (size_t) result;
	if (maxTokens > 0) {
		tokens = (JsonParserGeneratorRK::jsmntok_t *)malloc(sizeof(JsonParserGeneratorRK::jsmntok_t) * maxTokens);
   d6e02:	6160      	str	r0, [r4, #20]
   d6e04:	4603      	mov	r3, r0

		JsonParserGeneratorRK::jsmn_init(&parser);
		int result = JsonParserGeneratorRK::jsmn_parse(&parser, buffer, offset, tokens, maxTokens);
   d6e06:	9200      	str	r2, [sp, #0]
/**
 * Creates a new parser based over a given  buffer with an array of tokens
 * available.
 */
void jsmn_init(jsmn_parser *parser) {
	parser->pos = 0;
   d6e08:	6225      	str	r5, [r4, #32]
	parser->toknext = 0;
   d6e0a:	6265      	str	r5, [r4, #36]	; 0x24
	parser->toksuper = -1;
   d6e0c:	62a7      	str	r7, [r4, #40]	; 0x28
	maxTokens = (size_t) result;
	if (maxTokens > 0) {
		tokens = (JsonParserGeneratorRK::jsmntok_t *)malloc(sizeof(JsonParserGeneratorRK::jsmntok_t) * maxTokens);

		JsonParserGeneratorRK::jsmn_init(&parser);
		int result = JsonParserGeneratorRK::jsmn_parse(&parser, buffer, offset, tokens, maxTokens);
   d6e0e:	68e2      	ldr	r2, [r4, #12]
   d6e10:	6861      	ldr	r1, [r4, #4]
   d6e12:	4630      	mov	r0, r6
   d6e14:	f7ff fdee 	bl	d69f4 <_ZN21JsonParserGeneratorRK10jsmn_parseEPNS_11jsmn_parserEPKcjPNS_9jsmntok_tEj>

		tokensEnd = &tokens[result];
   d6e18:	6963      	ldr	r3, [r4, #20]
   d6e1a:	eb03 1000 	add.w	r0, r3, r0, lsl #4
   d6e1e:	61a0      	str	r0, [r4, #24]
   d6e20:	e001      	b.n	d6e26 <_ZN10JsonParser5parseEv+0x98>
	}
	else {
		tokensEnd = tokens;
   d6e22:	6963      	ldr	r3, [r4, #20]
   d6e24:	61a3      	str	r3, [r4, #24]
	for(const JsonParserGeneratorRK::jsmntok_t *token = tokens; token < tokensEnd; token++) {
		printf("%d, %d, %d, %d\n", token->type, token->start, token->end, token->size);
	}
	*/

	return true;
   d6e26:	2001      	movs	r0, #1
}
   d6e28:	b003      	add	sp, #12
   d6e2a:	bdf0      	pop	{r4, r5, r6, r7, pc}

000d6e2c <_GLOBAL__sub_I__ZN10JsonBufferC2Ev>:
   d6e2c:	f000 bcd6 	b.w	d77dc <HAL_Pin_Map>

000d6e30 <_GLOBAL__sub_I_MinimumSerial.cpp>:
   d6e30:	f000 bcd4 	b.w	d77dc <HAL_Pin_Map>

000d6e34 <_GLOBAL__sub_I__ZN7FatFile5m_cwdE>:
   d6e34:	f000 bcd2 	b.w	d77dc <HAL_Pin_Map>

000d6e38 <_GLOBAL__sub_I__ZN7FatFile11lfnChecksumEPh>:
   d6e38:	f000 bcd0 	b.w	d77dc <HAL_Pin_Map>

000d6e3c <_ZN5Print5writeEPKc>:

    int getWriteError() { return write_error; }
    void clearWriteError() { setWriteError(0); }

    virtual size_t write(uint8_t) = 0;
    size_t write(const char *str) {
   d6e3c:	b570      	push	{r4, r5, r6, lr}
   d6e3e:	4605      	mov	r5, r0
      if (str == NULL) return 0;
   d6e40:	460c      	mov	r4, r1
      return write((const uint8_t *)str, strlen(str));
    }
   d6e42:	4608      	mov	r0, r1
    int getWriteError() { return write_error; }
    void clearWriteError() { setWriteError(0); }

    virtual size_t write(uint8_t) = 0;
    size_t write(const char *str) {
      if (str == NULL) return 0;
   d6e44:	b149      	cbz	r1, d6e5a <_ZN5Print5writeEPKc+0x1e>
      return write((const uint8_t *)str, strlen(str));
   d6e46:	f003 fc10 	bl	da66a <strlen>
   d6e4a:	682b      	ldr	r3, [r5, #0]
   d6e4c:	4602      	mov	r2, r0
   d6e4e:	4621      	mov	r1, r4
   d6e50:	4628      	mov	r0, r5
   d6e52:	68db      	ldr	r3, [r3, #12]
    }
   d6e54:	e8bd 4070 	ldmia.w	sp!, {r4, r5, r6, lr}
    void clearWriteError() { setWriteError(0); }

    virtual size_t write(uint8_t) = 0;
    size_t write(const char *str) {
      if (str == NULL) return 0;
      return write((const uint8_t *)str, strlen(str));
   d6e58:	4718      	bx	r3
    }
   d6e5a:	bd70      	pop	{r4, r5, r6, pc}

000d6e5c <_GLOBAL__sub_I__ZN7FatFile7dmpFileEP5Printmj>:
   d6e5c:	f000 bcbe 	b.w	d77dc <HAL_Pin_Map>

000d6e60 <_GLOBAL__sub_I__ZN7FatFile6getSFNEPc>:
   d6e60:	f000 bcbc 	b.w	d77dc <HAL_Pin_Map>

000d6e64 <_GLOBAL__sub_I__ZN8FatCache4readEmh>:
   d6e64:	f000 bcba 	b.w	d77dc <HAL_Pin_Map>

000d6e68 <_GLOBAL__sub_I__ZN11StdioStream6fcloseEv>:
   d6e68:	f000 bcb8 	b.w	d77dc <HAL_Pin_Map>

000d6e6c <_GLOBAL__sub_I__ZN13FatStreamBase5getchEv>:
   d6e6c:	f000 bcb6 	b.w	d77dc <HAL_Pin_Map>

000d6e70 <_GLOBAL__sub_I__ZN7istream3getEv>:
   d6e70:	f000 bcb4 	b.w	d77dc <HAL_Pin_Map>

000d6e74 <_GLOBAL__sub_I__ZN7ostream7do_fillEj>:
   d6e74:	f000 bcb2 	b.w	d77dc <HAL_Pin_Map>

000d6e78 <_GLOBAL__sub_I__ZN9SdSpiCard5beginEP14SdSpiAltDriverhN8particle13__SPISettingsE>:
   d6e78:	f000 bcb0 	b.w	d77dc <HAL_Pin_Map>

000d6e7c <_GLOBAL__sub_I__ZN11SdSpiCardEX9readBlockEmPh>:
   d6e7c:	f000 bcae 	b.w	d77dc <HAL_Pin_Map>

000d6e80 <_GLOBAL__sub_I__ZN10SdioCardEX9readBlockEmPh>:
   d6e80:	f000 bcac 	b.w	d77dc <HAL_Pin_Map>

000d6e84 <_GLOBAL__sub_I__ZN14SdSpiAltDriver8activateEv>:
   d6e84:	f000 bcaa 	b.w	d77dc <HAL_Pin_Map>

000d6e88 <_GLOBAL__sub_I_SdSpiSAM3X.cpp>:
   d6e88:	f000 bca8 	b.w	d77dc <HAL_Pin_Map>

000d6e8c <_GLOBAL__sub_I_SdSpiTeensy3.cpp>:
   d6e8c:	f000 bca6 	b.w	d77dc <HAL_Pin_Map>

000d6e90 <_ZN20SparkCorePolledTimer5ResetEv>:

void SparkCorePolledTimer::SetTimeout(unsigned long timeoutMS){
    intervalMS=timeoutMS;
}

void SparkCorePolledTimer::Reset(void){
   d6e90:	b510      	push	{r4, lr}
   d6e92:	4604      	mov	r4, r0
   d6e94:	f000 fc8a 	bl	d77ac <HAL_Timer_Get_Milli_Seconds>
    timeMark=millis();
   d6e98:	6020      	str	r0, [r4, #0]
   d6e9a:	bd10      	pop	{r4, pc}

000d6e9c <_ZN20SparkCorePolledTimerC1Em>:
//Check header file for detials on use...
//#include "application.h"
#include "SparkCorePolledTimer.h"

SparkCorePolledTimer::SparkCorePolledTimer(unsigned long timeoutMS){
   d6e9c:	b538      	push	{r3, r4, r5, lr}
   d6e9e:	4604      	mov	r4, r0
   d6ea0:	460d      	mov	r5, r1
    Reset();
   d6ea2:	f7ff fff5 	bl	d6e90 <_ZN20SparkCorePolledTimer5ResetEv>
    SetTimeout(timeoutMS);
    callback=NULL;
   d6ea6:	2300      	movs	r3, #0
}

void SparkCorePolledTimer::SetTimeout(unsigned long timeoutMS){
    intervalMS=timeoutMS;
   d6ea8:	6065      	str	r5, [r4, #4]
#include "SparkCorePolledTimer.h"

SparkCorePolledTimer::SparkCorePolledTimer(unsigned long timeoutMS){
    Reset();
    SetTimeout(timeoutMS);
    callback=NULL;
   d6eaa:	60a3      	str	r3, [r4, #8]
}
   d6eac:	4620      	mov	r0, r4
   d6eae:	bd38      	pop	{r3, r4, r5, pc}

000d6eb0 <_ZN20SparkCorePolledTimer10HasElapsedEv>:

void SparkCorePolledTimer::Reset(void){
    timeMark=millis();
}

int SparkCorePolledTimer::HasElapsed(){
   d6eb0:	b510      	push	{r4, lr}
   d6eb2:	4604      	mov	r4, r0
   d6eb4:	f000 fc7a 	bl	d77ac <HAL_Timer_Get_Milli_Seconds>
  
    timeCurrent=millis();
    timeElapsed=timeCurrent-timeMark;  


    if(timeElapsed>=intervalMS) {
   d6eb8:	6823      	ldr	r3, [r4, #0]
   d6eba:	1ac0      	subs	r0, r0, r3
   d6ebc:	6863      	ldr	r3, [r4, #4]
   d6ebe:	4298      	cmp	r0, r3
   d6ec0:	d304      	bcc.n	d6ecc <_ZN20SparkCorePolledTimer10HasElapsedEv+0x1c>
        Reset();
   d6ec2:	4620      	mov	r0, r4
   d6ec4:	f7ff ffe4 	bl	d6e90 <_ZN20SparkCorePolledTimer5ResetEv>
        result=true;
   d6ec8:	2001      	movs	r0, #1
   d6eca:	bd10      	pop	{r4, pc}
}

int SparkCorePolledTimer::HasElapsed(){
    unsigned long timeCurrent;
    unsigned long timeElapsed;
    int result=false;
   d6ecc:	2000      	movs	r0, #0
    if(timeElapsed>=intervalMS) {
        Reset();
        result=true;
    }
    return(result);  
}
   d6ece:	bd10      	pop	{r4, pc}

000d6ed0 <_ZN20SparkCorePolledTimer6UpdateEv>:

void SparkCorePolledTimer::Update(void){
   d6ed0:	b510      	push	{r4, lr}
    if (callback!=NULL) {
   d6ed2:	6883      	ldr	r3, [r0, #8]
        result=true;
    }
    return(result);  
}

void SparkCorePolledTimer::Update(void){
   d6ed4:	4604      	mov	r4, r0
    if (callback!=NULL) {
   d6ed6:	b133      	cbz	r3, d6ee6 <_ZN20SparkCorePolledTimer6UpdateEv+0x16>
        if(HasElapsed()) {
   d6ed8:	f7ff ffea 	bl	d6eb0 <_ZN20SparkCorePolledTimer10HasElapsedEv>
   d6edc:	b118      	cbz	r0, d6ee6 <_ZN20SparkCorePolledTimer6UpdateEv+0x16>
            callback();
   d6ede:	68a3      	ldr	r3, [r4, #8]
        }
    }
}
   d6ee0:	e8bd 4010 	ldmia.w	sp!, {r4, lr}
}

void SparkCorePolledTimer::Update(void){
    if (callback!=NULL) {
        if(HasElapsed()) {
            callback();
   d6ee4:	4718      	bx	r3
   d6ee6:	bd10      	pop	{r4, pc}

000d6ee8 <_ZN20SparkCorePolledTimer11SetCallbackEPFvvE>:
        }
    }
}

void SparkCorePolledTimer::SetCallback(void (*callbackFunction)(void)){
    callback=callbackFunction;
   d6ee8:	6081      	str	r1, [r0, #8]
   d6eea:	4770      	bx	lr

000d6eec <_GLOBAL__sub_I__ZN20SparkCorePolledTimerC2Em>:
   d6eec:	f000 bc76 	b.w	d77dc <HAL_Pin_Map>

000d6ef0 <_Z10BlynkDelaym>:
#endif

#ifdef _BLYNK_USE_DEFAULT_DELAY
    void BlynkDelay(millis_time_t ms)
    {
        return delay(ms);
   d6ef0:	f000 bf38 	b.w	d7d64 <delay>

000d6ef4 <_Z11BlynkMillisv>:
   d6ef4:	f000 bc5a 	b.w	d77ac <HAL_Timer_Get_Milli_Seconds>

000d6ef8 <_GLOBAL__sub_I__Z10BlynkResetv>:
   d6ef8:	f000 bc70 	b.w	d77dc <HAL_Pin_Map>

000d6efc <BlynkWidgetRead>:

void BlynkNoOpCbk()
{}

void BlynkWidgetRead(BlynkReq BLYNK_UNUSED &request)
{
   d6efc:	4770      	bx	lr

000d6efe <BlynkWidgetWrite>:
    BLYNK_LOG2(BLYNK_F("No handler for reading from pin "), request.pin);
}

void BlynkWidgetWrite(BlynkReq BLYNK_UNUSED &request, const BlynkParam BLYNK_UNUSED &param)
{
   d6efe:	4770      	bx	lr

000d6f00 <BlynkNoOpCbk>:
#include <Blynk/BlynkConfig.h>
#include <Blynk/BlynkHandlers.h>
#include <Blynk/BlynkDebug.h>

void BlynkNoOpCbk()
{}
   d6f00:	4770      	bx	lr
	...

000d6f04 <GetReadHandler>:
#endif
};

WidgetReadHandler GetReadHandler(uint8_t pin)
{
    if (pin >= BLYNK_COUNT_OF(BlynkReadHandlerVector))
   d6f04:	287f      	cmp	r0, #127	; 0x7f
        return NULL;
#ifdef BLYNK_HAS_PROGMEM
    return (WidgetReadHandler)pgm_read_word(&BlynkReadHandlerVector[pin]);
#else
    return BlynkReadHandlerVector[pin];
   d6f06:	bf9a      	itte	ls
   d6f08:	4b02      	ldrls	r3, [pc, #8]	; (d6f14 <GetReadHandler+0x10>)
   d6f0a:	f853 0020 	ldrls.w	r0, [r3, r0, lsl #2]
};

WidgetReadHandler GetReadHandler(uint8_t pin)
{
    if (pin >= BLYNK_COUNT_OF(BlynkReadHandlerVector))
        return NULL;
   d6f0e:	2000      	movhi	r0, #0
#ifdef BLYNK_HAS_PROGMEM
    return (WidgetReadHandler)pgm_read_word(&BlynkReadHandlerVector[pin]);
#else
    return BlynkReadHandlerVector[pin];
#endif
}
   d6f10:	4770      	bx	lr
   d6f12:	bf00      	nop
   d6f14:	000db8c8 	.word	0x000db8c8

000d6f18 <GetWriteHandler>:

WidgetWriteHandler GetWriteHandler(uint8_t pin)
{
    if (pin >= BLYNK_COUNT_OF(BlynkWriteHandlerVector))
   d6f18:	287f      	cmp	r0, #127	; 0x7f
        return NULL;
#ifdef BLYNK_HAS_PROGMEM
    return (WidgetWriteHandler)pgm_read_word(&BlynkWriteHandlerVector[pin]);
#else
    return BlynkWriteHandlerVector[pin];
   d6f1a:	bf9a      	itte	ls
   d6f1c:	4b02      	ldrls	r3, [pc, #8]	; (d6f28 <GetWriteHandler+0x10>)
   d6f1e:	f853 0020 	ldrls.w	r0, [r3, r0, lsl #2]
}

WidgetWriteHandler GetWriteHandler(uint8_t pin)
{
    if (pin >= BLYNK_COUNT_OF(BlynkWriteHandlerVector))
        return NULL;
   d6f22:	2000      	movhi	r0, #0
#ifdef BLYNK_HAS_PROGMEM
    return (WidgetWriteHandler)pgm_read_word(&BlynkWriteHandlerVector[pin]);
#else
    return BlynkWriteHandlerVector[pin];
#endif
}
   d6f24:	4770      	bx	lr
   d6f26:	bf00      	nop
   d6f28:	000db6c8 	.word	0x000db6c8

000d6f2c <_GLOBAL__sub_I_BlynkNoOpCbk>:
   d6f2c:	f000 bc56 	b.w	d77dc <HAL_Pin_Map>

000d6f30 <_GLOBAL__sub_I__ZN10BlynkTimerC2Ev>:
   d6f30:	f000 bc54 	b.w	d77dc <HAL_Pin_Map>

000d6f34 <_GLOBAL__sub_I__ZN23GoogleMapsDeviceLocatorC2Ev>:
   d6f34:	4b02      	ldr	r3, [pc, #8]	; (d6f40 <_GLOBAL__sub_I__ZN23GoogleMapsDeviceLocatorC2Ev+0xc>)
   d6f36:	2201      	movs	r2, #1
   d6f38:	701a      	strb	r2, [r3, #0]
   d6f3a:	f000 bc4f 	b.w	d77dc <HAL_Pin_Map>
   d6f3e:	bf00      	nop
   d6f40:	2003e368 	.word	0x2003e368

000d6f44 <_ZL11expandColort>:
  tilesY(tY), remapFn(NULL) { }

// Expand 16-bit input color (Adafruit_GFX colorspace) to 24-bit (NeoPixel)
// (w/gamma adjustment)
static uint32_t expandColor(uint16_t color) {
  return ((uint32_t)pgm_read_byte(&gamma5[ color >> 11       ]) << 16) |
   d6f44:	4a07      	ldr	r2, [pc, #28]	; (d6f64 <_ZL11expandColort+0x20>)
   d6f46:	12c3      	asrs	r3, r0, #11
         ((uint32_t)pgm_read_byte(&gamma6[(color >> 5) & 0x3F]) <<  8) |
                    pgm_read_byte(&gamma5[ color       & 0x1F]);
   d6f48:	5cd1      	ldrb	r1, [r2, r3]

// Expand 16-bit input color (Adafruit_GFX colorspace) to 24-bit (NeoPixel)
// (w/gamma adjustment)
static uint32_t expandColor(uint16_t color) {
  return ((uint32_t)pgm_read_byte(&gamma5[ color >> 11       ]) << 16) |
         ((uint32_t)pgm_read_byte(&gamma6[(color >> 5) & 0x3F]) <<  8) |
   d6f4a:	f000 031f 	and.w	r3, r0, #31
   d6f4e:	f3c0 1045 	ubfx	r0, r0, #5, #6
                    pgm_read_byte(&gamma5[ color       & 0x1F]);
   d6f52:	5cd3      	ldrb	r3, [r2, r3]
   d6f54:	4a04      	ldr	r2, [pc, #16]	; (d6f68 <_ZL11expandColort+0x24>)
   d6f56:	5c10      	ldrb	r0, [r2, r0]
   d6f58:	ea43 4301 	orr.w	r3, r3, r1, lsl #16
}
   d6f5c:	ea43 2000 	orr.w	r0, r3, r0, lsl #8
   d6f60:	4770      	bx	lr
   d6f62:	bf00      	nop
   d6f64:	000dbb00 	.word	0x000dbb00
   d6f68:	000dbb20 	.word	0x000dbb20

000d6f6c <_ZN18Adafruit_NeoMatrix10fillScreenEt>:
  }

  setPixelColor(tileOffset + pixelOffset, passThruFlag ? passThruColor : expandColor(color));
}

void Adafruit_NeoMatrix::fillScreen(uint16_t color) {
   d6f6c:	b5f8      	push	{r3, r4, r5, r6, r7, lr}
  uint16_t i, n;
  uint32_t c;

  c = passThruFlag ? passThruColor : expandColor(color);
   d6f6e:	f890 3040 	ldrb.w	r3, [r0, #64]	; 0x40
  }

  setPixelColor(tileOffset + pixelOffset, passThruFlag ? passThruColor : expandColor(color));
}

void Adafruit_NeoMatrix::fillScreen(uint16_t color) {
   d6f72:	4604      	mov	r4, r0
  uint16_t i, n;
  uint32_t c;

  c = passThruFlag ? passThruColor : expandColor(color);
   d6f74:	b10b      	cbz	r3, d6f7a <_ZN18Adafruit_NeoMatrix10fillScreenEt+0xe>
   d6f76:	6bc6      	ldr	r6, [r0, #60]	; 0x3c
   d6f78:	e003      	b.n	d6f82 <_ZN18Adafruit_NeoMatrix10fillScreenEt+0x16>
   d6f7a:	4608      	mov	r0, r1
   d6f7c:	f7ff ffe2 	bl	d6f44 <_ZL11expandColort>
   d6f80:	4606      	mov	r6, r0
  n   = numPixels();
   d6f82:	341c      	adds	r4, #28
   d6f84:	4620      	mov	r0, r4
   d6f86:	f000 fb61 	bl	d764c <_ZNK17Adafruit_NeoPixel9numPixelsEv>
   d6f8a:	2500      	movs	r5, #0
   d6f8c:	4607      	mov	r7, r0
   d6f8e:	b2a9      	uxth	r1, r5
  for(i=0; i<n; i++) setPixelColor(i, c);
   d6f90:	42b9      	cmp	r1, r7
   d6f92:	d205      	bcs.n	d6fa0 <_ZN18Adafruit_NeoMatrix10fillScreenEt+0x34>
   d6f94:	4632      	mov	r2, r6
   d6f96:	4620      	mov	r0, r4
   d6f98:	f000 fb08 	bl	d75ac <_ZN17Adafruit_NeoPixel13setPixelColorEtm>
   d6f9c:	3501      	adds	r5, #1
   d6f9e:	e7f6      	b.n	d6f8e <_ZN18Adafruit_NeoMatrix10fillScreenEt+0x22>
   d6fa0:	bdf8      	pop	{r3, r4, r5, r6, r7, pc}

000d6fa2 <_ZN18Adafruit_NeoMatrix9drawPixelEsst>:
// Call without a value to reset (disable passthrough)
void Adafruit_NeoMatrix::setPassThruColor(void) {
  passThruFlag = false;
}

void Adafruit_NeoMatrix::drawPixel(int16_t x, int16_t y, uint16_t color) {
   d6fa2:	e92d 43f8 	stmdb	sp!, {r3, r4, r5, r6, r7, r8, r9, lr}
   d6fa6:	4606      	mov	r6, r0

  if((x < 0) || (y < 0) || (x >= _width) || (y >= _height)) return;
   d6fa8:	1e08      	subs	r0, r1, #0
// Call without a value to reset (disable passthrough)
void Adafruit_NeoMatrix::setPassThruColor(void) {
  passThruFlag = false;
}

void Adafruit_NeoMatrix::drawPixel(int16_t x, int16_t y, uint16_t color) {
   d6faa:	461f      	mov	r7, r3

  if((x < 0) || (y < 0) || (x >= _width) || (y >= _height)) return;
   d6fac:	f2c0 80be 	blt.w	d712c <_ZN18Adafruit_NeoMatrix9drawPixelEsst+0x18a>
   d6fb0:	2a00      	cmp	r2, #0
   d6fb2:	f2c0 80bb 	blt.w	d712c <_ZN18Adafruit_NeoMatrix9drawPixelEsst+0x18a>
   d6fb6:	f9b6 300c 	ldrsh.w	r3, [r6, #12]
   d6fba:	4283      	cmp	r3, r0
   d6fbc:	f340 80b6 	ble.w	d712c <_ZN18Adafruit_NeoMatrix9drawPixelEsst+0x18a>
   d6fc0:	f9b6 300e 	ldrsh.w	r3, [r6, #14]
   d6fc4:	4293      	cmp	r3, r2
   d6fc6:	f340 80b1 	ble.w	d712c <_ZN18Adafruit_NeoMatrix9drawPixelEsst+0x18a>

  int16_t t;
  switch(rotation) {
   d6fca:	7e73      	ldrb	r3, [r6, #25]
   d6fcc:	2b02      	cmp	r3, #2
   d6fce:	d009      	beq.n	d6fe4 <_ZN18Adafruit_NeoMatrix9drawPixelEsst+0x42>
   d6fd0:	2b03      	cmp	r3, #3
   d6fd2:	d010      	beq.n	d6ff6 <_ZN18Adafruit_NeoMatrix9drawPixelEsst+0x54>
   d6fd4:	2b01      	cmp	r3, #1
   d6fd6:	d113      	bne.n	d7000 <_ZN18Adafruit_NeoMatrix9drawPixelEsst+0x5e>
   case 1:
    t = x;
    x = WIDTH  - 1 - y;
   d6fd8:	8933      	ldrh	r3, [r6, #8]
   d6fda:	3b01      	subs	r3, #1
   d6fdc:	1a9b      	subs	r3, r3, r2
   d6fde:	4602      	mov	r2, r0
   d6fe0:	b218      	sxth	r0, r3
   d6fe2:	e00d      	b.n	d7000 <_ZN18Adafruit_NeoMatrix9drawPixelEsst+0x5e>
    y = t;
    break;
   case 2:
    x = WIDTH  - 1 - x;
   d6fe4:	8933      	ldrh	r3, [r6, #8]
   d6fe6:	3b01      	subs	r3, #1
   d6fe8:	1a18      	subs	r0, r3, r0
    y = HEIGHT - 1 - y;
   d6fea:	8973      	ldrh	r3, [r6, #10]
   d6fec:	3b01      	subs	r3, #1
   d6fee:	1a9a      	subs	r2, r3, r2
    t = x;
    x = WIDTH  - 1 - y;
    y = t;
    break;
   case 2:
    x = WIDTH  - 1 - x;
   d6ff0:	b200      	sxth	r0, r0
    y = HEIGHT - 1 - y;
   d6ff2:	b212      	sxth	r2, r2
   d6ff4:	e004      	b.n	d7000 <_ZN18Adafruit_NeoMatrix9drawPixelEsst+0x5e>
    break;
   case 3:
    t = x;
    x = y;
    y = HEIGHT - 1 - t;
   d6ff6:	8973      	ldrh	r3, [r6, #10]
   d6ff8:	3b01      	subs	r3, #1
   d6ffa:	1a1b      	subs	r3, r3, r0
   d6ffc:	4610      	mov	r0, r2
   d6ffe:	b21a      	sxth	r2, r3
    break;
  }

  int tileOffset = 0, pixelOffset;

  if(remapFn) { // Custom X/Y remapping function
   d7000:	6bb3      	ldr	r3, [r6, #56]	; 0x38
   d7002:	b123      	cbz	r3, d700e <_ZN18Adafruit_NeoMatrix9drawPixelEsst+0x6c>
    pixelOffset = (*remapFn)(x, y);
   d7004:	b291      	uxth	r1, r2
   d7006:	b280      	uxth	r0, r0
   d7008:	4798      	blx	r3
    x = y;
    y = HEIGHT - 1 - t;
    break;
  }

  int tileOffset = 0, pixelOffset;
   d700a:	2100      	movs	r1, #0
   d700c:	e07b      	b.n	d7106 <_ZN18Adafruit_NeoMatrix9drawPixelEsst+0x164>

  if(remapFn) { // Custom X/Y remapping function
    pixelOffset = (*remapFn)(x, y);
  } else {      // Standard single matrix or tiled matrices

    uint8_t  corner = type & NEO_MATRIX_CORNER;
   d700e:	f896 3030 	ldrb.w	r3, [r6, #48]	; 0x30
    uint16_t minor, major, majorScale;

    if(tilesX) { // Tiled display, multiple matrices
   d7012:	f896 1033 	ldrb.w	r1, [r6, #51]	; 0x33

  if(remapFn) { // Custom X/Y remapping function
    pixelOffset = (*remapFn)(x, y);
  } else {      // Standard single matrix or tiled matrices

    uint8_t  corner = type & NEO_MATRIX_CORNER;
   d7016:	f003 0c03 	and.w	ip, r3, #3
    uint16_t minor, major, majorScale;

    if(tilesX) { // Tiled display, multiple matrices
   d701a:	2900      	cmp	r1, #0
   d701c:	d048      	beq.n	d70b0 <_ZN18Adafruit_NeoMatrix9drawPixelEsst+0x10e>
      uint16_t tile;

      minor = x / matrixWidth;            // Tile # X/Y; presume row major to
   d701e:	f896 e031 	ldrb.w	lr, [r6, #49]	; 0x31
      major = y / matrixHeight,           // start (will swap later if needed)
   d7022:	f896 8032 	ldrb.w	r8, [r6, #50]	; 0x32
    uint16_t minor, major, majorScale;

    if(tilesX) { // Tiled display, multiple matrices
      uint16_t tile;

      minor = x / matrixWidth;            // Tile # X/Y; presume row major to
   d7026:	fb90 f5fe 	sdiv	r5, r0, lr
   d702a:	b2ad      	uxth	r5, r5
      major = y / matrixHeight,           // start (will swap later if needed)
      x     = x - (minor * matrixWidth);  // Pixel X/Y within tile
   d702c:	fb92 f4f8 	sdiv	r4, r2, r8
   d7030:	fa1f f984 	uxth.w	r9, r4
   d7034:	fb1e f405 	smulbb	r4, lr, r5
   d7038:	1b00      	subs	r0, r0, r4
      y     = y - (major * matrixHeight); // (-* is less math than modulo)
   d703a:	fb18 f409 	smulbb	r4, r8, r9
   d703e:	1b12      	subs	r2, r2, r4

      // Determine corner of entry, flip axes if needed
      if(type & NEO_TILE_RIGHT)  minor = tilesX - 1 - minor;
   d7040:	069c      	lsls	r4, r3, #26
   d7042:	bf42      	ittt	mi
   d7044:	f101 34ff 	addmi.w	r4, r1, #4294967295	; 0xffffffff
   d7048:	1b65      	submi	r5, r4, r5
   d704a:	b2ad      	uxthmi	r5, r5
      if(type & NEO_TILE_BOTTOM) major = tilesY - 1 - major;
   d704c:	06dc      	lsls	r4, r3, #27
   d704e:	bf41      	itttt	mi
   d7050:	f896 4034 	ldrbmi.w	r4, [r6, #52]	; 0x34
   d7054:	f104 34ff 	addmi.w	r4, r4, #4294967295	; 0xffffffff
   d7058:	ebc9 0404 	rsbmi	r4, r9, r4
   d705c:	fa1f f984 	uxthmi.w	r9, r4

      // Determine actual major axis of tiling
      if((type & NEO_TILE_AXIS) == NEO_TILE_ROWS) {
   d7060:	065c      	lsls	r4, r3, #25
        majorScale = tilesX;
   d7062:	bf5d      	ittte	pl
   d7064:	464c      	movpl	r4, r9
   d7066:	b289      	uxthpl	r1, r1
   d7068:	46a9      	movpl	r9, r5
      } else {
        swap(major, minor);
        majorScale = tilesY;
   d706a:	f896 1034 	ldrbmi.w	r1, [r6, #52]	; 0x34
      if(type & NEO_TILE_RIGHT)  minor = tilesX - 1 - minor;
      if(type & NEO_TILE_BOTTOM) major = tilesY - 1 - major;

      // Determine actual major axis of tiling
      if((type & NEO_TILE_AXIS) == NEO_TILE_ROWS) {
        majorScale = tilesX;
   d706e:	bf58      	it	pl
   d7070:	4625      	movpl	r5, r4
        swap(major, minor);
        majorScale = tilesY;
      }

      // Determine tile number
      if((type & NEO_TILE_SEQUENCE) == NEO_TILE_PROGRESSIVE) {
   d7072:	061c      	lsls	r4, r3, #24
    if(tilesX) { // Tiled display, multiple matrices
      uint16_t tile;

      minor = x / matrixWidth;            // Tile # X/Y; presume row major to
      major = y / matrixHeight,           // start (will swap later if needed)
      x     = x - (minor * matrixWidth);  // Pixel X/Y within tile
   d7074:	b200      	sxth	r0, r0
      y     = y - (major * matrixHeight); // (-* is less math than modulo)
   d7076:	b212      	sxth	r2, r2
        swap(major, minor);
        majorScale = tilesY;
      }

      // Determine tile number
      if((type & NEO_TILE_SEQUENCE) == NEO_TILE_PROGRESSIVE) {
   d7078:	d405      	bmi.n	d7086 <_ZN18Adafruit_NeoMatrix9drawPixelEsst+0xe4>
        // All tiles in same order
        tile = major * majorScale + minor;
   d707a:	fb15 f101 	smulbb	r1, r5, r1
   d707e:	eb09 0401 	add.w	r4, r9, r1
   d7082:	b2a4      	uxth	r4, r4
   d7084:	e010      	b.n	d70a8 <_ZN18Adafruit_NeoMatrix9drawPixelEsst+0x106>
      } else {
        // Zigzag; alternate rows change direction.  On these rows,
        // this also flips the starting corner of the matrix for the
        // pixel math later.
        if(major & 1) {
   d7086:	07ec      	lsls	r4, r5, #31
   d7088:	d509      	bpl.n	d709e <_ZN18Adafruit_NeoMatrix9drawPixelEsst+0xfc>
          corner ^= NEO_MATRIX_CORNER;
          tile = (major + 1) * majorScale - 1 - minor;
   d708a:	3501      	adds	r5, #1
   d708c:	ea6f 0409 	mvn.w	r4, r9
   d7090:	fb15 f501 	smulbb	r5, r5, r1
   d7094:	1929      	adds	r1, r5, r4
      } else {
        // Zigzag; alternate rows change direction.  On these rows,
        // this also flips the starting corner of the matrix for the
        // pixel math later.
        if(major & 1) {
          corner ^= NEO_MATRIX_CORNER;
   d7096:	f08c 0c03 	eor.w	ip, ip, #3
          tile = (major + 1) * majorScale - 1 - minor;
   d709a:	b28c      	uxth	r4, r1
   d709c:	e004      	b.n	d70a8 <_ZN18Adafruit_NeoMatrix9drawPixelEsst+0x106>
        } else {
          tile =  major      * majorScale     + minor;
   d709e:	fb15 f501 	smulbb	r5, r5, r1
   d70a2:	eb09 0405 	add.w	r4, r9, r5
   d70a6:	b2a4      	uxth	r4, r4
        }
      }

      // Index of first pixel in tile
      tileOffset = tile * matrixWidth * matrixHeight;
   d70a8:	fb0e f104 	mul.w	r1, lr, r4
   d70ac:	fb08 f101 	mul.w	r1, r8, r1
    // Find pixel number within tile
    minor = x; // Presume row major to start (will swap later if needed)
    major = y;

    // Determine corner of entry, flip axes if needed
    if(corner & NEO_MATRIX_RIGHT)  minor = matrixWidth  - 1 - minor;
   d70b0:	f01c 0f02 	tst.w	ip, #2
   d70b4:	bf18      	it	ne
   d70b6:	f896 4031 	ldrbne.w	r4, [r6, #49]	; 0x31
      tileOffset = tile * matrixWidth * matrixHeight;

    } // else no tiling (handle as single tile)

    // Find pixel number within tile
    minor = x; // Presume row major to start (will swap later if needed)
   d70ba:	b280      	uxth	r0, r0
    major = y;

    // Determine corner of entry, flip axes if needed
    if(corner & NEO_MATRIX_RIGHT)  minor = matrixWidth  - 1 - minor;
   d70bc:	bf1e      	ittt	ne
   d70be:	f104 34ff 	addne.w	r4, r4, #4294967295	; 0xffffffff
   d70c2:	1a20      	subne	r0, r4, r0
   d70c4:	b280      	uxthne	r0, r0
    if(corner & NEO_MATRIX_BOTTOM) major = matrixHeight - 1 - major;
   d70c6:	f01c 0f01 	tst.w	ip, #1
   d70ca:	bf18      	it	ne
   d70cc:	f896 4032 	ldrbne.w	r4, [r6, #50]	; 0x32

    } // else no tiling (handle as single tile)

    // Find pixel number within tile
    minor = x; // Presume row major to start (will swap later if needed)
    major = y;
   d70d0:	b292      	uxth	r2, r2

    // Determine corner of entry, flip axes if needed
    if(corner & NEO_MATRIX_RIGHT)  minor = matrixWidth  - 1 - minor;
    if(corner & NEO_MATRIX_BOTTOM) major = matrixHeight - 1 - major;
   d70d2:	bf1e      	ittt	ne
   d70d4:	f104 34ff 	addne.w	r4, r4, #4294967295	; 0xffffffff
   d70d8:	1aa2      	subne	r2, r4, r2
   d70da:	b292      	uxthne	r2, r2

    // Determine actual major axis of matrix
    if((type & NEO_MATRIX_AXIS) == NEO_MATRIX_ROWS) {
   d70dc:	075c      	lsls	r4, r3, #29
      majorScale = matrixWidth;
   d70de:	bf5b      	ittet	pl
   d70e0:	4615      	movpl	r5, r2
   d70e2:	f896 4031 	ldrbpl.w	r4, [r6, #49]	; 0x31
    } else {
      swap(major, minor);
      majorScale = matrixHeight;
   d70e6:	f896 4032 	ldrbmi.w	r4, [r6, #50]	; 0x32
    if(corner & NEO_MATRIX_RIGHT)  minor = matrixWidth  - 1 - minor;
    if(corner & NEO_MATRIX_BOTTOM) major = matrixHeight - 1 - major;

    // Determine actual major axis of matrix
    if((type & NEO_MATRIX_AXIS) == NEO_MATRIX_ROWS) {
      majorScale = matrixWidth;
   d70ea:	4602      	movpl	r2, r0
   d70ec:	bf58      	it	pl
   d70ee:	4628      	movpl	r0, r5
      swap(major, minor);
      majorScale = matrixHeight;
    }

    // Determine pixel number within tile/matrix
    if((type & NEO_MATRIX_SEQUENCE) == NEO_MATRIX_PROGRESSIVE) {
   d70f0:	071d      	lsls	r5, r3, #28
   d70f2:	d506      	bpl.n	d7102 <_ZN18Adafruit_NeoMatrix9drawPixelEsst+0x160>
      // All lines in same order
      pixelOffset = major * majorScale + minor;
    } else {
      // Zigzag; alternate rows change direction.
      if(major & 1) pixelOffset = (major + 1) * majorScale - 1 - minor;
   d70f4:	07c3      	lsls	r3, r0, #31
   d70f6:	d504      	bpl.n	d7102 <_ZN18Adafruit_NeoMatrix9drawPixelEsst+0x160>
   d70f8:	fb00 4004 	mla	r0, r0, r4, r4
   d70fc:	3801      	subs	r0, #1
   d70fe:	1a80      	subs	r0, r0, r2
   d7100:	e001      	b.n	d7106 <_ZN18Adafruit_NeoMatrix9drawPixelEsst+0x164>
      else          pixelOffset =  major      * majorScale     + minor;
   d7102:	fb04 2000 	mla	r0, r4, r0, r2
    }
  }

  setPixelColor(tileOffset + pixelOffset, passThruFlag ? passThruColor : expandColor(color));
   d7106:	f896 3040 	ldrb.w	r3, [r6, #64]	; 0x40
   d710a:	4401      	add	r1, r0
   d710c:	f106 051c 	add.w	r5, r6, #28
   d7110:	b28c      	uxth	r4, r1
   d7112:	b10b      	cbz	r3, d7118 <_ZN18Adafruit_NeoMatrix9drawPixelEsst+0x176>
   d7114:	6bf2      	ldr	r2, [r6, #60]	; 0x3c
   d7116:	e003      	b.n	d7120 <_ZN18Adafruit_NeoMatrix9drawPixelEsst+0x17e>
   d7118:	4638      	mov	r0, r7
   d711a:	f7ff ff13 	bl	d6f44 <_ZL11expandColort>
   d711e:	4602      	mov	r2, r0
   d7120:	4621      	mov	r1, r4
   d7122:	4628      	mov	r0, r5
}
   d7124:	e8bd 43f8 	ldmia.w	sp!, {r3, r4, r5, r6, r7, r8, r9, lr}
      if(major & 1) pixelOffset = (major + 1) * majorScale - 1 - minor;
      else          pixelOffset =  major      * majorScale     + minor;
    }
  }

  setPixelColor(tileOffset + pixelOffset, passThruFlag ? passThruColor : expandColor(color));
   d7128:	f000 ba40 	b.w	d75ac <_ZN17Adafruit_NeoPixel13setPixelColorEtm>
   d712c:	e8bd 83f8 	ldmia.w	sp!, {r3, r4, r5, r6, r7, r8, r9, pc}

000d7130 <_ZN18Adafruit_NeoMatrixC1Eiihhh>:
#include "gamma.h"

#define pgm_read_byte(addr) (*(const unsigned char *)(addr))

// Constructor for single matrix:
Adafruit_NeoMatrix::Adafruit_NeoMatrix(int w, int h, uint8_t pin,
   d7130:	b5f8      	push	{r3, r4, r5, r6, r7, lr}
   d7132:	460e      	mov	r6, r1
   d7134:	4615      	mov	r5, r2
  uint8_t matrixType, uint8_t ledType) : Adafruit_GFX(w, h),
  Adafruit_NeoPixel(w * h, pin, ledType), type(matrixType), matrixWidth(w),
  matrixHeight(h), tilesX(0), tilesY(0), remapFn(NULL) { }
   d7136:	b209      	sxth	r1, r1
   d7138:	b212      	sxth	r2, r2
#include "gamma.h"

#define pgm_read_byte(addr) (*(const unsigned char *)(addr))

// Constructor for single matrix:
Adafruit_NeoMatrix::Adafruit_NeoMatrix(int w, int h, uint8_t pin,
   d713a:	4604      	mov	r4, r0
   d713c:	461f      	mov	r7, r3
  uint8_t matrixType, uint8_t ledType) : Adafruit_GFX(w, h),
  Adafruit_NeoPixel(w * h, pin, ledType), type(matrixType), matrixWidth(w),
  matrixHeight(h), tilesX(0), tilesY(0), remapFn(NULL) { }
   d713e:	f7ff f9b3 	bl	d64a8 <_ZN12Adafruit_GFXC1Ess>
   d7142:	fb16 f105 	smulbb	r1, r6, r5
   d7146:	f89d 301c 	ldrb.w	r3, [sp, #28]
   d714a:	463a      	mov	r2, r7
   d714c:	b289      	uxth	r1, r1
   d714e:	f104 001c 	add.w	r0, r4, #28
   d7152:	f000 f877 	bl	d7244 <_ZN17Adafruit_NeoPixelC1Ethh>
   d7156:	4b0a      	ldr	r3, [pc, #40]	; (d7180 <_ZN18Adafruit_NeoMatrixC1Eiihhh+0x50>)
   d7158:	6023      	str	r3, [r4, #0]
   d715a:	f89d 3018 	ldrb.w	r3, [sp, #24]
   d715e:	f884 3030 	strb.w	r3, [r4, #48]	; 0x30
   d7162:	2300      	movs	r3, #0
   d7164:	f884 6031 	strb.w	r6, [r4, #49]	; 0x31
   d7168:	f884 5032 	strb.w	r5, [r4, #50]	; 0x32
   d716c:	f884 3033 	strb.w	r3, [r4, #51]	; 0x33
   d7170:	f884 3034 	strb.w	r3, [r4, #52]	; 0x34
   d7174:	63a3      	str	r3, [r4, #56]	; 0x38
   d7176:	f884 3040 	strb.w	r3, [r4, #64]	; 0x40
   d717a:	4620      	mov	r0, r4
   d717c:	bdf8      	pop	{r3, r4, r5, r6, r7, pc}
   d717e:	bf00      	nop
   d7180:	000dbad0 	.word	0x000dbad0

000d7184 <_ZN18Adafruit_NeoMatrix5ColorEhhh>:

// Downgrade 24-bit color to 16-bit (add reverse gamma lookup here?)
uint16_t Adafruit_NeoMatrix::Color(uint8_t r, uint8_t g, uint8_t b) {
  return ((uint16_t)(r & 0xF8) << 8) |
         ((uint16_t)(g & 0xFC) << 3) |
                    (b         >> 3);
   d7184:	00c9      	lsls	r1, r1, #3
   d7186:	f401 61fc 	and.w	r1, r1, #2016	; 0x7e0
   d718a:	0200      	lsls	r0, r0, #8
   d718c:	ea41 02d2 	orr.w	r2, r1, r2, lsr #3
   d7190:	f400 4078 	and.w	r0, r0, #63488	; 0xf800
}
   d7194:	4310      	orrs	r0, r2
   d7196:	4770      	bx	lr

000d7198 <_GLOBAL__sub_I__ZN18Adafruit_NeoMatrixC2Eiihhh>:
   d7198:	f000 bb20 	b.w	d77dc <HAL_Pin_Map>

000d719c <micros>:
inline unsigned long micros(void) { return HAL_Timer_Get_Micro_Seconds(); }
   d719c:	f000 bafe 	b.w	d779c <HAL_Timer_Get_Micro_Seconds>

000d71a0 <delayMicroseconds>:
void delay(unsigned long ms);
inline void delayMicroseconds(unsigned int us) { HAL_Delay_Microseconds(us); }
   d71a0:	f000 baf4 	b.w	d778c <HAL_Delay_Microseconds>

000d71a4 <_ZN17Adafruit_NeoPixelD1Ev>:
{
  updateLength(n);
  setPin(p);
}

Adafruit_NeoPixel::~Adafruit_NeoPixel() {
   d71a4:	b510      	push	{r4, lr}
   d71a6:	4604      	mov	r4, r0
  if (pixels) free(pixels);
   d71a8:	68c0      	ldr	r0, [r0, #12]
   d71aa:	b108      	cbz	r0, d71b0 <_ZN17Adafruit_NeoPixelD1Ev+0xc>
   d71ac:	f000 fd8a 	bl	d7cc4 <free>
  if (begun) pinMode(pin, INPUT);
   d71b0:	7823      	ldrb	r3, [r4, #0]
   d71b2:	b11b      	cbz	r3, d71bc <_ZN17Adafruit_NeoPixelD1Ev+0x18>
   d71b4:	2100      	movs	r1, #0
   d71b6:	79e0      	ldrb	r0, [r4, #7]
   d71b8:	f002 faa0 	bl	d96fc <pinMode>
}
   d71bc:	4620      	mov	r0, r4
   d71be:	bd10      	pop	{r4, pc}

000d71c0 <_ZN17Adafruit_NeoPixel12updateLengthEt>:

void Adafruit_NeoPixel::updateLength(uint16_t n) {
   d71c0:	b538      	push	{r3, r4, r5, lr}
   d71c2:	4604      	mov	r4, r0
  if (pixels) free(pixels); // Free existing data (if any)
   d71c4:	68c0      	ldr	r0, [r0, #12]
Adafruit_NeoPixel::~Adafruit_NeoPixel() {
  if (pixels) free(pixels);
  if (begun) pinMode(pin, INPUT);
}

void Adafruit_NeoPixel::updateLength(uint16_t n) {
   d71c6:	460d      	mov	r5, r1
  if (pixels) free(pixels); // Free existing data (if any)
   d71c8:	b108      	cbz	r0, d71ce <_ZN17Adafruit_NeoPixel12updateLengthEt+0xe>
   d71ca:	f000 fd7b 	bl	d7cc4 <free>

  // Allocate new data -- note: ALL PIXELS ARE CLEARED
  numBytes = n * ((type == SK6812RGBW) ? 4 : 3);
   d71ce:	79a3      	ldrb	r3, [r4, #6]
   d71d0:	2b06      	cmp	r3, #6
   d71d2:	bf0c      	ite	eq
   d71d4:	2004      	moveq	r0, #4
   d71d6:	2003      	movne	r0, #3
   d71d8:	fb10 f005 	smulbb	r0, r0, r5
   d71dc:	b280      	uxth	r0, r0
   d71de:	80a0      	strh	r0, [r4, #4]
  if ((pixels = (uint8_t *)malloc(numBytes))) {
   d71e0:	f000 fd68 	bl	d7cb4 <malloc>
   d71e4:	60e0      	str	r0, [r4, #12]
   d71e6:	b128      	cbz	r0, d71f4 <_ZN17Adafruit_NeoPixel12updateLengthEt+0x34>
    memset(pixels, 0, numBytes);
   d71e8:	88a2      	ldrh	r2, [r4, #4]
   d71ea:	2100      	movs	r1, #0
   d71ec:	f003 f9df 	bl	da5ae <memset>
    numLEDs = n;
   d71f0:	8065      	strh	r5, [r4, #2]
   d71f2:	bd38      	pop	{r3, r4, r5, pc}
  } else {
    numLEDs = numBytes = 0;
   d71f4:	80a0      	strh	r0, [r4, #4]
   d71f6:	8060      	strh	r0, [r4, #2]
   d71f8:	bd38      	pop	{r3, r4, r5, pc}

000d71fa <_ZN17Adafruit_NeoPixel5beginEv>:
  }
}

void Adafruit_NeoPixel::begin(void) {
   d71fa:	b510      	push	{r4, lr}
   d71fc:	4604      	mov	r4, r0
  pinMode(pin, OUTPUT);
   d71fe:	2101      	movs	r1, #1
   d7200:	79c0      	ldrb	r0, [r0, #7]
   d7202:	f002 fa7b 	bl	d96fc <pinMode>
  digitalWrite(pin, LOW);
   d7206:	2100      	movs	r1, #0
   d7208:	79e0      	ldrb	r0, [r4, #7]
   d720a:	f002 fa88 	bl	d971e <digitalWrite>
  begun = true;
   d720e:	2301      	movs	r3, #1
   d7210:	7023      	strb	r3, [r4, #0]
   d7212:	bd10      	pop	{r4, pc}

000d7214 <_ZN17Adafruit_NeoPixel6setPinEh>:
}

// Set the output pin number
void Adafruit_NeoPixel::setPin(uint8_t p) {
   d7214:	b538      	push	{r3, r4, r5, lr}
    if (begun) {
   d7216:	7803      	ldrb	r3, [r0, #0]
  digitalWrite(pin, LOW);
  begun = true;
}

// Set the output pin number
void Adafruit_NeoPixel::setPin(uint8_t p) {
   d7218:	4605      	mov	r5, r0
   d721a:	460c      	mov	r4, r1
    if (begun) {
   d721c:	b11b      	cbz	r3, d7226 <_ZN17Adafruit_NeoPixel6setPinEh+0x12>
        pinMode(pin, INPUT);
   d721e:	2100      	movs	r1, #0
   d7220:	79c0      	ldrb	r0, [r0, #7]
   d7222:	f002 fa6b 	bl	d96fc <pinMode>
    }
    pin = p;
    if (begun) {
   d7226:	782b      	ldrb	r3, [r5, #0]
// Set the output pin number
void Adafruit_NeoPixel::setPin(uint8_t p) {
    if (begun) {
        pinMode(pin, INPUT);
    }
    pin = p;
   d7228:	71ec      	strb	r4, [r5, #7]
    if (begun) {
   d722a:	b153      	cbz	r3, d7242 <_ZN17Adafruit_NeoPixel6setPinEh+0x2e>
        pinMode(p, OUTPUT);
   d722c:	b2a4      	uxth	r4, r4
   d722e:	4620      	mov	r0, r4
   d7230:	2101      	movs	r1, #1
   d7232:	f002 fa63 	bl	d96fc <pinMode>
        digitalWrite(p, LOW);
   d7236:	4620      	mov	r0, r4
   d7238:	2100      	movs	r1, #0
    }
}
   d723a:	e8bd 4038 	ldmia.w	sp!, {r3, r4, r5, lr}
        pinMode(pin, INPUT);
    }
    pin = p;
    if (begun) {
        pinMode(p, OUTPUT);
        digitalWrite(p, LOW);
   d723e:	f002 ba6e 	b.w	d971e <digitalWrite>
   d7242:	bd38      	pop	{r3, r4, r5, pc}

000d7244 <_ZN17Adafruit_NeoPixelC1Ethh>:
  #error "*** PLATFORM_ID not supported by this library. PLATFORM should be Particle Core, Photon, Electron, Argon, Boron, Xenon and RedBear Duo ***"
#endif
// fast pin access
#define pinSet(_pin, _hilo) (_hilo ? pinHI(_pin) : pinLO(_pin))

Adafruit_NeoPixel::Adafruit_NeoPixel(uint16_t n, uint8_t p, uint8_t t) :
   d7244:	b570      	push	{r4, r5, r6, lr}
  begun(false), type(t), brightness(0), pixels(NULL), endTime(0)
   d7246:	2500      	movs	r5, #0
  #error "*** PLATFORM_ID not supported by this library. PLATFORM should be Particle Core, Photon, Electron, Argon, Boron, Xenon and RedBear Duo ***"
#endif
// fast pin access
#define pinSet(_pin, _hilo) (_hilo ? pinHI(_pin) : pinLO(_pin))

Adafruit_NeoPixel::Adafruit_NeoPixel(uint16_t n, uint8_t p, uint8_t t) :
   d7248:	4604      	mov	r4, r0
   d724a:	4616      	mov	r6, r2
  begun(false), type(t), brightness(0), pixels(NULL), endTime(0)
   d724c:	7183      	strb	r3, [r0, #6]
   d724e:	7005      	strb	r5, [r0, #0]
   d7250:	7205      	strb	r5, [r0, #8]
   d7252:	60c5      	str	r5, [r0, #12]
   d7254:	6105      	str	r5, [r0, #16]
{
  updateLength(n);
   d7256:	f7ff ffb3 	bl	d71c0 <_ZN17Adafruit_NeoPixel12updateLengthEt>
  setPin(p);
   d725a:	4620      	mov	r0, r4
   d725c:	4631      	mov	r1, r6
   d725e:	f7ff ffd9 	bl	d7214 <_ZN17Adafruit_NeoPixel6setPinEh>
}
   d7262:	4620      	mov	r0, r4
   d7264:	bd70      	pop	{r4, r5, r6, pc}
	...

000d7268 <_ZN17Adafruit_NeoPixel4showEv>:
        digitalWrite(p, LOW);
    }
}

void Adafruit_NeoPixel::show(void) {
  if(!pixels) return;
   d7268:	68c3      	ldr	r3, [r0, #12]
   d726a:	2b00      	cmp	r3, #0
   d726c:	f000 818b 	beq.w	d7586 <_ZN17Adafruit_NeoPixel4showEv+0x31e>
        pinMode(p, OUTPUT);
        digitalWrite(p, LOW);
    }
}

void Adafruit_NeoPixel::show(void) {
   d7270:	e92d 4ff0 	stmdb	sp!, {r4, r5, r6, r7, r8, r9, sl, fp, lr}
   d7274:	7983      	ldrb	r3, [r0, #6]
   d7276:	3b02      	subs	r3, #2
   d7278:	b2db      	uxtb	r3, r3
   d727a:	2b04      	cmp	r3, #4
   d727c:	bf9c      	itt	ls
   d727e:	4ac4      	ldrls	r2, [pc, #784]	; (d7590 <_ZN17Adafruit_NeoPixel4showEv+0x328>)
   d7280:	f852 4023 	ldrls.w	r4, [r2, r3, lsl #2]
   d7284:	b087      	sub	sp, #28
   d7286:	4605      	mov	r5, r0
  // the function will simply hold off (if needed) on issuing the
  // subsequent round of data until the latch time has elapsed.  This
  // allows the mainline code to start generating the next frame of data
  // rather than stalling for the latch.
  uint32_t wait_time; // wait time in microseconds.
  switch(type) {
   d7288:	bf88      	it	hi
   d728a:	2432      	movhi	r4, #50	; 0x32
    case WS2812B2_FAST:
    default: {   // default = 50us reset pulse
        wait_time = 50L;
      } break;
  }
  while((micros() - endTime) < wait_time);
   d728c:	f7ff ff86 	bl	d719c <micros>
   d7290:	692b      	ldr	r3, [r5, #16]
   d7292:	1ac0      	subs	r0, r0, r3
   d7294:	42a0      	cmp	r0, r4
   d7296:	d3f9      	bcc.n	d728c <_ZN17Adafruit_NeoPixel4showEv+0x24>

  NRF_PWM_Type* pwm = NULL;

  // Try to find a free PWM device, which is not enabled
  // and has no connected pins
  NRF_PWM_Type* PWM[3] = {NRF_PWM0, NRF_PWM1, NRF_PWM2};
   d7298:	4abe      	ldr	r2, [pc, #760]	; (d7594 <_ZN17Adafruit_NeoPixel4showEv+0x32c>)
  // The two additional bytes at the end are needed to reset the
  // sequence.
  //
  // If there is not enough memory, we will fall back to cycle counter
  // using DWT
  uint32_t  pattern_size   = numBytes*8*sizeof(uint16_t)+2*sizeof(uint16_t);
   d729a:	88ab      	ldrh	r3, [r5, #4]

  NRF_PWM_Type* pwm = NULL;

  // Try to find a free PWM device, which is not enabled
  // and has no connected pins
  NRF_PWM_Type* PWM[3] = {NRF_PWM0, NRF_PWM1, NRF_PWM2};
   d729c:	ca07      	ldmia	r2, {r0, r1, r2}
   d729e:	ac06      	add	r4, sp, #24
   d72a0:	e904 0007 	stmdb	r4, {r0, r1, r2}
  for(int device = 0; device<3; device++) {
    if( (PWM[device]->ENABLE == 0)                            &&
   d72a4:	9c03      	ldr	r4, [sp, #12]
  // The two additional bytes at the end are needed to reset the
  // sequence.
  //
  // If there is not enough memory, we will fall back to cycle counter
  // using DWT
  uint32_t  pattern_size   = numBytes*8*sizeof(uint16_t)+2*sizeof(uint16_t);
   d72a6:	011b      	lsls	r3, r3, #4

  // Try to find a free PWM device, which is not enabled
  // and has no connected pins
  NRF_PWM_Type* PWM[3] = {NRF_PWM0, NRF_PWM1, NRF_PWM2};
  for(int device = 0; device<3; device++) {
    if( (PWM[device]->ENABLE == 0)                            &&
   d72a8:	f8d4 2500 	ldr.w	r2, [r4, #1280]	; 0x500
  // The two additional bytes at the end are needed to reset the
  // sequence.
  //
  // If there is not enough memory, we will fall back to cycle counter
  // using DWT
  uint32_t  pattern_size   = numBytes*8*sizeof(uint16_t)+2*sizeof(uint16_t);
   d72ac:	3304      	adds	r3, #4
   d72ae:	9301      	str	r3, [sp, #4]
  NRF_PWM_Type* PWM[3] = {NRF_PWM0, NRF_PWM1, NRF_PWM2};
  for(int device = 0; device<3; device++) {
    if( (PWM[device]->ENABLE == 0)                            &&
        (PWM[device]->PSEL.OUT[0] & PWM_PSEL_OUT_CONNECT_Msk) &&
        (PWM[device]->PSEL.OUT[1] & PWM_PSEL_OUT_CONNECT_Msk) &&
        (PWM[device]->PSEL.OUT[2] & PWM_PSEL_OUT_CONNECT_Msk) &&
   d72b0:	b922      	cbnz	r2, d72bc <_ZN17Adafruit_NeoPixel4showEv+0x54>
  // Try to find a free PWM device, which is not enabled
  // and has no connected pins
  NRF_PWM_Type* PWM[3] = {NRF_PWM0, NRF_PWM1, NRF_PWM2};
  for(int device = 0; device<3; device++) {
    if( (PWM[device]->ENABLE == 0)                            &&
        (PWM[device]->PSEL.OUT[0] & PWM_PSEL_OUT_CONNECT_Msk) &&
   d72b2:	f8d4 3560 	ldr.w	r3, [r4, #1376]	; 0x560

  // Try to find a free PWM device, which is not enabled
  // and has no connected pins
  NRF_PWM_Type* PWM[3] = {NRF_PWM0, NRF_PWM1, NRF_PWM2};
  for(int device = 0; device<3; device++) {
    if( (PWM[device]->ENABLE == 0)                            &&
   d72b6:	2b00      	cmp	r3, #0
   d72b8:	f2c0 8155 	blt.w	d7566 <_ZN17Adafruit_NeoPixel4showEv+0x2fe>
   d72bc:	9c04      	ldr	r4, [sp, #16]
   d72be:	f8d4 3500 	ldr.w	r3, [r4, #1280]	; 0x500
        (PWM[device]->PSEL.OUT[0] & PWM_PSEL_OUT_CONNECT_Msk) &&
        (PWM[device]->PSEL.OUT[1] & PWM_PSEL_OUT_CONNECT_Msk) &&
        (PWM[device]->PSEL.OUT[2] & PWM_PSEL_OUT_CONNECT_Msk) &&
   d72c2:	b923      	cbnz	r3, d72ce <_ZN17Adafruit_NeoPixel4showEv+0x66>
  // Try to find a free PWM device, which is not enabled
  // and has no connected pins
  NRF_PWM_Type* PWM[3] = {NRF_PWM0, NRF_PWM1, NRF_PWM2};
  for(int device = 0; device<3; device++) {
    if( (PWM[device]->ENABLE == 0)                            &&
        (PWM[device]->PSEL.OUT[0] & PWM_PSEL_OUT_CONNECT_Msk) &&
   d72c4:	f8d4 3560 	ldr.w	r3, [r4, #1376]	; 0x560

  // Try to find a free PWM device, which is not enabled
  // and has no connected pins
  NRF_PWM_Type* PWM[3] = {NRF_PWM0, NRF_PWM1, NRF_PWM2};
  for(int device = 0; device<3; device++) {
    if( (PWM[device]->ENABLE == 0)                            &&
   d72c8:	2b00      	cmp	r3, #0
   d72ca:	f2c0 813c 	blt.w	d7546 <_ZN17Adafruit_NeoPixel4showEv+0x2de>
   d72ce:	9c05      	ldr	r4, [sp, #20]
   d72d0:	f8d4 3500 	ldr.w	r3, [r4, #1280]	; 0x500
        (PWM[device]->PSEL.OUT[0] & PWM_PSEL_OUT_CONNECT_Msk) &&
        (PWM[device]->PSEL.OUT[1] & PWM_PSEL_OUT_CONNECT_Msk) &&
        (PWM[device]->PSEL.OUT[2] & PWM_PSEL_OUT_CONNECT_Msk) &&
   d72d4:	b91b      	cbnz	r3, d72de <_ZN17Adafruit_NeoPixel4showEv+0x76>
  // Try to find a free PWM device, which is not enabled
  // and has no connected pins
  NRF_PWM_Type* PWM[3] = {NRF_PWM0, NRF_PWM1, NRF_PWM2};
  for(int device = 0; device<3; device++) {
    if( (PWM[device]->ENABLE == 0)                            &&
        (PWM[device]->PSEL.OUT[0] & PWM_PSEL_OUT_CONNECT_Msk) &&
   d72d6:	f8d4 3560 	ldr.w	r3, [r4, #1376]	; 0x560

  // Try to find a free PWM device, which is not enabled
  // and has no connected pins
  NRF_PWM_Type* PWM[3] = {NRF_PWM0, NRF_PWM1, NRF_PWM2};
  for(int device = 0; device<3; device++) {
    if( (PWM[device]->ENABLE == 0)                            &&
   d72da:	2b00      	cmp	r3, #0
   d72dc:	db6e      	blt.n	d73bc <_ZN17Adafruit_NeoPixel4showEv+0x154>
      // Disable the interrupts only in cases where you need high performance for
      // the LEDs and if you are not using the EasyDMA feature.
      __disable_irq();
    #endif

    uint32_t pinMask = 1UL << NRF_GPIO_PIN_MAP(PIN_MAP2[pin].gpio_port, PIN_MAP2[pin].gpio_pin);
   d72de:	4bae      	ldr	r3, [pc, #696]	; (d7598 <_ZN17Adafruit_NeoPixel4showEv+0x330>)
   d72e0:	79ea      	ldrb	r2, [r5, #7]
   d72e2:	681e      	ldr	r6, [r3, #0]
      CYCLES_X00_T0H = CYCLES_400_T0H;
    }
#endif

    // Enable DWT in debug core
    CoreDebug->DEMCR |= CoreDebug_DEMCR_TRCENA_Msk;
   d72e4:	4cad      	ldr	r4, [pc, #692]	; (d759c <_ZN17Adafruit_NeoPixel4showEv+0x334>)
    DWT->CTRL |= DWT_CTRL_CYCCNTENA_Msk;
   d72e6:	49ae      	ldr	r1, [pc, #696]	; (d75a0 <_ZN17Adafruit_NeoPixel4showEv+0x338>)
      CYCLES_X00_T0H = CYCLES_400_T0H;
    }
#endif

    // Enable DWT in debug core
    CoreDebug->DEMCR |= CoreDebug_DEMCR_TRCENA_Msk;
   d72e8:	68e0      	ldr	r0, [r4, #12]
      // Disable the interrupts only in cases where you need high performance for
      // the LEDs and if you are not using the EasyDMA feature.
      __disable_irq();
    #endif

    uint32_t pinMask = 1UL << NRF_GPIO_PIN_MAP(PIN_MAP2[pin].gpio_port, PIN_MAP2[pin].gpio_pin);
   d72ea:	0112      	lsls	r2, r2, #4
   d72ec:	18b3      	adds	r3, r6, r2
      CYCLES_X00_T0H = CYCLES_400_T0H;
    }
#endif

    // Enable DWT in debug core
    CoreDebug->DEMCR |= CoreDebug_DEMCR_TRCENA_Msk;
   d72ee:	f040 7080 	orr.w	r0, r0, #16777216	; 0x1000000
      // Disable the interrupts only in cases where you need high performance for
      // the LEDs and if you are not using the EasyDMA feature.
      __disable_irq();
    #endif

    uint32_t pinMask = 1UL << NRF_GPIO_PIN_MAP(PIN_MAP2[pin].gpio_port, PIN_MAP2[pin].gpio_pin);
   d72f2:	785b      	ldrb	r3, [r3, #1]
   d72f4:	5cb7      	ldrb	r7, [r6, r2]
      CYCLES_X00_T0H = CYCLES_400_T0H;
    }
#endif

    // Enable DWT in debug core
    CoreDebug->DEMCR |= CoreDebug_DEMCR_TRCENA_Msk;
   d72f6:	60e0      	str	r0, [r4, #12]
    DWT->CTRL |= DWT_CTRL_CYCCNTENA_Msk;
   d72f8:	680a      	ldr	r2, [r1, #0]
      // Disable the interrupts only in cases where you need high performance for
      // the LEDs and if you are not using the EasyDMA feature.
      __disable_irq();
    #endif

    uint32_t pinMask = 1UL << NRF_GPIO_PIN_MAP(PIN_MAP2[pin].gpio_port, PIN_MAP2[pin].gpio_pin);
   d72fa:	f003 031f 	and.w	r3, r3, #31
   d72fe:	ea43 1347 	orr.w	r3, r3, r7, lsl #5
   d7302:	2701      	movs	r7, #1
    }
#endif

    // Enable DWT in debug core
    CoreDebug->DEMCR |= CoreDebug_DEMCR_TRCENA_Msk;
    DWT->CTRL |= DWT_CTRL_CYCCNTENA_Msk;
   d7304:	433a      	orrs	r2, r7
   d7306:	600a      	str	r2, [r1, #0]

    // Tries to re-send the frame if is interrupted by the SoftDevice.
    while(1) {
      uint8_t *p = pixels;

      uint32_t cycStart = DWT->CYCCNT;
   d7308:	460c      	mov	r4, r1
      uint32_t cyc = 0;

      for(uint16_t n=0; n<numBytes; n++) {
   d730a:	88a8      	ldrh	r0, [r5, #4]
    CoreDebug->DEMCR |= CoreDebug_DEMCR_TRCENA_Msk;
    DWT->CTRL |= DWT_CTRL_CYCCNTENA_Msk;

    // Tries to re-send the frame if is interrupted by the SoftDevice.
    while(1) {
      uint8_t *p = pixels;
   d730c:	f8d5 900c 	ldr.w	r9, [r5, #12]

      uint32_t cycStart = DWT->CYCCNT;
   d7310:	f8d4 a004 	ldr.w	sl, [r4, #4]
      // Disable the interrupts only in cases where you need high performance for
      // the LEDs and if you are not using the EasyDMA feature.
      __disable_irq();
    #endif

    uint32_t pinMask = 1UL << NRF_GPIO_PIN_MAP(PIN_MAP2[pin].gpio_port, PIN_MAP2[pin].gpio_pin);
   d7314:	409f      	lsls	r7, r3

      for(uint16_t n=0; n<numBytes; n++) {
        uint8_t pix = *p++;

        for(uint8_t mask = 0x80; mask; mask >>= 1) {
          while(DWT->CYCCNT - cyc < CYCLES_X00);
   d7316:	4688      	mov	r8, r1
      uint8_t *p = pixels;

      uint32_t cycStart = DWT->CYCCNT;
      uint32_t cyc = 0;

      for(uint16_t n=0; n<numBytes; n++) {
   d7318:	2800      	cmp	r0, #0
   d731a:	d044      	beq.n	d73a6 <_ZN17Adafruit_NeoPixel4showEv+0x13e>
   d731c:	46cc      	mov	ip, r9
   d731e:	2200      	movs	r2, #0

        for(uint8_t mask = 0x80; mask; mask >>= 1) {
          while(DWT->CYCCNT - cyc < CYCLES_X00);
          cyc  = DWT->CYCCNT;

          NRF_GPIO->OUTSET |= pinMask;
   d7320:	f04f 41a0 	mov.w	r1, #1342177280	; 0x50000000

      uint32_t cycStart = DWT->CYCCNT;
      uint32_t cyc = 0;

      for(uint16_t n=0; n<numBytes; n++) {
        uint8_t pix = *p++;
   d7324:	f81c eb01 	ldrb.w	lr, [ip], #1
   d7328:	2008      	movs	r0, #8

        for(uint8_t mask = 0x80; mask; mask >>= 1) {
   d732a:	2680      	movs	r6, #128	; 0x80
          while(DWT->CYCCNT - cyc < CYCLES_X00);
   d732c:	6863      	ldr	r3, [r4, #4]
   d732e:	1a9b      	subs	r3, r3, r2
   d7330:	2b46      	cmp	r3, #70	; 0x46
   d7332:	d9fb      	bls.n	d732c <_ZN17Adafruit_NeoPixel4showEv+0xc4>
          cyc  = DWT->CYCCNT;
   d7334:	f8d8 2004 	ldr.w	r2, [r8, #4]

          NRF_GPIO->OUTSET |= pinMask;
   d7338:	f8d1 3508 	ldr.w	r3, [r1, #1288]	; 0x508

          if(pix & mask) {
   d733c:	ea1e 0f06 	tst.w	lr, r6

        for(uint8_t mask = 0x80; mask; mask >>= 1) {
          while(DWT->CYCCNT - cyc < CYCLES_X00);
          cyc  = DWT->CYCCNT;

          NRF_GPIO->OUTSET |= pinMask;
   d7340:	ea43 0307 	orr.w	r3, r3, r7
   d7344:	f8c1 3508 	str.w	r3, [r1, #1288]	; 0x508

          if(pix & mask) {
   d7348:	d02f      	beq.n	d73aa <_ZN17Adafruit_NeoPixel4showEv+0x142>
            while(DWT->CYCCNT - cyc < CYCLES_X00_T1H);
   d734a:	6863      	ldr	r3, [r4, #4]
   d734c:	1a9b      	subs	r3, r3, r2
   d734e:	2b28      	cmp	r3, #40	; 0x28
   d7350:	d9fb      	bls.n	d734a <_ZN17Adafruit_NeoPixel4showEv+0xe2>
          } else {
            while(DWT->CYCCNT - cyc < CYCLES_X00_T0H);
          }

          NRF_GPIO->OUTCLR |= pinMask;
   d7352:	f8d1 350c 	ldr.w	r3, [r1, #1292]	; 0x50c
      uint32_t cyc = 0;

      for(uint16_t n=0; n<numBytes; n++) {
        uint8_t pix = *p++;

        for(uint8_t mask = 0x80; mask; mask >>= 1) {
   d7356:	3801      	subs	r0, #1
            while(DWT->CYCCNT - cyc < CYCLES_X00_T1H);
          } else {
            while(DWT->CYCCNT - cyc < CYCLES_X00_T0H);
          }

          NRF_GPIO->OUTCLR |= pinMask;
   d7358:	ea43 0307 	orr.w	r3, r3, r7
      uint32_t cyc = 0;

      for(uint16_t n=0; n<numBytes; n++) {
        uint8_t pix = *p++;

        for(uint8_t mask = 0x80; mask; mask >>= 1) {
   d735c:	ea4f 0656 	mov.w	r6, r6, lsr #1
            while(DWT->CYCCNT - cyc < CYCLES_X00_T1H);
          } else {
            while(DWT->CYCCNT - cyc < CYCLES_X00_T0H);
          }

          NRF_GPIO->OUTCLR |= pinMask;
   d7360:	f8c1 350c 	str.w	r3, [r1, #1292]	; 0x50c
      uint32_t cyc = 0;

      for(uint16_t n=0; n<numBytes; n++) {
        uint8_t pix = *p++;

        for(uint8_t mask = 0x80; mask; mask >>= 1) {
   d7364:	d1e2      	bne.n	d732c <_ZN17Adafruit_NeoPixel4showEv+0xc4>
      uint8_t *p = pixels;

      uint32_t cycStart = DWT->CYCCNT;
      uint32_t cyc = 0;

      for(uint16_t n=0; n<numBytes; n++) {
   d7366:	ebc9 030c 	rsb	r3, r9, ip
   d736a:	88a8      	ldrh	r0, [r5, #4]
   d736c:	b29b      	uxth	r3, r3
   d736e:	4298      	cmp	r0, r3
   d7370:	d8d8      	bhi.n	d7324 <_ZN17Adafruit_NeoPixel4showEv+0xbc>
   d7372:	f44f 7330 	mov.w	r3, #704	; 0x2c0
   d7376:	fb03 f000 	mul.w	r0, r3, r0
          }

          NRF_GPIO->OUTCLR |= pinMask;
        }
      }
      while(DWT->CYCCNT - cyc < CYCLES_X00);
   d737a:	6863      	ldr	r3, [r4, #4]
   d737c:	1a9b      	subs	r3, r3, r2
   d737e:	2b46      	cmp	r3, #70	; 0x46
   d7380:	d9fb      	bls.n	d737a <_ZN17Adafruit_NeoPixel4showEv+0x112>


      // If total time longer than 25%, resend the whole data.
      // Since we are likely to be interrupted by SoftDevice
      if ( (DWT->CYCCNT - cycStart) < ( 8*numBytes*((CYCLES_X00*5)/4) ) ) {
   d7382:	f8d8 3004 	ldr.w	r3, [r8, #4]
   d7386:	ebca 0a03 	rsb	sl, sl, r3
   d738a:	4582      	cmp	sl, r0
   d738c:	f0c0 80d5 	bcc.w	d753a <_ZN17Adafruit_NeoPixel4showEv+0x2d2>
        break;
      }

      // re-send need 300us delay
      delayMicroseconds(300);
   d7390:	f44f 7096 	mov.w	r0, #300	; 0x12c
   d7394:	f7ff ff04 	bl	d71a0 <delayMicroseconds>
      uint8_t *p = pixels;

      uint32_t cycStart = DWT->CYCCNT;
      uint32_t cyc = 0;

      for(uint16_t n=0; n<numBytes; n++) {
   d7398:	88a8      	ldrh	r0, [r5, #4]
    CoreDebug->DEMCR |= CoreDebug_DEMCR_TRCENA_Msk;
    DWT->CTRL |= DWT_CTRL_CYCCNTENA_Msk;

    // Tries to re-send the frame if is interrupted by the SoftDevice.
    while(1) {
      uint8_t *p = pixels;
   d739a:	f8d5 900c 	ldr.w	r9, [r5, #12]

      uint32_t cycStart = DWT->CYCCNT;
   d739e:	f8d4 a004 	ldr.w	sl, [r4, #4]
      uint32_t cyc = 0;

      for(uint16_t n=0; n<numBytes; n++) {
   d73a2:	2800      	cmp	r0, #0
   d73a4:	d1ba      	bne.n	d731c <_ZN17Adafruit_NeoPixel4showEv+0xb4>
    // Tries to re-send the frame if is interrupted by the SoftDevice.
    while(1) {
      uint8_t *p = pixels;

      uint32_t cycStart = DWT->CYCCNT;
      uint32_t cyc = 0;
   d73a6:	4602      	mov	r2, r0
   d73a8:	e7e7      	b.n	d737a <_ZN17Adafruit_NeoPixel4showEv+0x112>
          NRF_GPIO->OUTSET |= pinMask;

          if(pix & mask) {
            while(DWT->CYCCNT - cyc < CYCLES_X00_T1H);
          } else {
            while(DWT->CYCCNT - cyc < CYCLES_X00_T0H);
   d73aa:	6863      	ldr	r3, [r4, #4]
   d73ac:	1a9b      	subs	r3, r3, r2
   d73ae:	2b11      	cmp	r3, #17
   d73b0:	d8cf      	bhi.n	d7352 <_ZN17Adafruit_NeoPixel4showEv+0xea>
   d73b2:	6863      	ldr	r3, [r4, #4]
   d73b4:	1a9b      	subs	r3, r3, r2
   d73b6:	2b11      	cmp	r3, #17
   d73b8:	d9f7      	bls.n	d73aa <_ZN17Adafruit_NeoPixel4showEv+0x142>
   d73ba:	e7ca      	b.n	d7352 <_ZN17Adafruit_NeoPixel4showEv+0xea>
  // and has no connected pins
  NRF_PWM_Type* PWM[3] = {NRF_PWM0, NRF_PWM1, NRF_PWM2};
  for(int device = 0; device<3; device++) {
    if( (PWM[device]->ENABLE == 0)                            &&
        (PWM[device]->PSEL.OUT[0] & PWM_PSEL_OUT_CONNECT_Msk) &&
        (PWM[device]->PSEL.OUT[1] & PWM_PSEL_OUT_CONNECT_Msk) &&
   d73bc:	f8d4 3564 	ldr.w	r3, [r4, #1380]	; 0x564
  // Try to find a free PWM device, which is not enabled
  // and has no connected pins
  NRF_PWM_Type* PWM[3] = {NRF_PWM0, NRF_PWM1, NRF_PWM2};
  for(int device = 0; device<3; device++) {
    if( (PWM[device]->ENABLE == 0)                            &&
        (PWM[device]->PSEL.OUT[0] & PWM_PSEL_OUT_CONNECT_Msk) &&
   d73c0:	2b00      	cmp	r3, #0
   d73c2:	da8c      	bge.n	d72de <_ZN17Adafruit_NeoPixel4showEv+0x76>
        (PWM[device]->PSEL.OUT[1] & PWM_PSEL_OUT_CONNECT_Msk) &&
        (PWM[device]->PSEL.OUT[2] & PWM_PSEL_OUT_CONNECT_Msk) &&
   d73c4:	f8d4 3568 	ldr.w	r3, [r4, #1384]	; 0x568
  // and has no connected pins
  NRF_PWM_Type* PWM[3] = {NRF_PWM0, NRF_PWM1, NRF_PWM2};
  for(int device = 0; device<3; device++) {
    if( (PWM[device]->ENABLE == 0)                            &&
        (PWM[device]->PSEL.OUT[0] & PWM_PSEL_OUT_CONNECT_Msk) &&
        (PWM[device]->PSEL.OUT[1] & PWM_PSEL_OUT_CONNECT_Msk) &&
   d73c8:	2b00      	cmp	r3, #0
   d73ca:	da88      	bge.n	d72de <_ZN17Adafruit_NeoPixel4showEv+0x76>
        (PWM[device]->PSEL.OUT[2] & PWM_PSEL_OUT_CONNECT_Msk) &&
        (PWM[device]->PSEL.OUT[3] & PWM_PSEL_OUT_CONNECT_Msk)
   d73cc:	f8d4 356c 	ldr.w	r3, [r4, #1388]	; 0x56c
  NRF_PWM_Type* PWM[3] = {NRF_PWM0, NRF_PWM1, NRF_PWM2};
  for(int device = 0; device<3; device++) {
    if( (PWM[device]->ENABLE == 0)                            &&
        (PWM[device]->PSEL.OUT[0] & PWM_PSEL_OUT_CONNECT_Msk) &&
        (PWM[device]->PSEL.OUT[1] & PWM_PSEL_OUT_CONNECT_Msk) &&
        (PWM[device]->PSEL.OUT[2] & PWM_PSEL_OUT_CONNECT_Msk) &&
   d73d0:	2b00      	cmp	r3, #0
   d73d2:	da84      	bge.n	d72de <_ZN17Adafruit_NeoPixel4showEv+0x76>
  // only malloc if there is PWM device available
  if ( pwm != NULL ) {
    #ifdef ARDUINO_FEATHER52 // use thread-safe malloc
      pixels_pattern = (uint16_t *) rtos_malloc(pattern_size);
    #else
      pixels_pattern = (uint16_t *) malloc(pattern_size);
   d73d4:	9801      	ldr	r0, [sp, #4]
   d73d6:	f000 fc6d 	bl	d7cb4 <malloc>
    #endif
  }

  // Use the identified device to choose the implementation
  // If a PWM device is available use DMA
  if( (pixels_pattern != NULL) && (pwm != NULL) ) {
   d73da:	2800      	cmp	r0, #0
   d73dc:	f43f af7f 	beq.w	d72de <_ZN17Adafruit_NeoPixel4showEv+0x76>
    uint16_t pos = 0; // bit position

    for(uint16_t n=0; n<numBytes; n++) {
   d73e0:	88ab      	ldrh	r3, [r5, #4]
   d73e2:	2b00      	cmp	r3, #0
   d73e4:	f000 80d0 	beq.w	d7588 <_ZN17Adafruit_NeoPixel4showEv+0x320>
   d73e8:	2700      	movs	r7, #0
   d73ea:	463b      	mov	r3, r7
        if( !is800KHz ) {
          pixels_pattern[pos] = (pix & mask) ? MAGIC_T1H_400KHz : MAGIC_T0H_400KHz;
        }else
        #endif
        {
          pixels_pattern[pos] = (pix & mask) ? MAGIC_T1H : MAGIC_T0H;
   d73ec:	4e6d      	ldr	r6, [pc, #436]	; (d75a4 <_ZN17Adafruit_NeoPixel4showEv+0x33c>)
   d73ee:	496e      	ldr	r1, [pc, #440]	; (d75a8 <_ZN17Adafruit_NeoPixel4showEv+0x340>)
   d73f0:	e000      	b.n	d73f4 <_ZN17Adafruit_NeoPixel4showEv+0x18c>
        }

        pos++;
   d73f2:	4613      	mov	r3, r2
  // If a PWM device is available use DMA
  if( (pixels_pattern != NULL) && (pwm != NULL) ) {
    uint16_t pos = 0; // bit position

    for(uint16_t n=0; n<numBytes; n++) {
      uint8_t pix = pixels[n];
   d73f4:	68ea      	ldr	r2, [r5, #12]
   d73f6:	5dd2      	ldrb	r2, [r2, r7]
        if( !is800KHz ) {
          pixels_pattern[pos] = (pix & mask) ? MAGIC_T1H_400KHz : MAGIC_T0H_400KHz;
        }else
        #endif
        {
          pixels_pattern[pos] = (pix & mask) ? MAGIC_T1H : MAGIC_T0H;
   d73f8:	f103 0e01 	add.w	lr, r3, #1
   d73fc:	f012 0f80 	tst.w	r2, #128	; 0x80
   d7400:	bf14      	ite	ne
   d7402:	46b0      	movne	r8, r6
   d7404:	4688      	moveq	r8, r1
   d7406:	fa1f fe8e 	uxth.w	lr, lr
   d740a:	f012 0f40 	tst.w	r2, #64	; 0x40
   d740e:	bf14      	ite	ne
   d7410:	46b1      	movne	r9, r6
   d7412:	4689      	moveq	r9, r1
   d7414:	f012 0f20 	tst.w	r2, #32
   d7418:	f820 8013 	strh.w	r8, [r0, r3, lsl #1]
   d741c:	bf18      	it	ne
   d741e:	46b2      	movne	sl, r6
   d7420:	f820 901e 	strh.w	r9, [r0, lr, lsl #1]
   d7424:	bf08      	it	eq
   d7426:	468a      	moveq	sl, r1
   d7428:	f103 0802 	add.w	r8, r3, #2
   d742c:	f012 0f10 	tst.w	r2, #16
   d7430:	f103 0e03 	add.w	lr, r3, #3
   d7434:	bf14      	ite	ne
   d7436:	46b4      	movne	ip, r6
   d7438:	468c      	moveq	ip, r1
   d743a:	fa1f f888 	uxth.w	r8, r8
   d743e:	f012 0f08 	tst.w	r2, #8
   d7442:	fa1f fe8e 	uxth.w	lr, lr
   d7446:	f103 0904 	add.w	r9, r3, #4
   d744a:	fa1f f989 	uxth.w	r9, r9
   d744e:	bf14      	ite	ne
   d7450:	46b3      	movne	fp, r6
   d7452:	468b      	moveq	fp, r1
   d7454:	f012 0f04 	tst.w	r2, #4
   d7458:	f820 a018 	strh.w	sl, [r0, r8, lsl #1]
   d745c:	f820 c01e 	strh.w	ip, [r0, lr, lsl #1]
   d7460:	bf14      	ite	ne
   d7462:	46b2      	movne	sl, r6
   d7464:	468a      	moveq	sl, r1
   d7466:	f103 0805 	add.w	r8, r3, #5
   d746a:	f012 0f02 	tst.w	r2, #2
   d746e:	f103 0c06 	add.w	ip, r3, #6
   d7472:	f103 0e07 	add.w	lr, r3, #7
   d7476:	f820 b019 	strh.w	fp, [r0, r9, lsl #1]
   d747a:	fa1f fe8e 	uxth.w	lr, lr
   d747e:	bf14      	ite	ne
   d7480:	46b1      	movne	r9, r6
   d7482:	4689      	moveq	r9, r1
   d7484:	fa1f f888 	uxth.w	r8, r8
   d7488:	f012 0f01 	tst.w	r2, #1
   d748c:	fa1f fc8c 	uxth.w	ip, ip
   d7490:	bf14      	ite	ne
   d7492:	4632      	movne	r2, r6
   d7494:	460a      	moveq	r2, r1
   d7496:	f820 a018 	strh.w	sl, [r0, r8, lsl #1]
   d749a:	f820 901c 	strh.w	r9, [r0, ip, lsl #1]
   d749e:	f820 201e 	strh.w	r2, [r0, lr, lsl #1]
  // Use the identified device to choose the implementation
  // If a PWM device is available use DMA
  if( (pixels_pattern != NULL) && (pwm != NULL) ) {
    uint16_t pos = 0; // bit position

    for(uint16_t n=0; n<numBytes; n++) {
   d74a2:	3701      	adds	r7, #1
   d74a4:	f8b5 e004 	ldrh.w	lr, [r5, #4]
   d74a8:	b2bf      	uxth	r7, r7
        #endif
        {
          pixels_pattern[pos] = (pix & mask) ? MAGIC_T1H : MAGIC_T0H;
        }

        pos++;
   d74aa:	f103 0208 	add.w	r2, r3, #8
  // Use the identified device to choose the implementation
  // If a PWM device is available use DMA
  if( (pixels_pattern != NULL) && (pwm != NULL) ) {
    uint16_t pos = 0; // bit position

    for(uint16_t n=0; n<numBytes; n++) {
   d74ae:	45be      	cmp	lr, r7
        #endif
        {
          pixels_pattern[pos] = (pix & mask) ? MAGIC_T1H : MAGIC_T0H;
        }

        pos++;
   d74b0:	b292      	uxth	r2, r2
  // Use the identified device to choose the implementation
  // If a PWM device is available use DMA
  if( (pixels_pattern != NULL) && (pwm != NULL) ) {
    uint16_t pos = 0; // bit position

    for(uint16_t n=0; n<numBytes; n++) {
   d74b2:	d89e      	bhi.n	d73f2 <_ZN17Adafruit_NeoPixel4showEv+0x18a>
   d74b4:	f103 0209 	add.w	r2, r3, #9
   d74b8:	330a      	adds	r3, #10
   d74ba:	b292      	uxth	r2, r2
   d74bc:	b29b      	uxth	r3, r3
   d74be:	0052      	lsls	r2, r2, #1
   d74c0:	005b      	lsls	r3, r3, #1

    // Pointer to the memory storing the patter
    pwm->SEQ[0].PTR = (uint32_t)(pixels_pattern) << PWM_SEQ_PTR_PTR_Pos;

    // Calculation of the number of steps loaded from memory.
    pwm->SEQ[0].CNT = (pattern_size/sizeof(uint16_t)) << PWM_SEQ_CNT_CNT_Pos;
   d74c2:	9901      	ldr	r1, [sp, #4]
        pos++;
      }
    }

    // Zero padding to indicate the end of que sequence
    pixels_pattern[++pos] = 0 | (0x8000); // Seq end
   d74c4:	f44f 4600 	mov.w	r6, #32768	; 0x8000
   d74c8:	5286      	strh	r6, [r0, r2]

    // Pointer to the memory storing the patter
    pwm->SEQ[0].PTR = (uint32_t)(pixels_pattern) << PWM_SEQ_PTR_PTR_Pos;

    // Calculation of the number of steps loaded from memory.
    pwm->SEQ[0].CNT = (pattern_size/sizeof(uint16_t)) << PWM_SEQ_CNT_CNT_Pos;
   d74ca:	0849      	lsrs	r1, r1, #1
      }
    }

    // Zero padding to indicate the end of que sequence
    pixels_pattern[++pos] = 0 | (0x8000); // Seq end
    pixels_pattern[++pos] = 0 | (0x8000); // Seq end
   d74cc:	52c6      	strh	r6, [r0, r3]

    // Set the wave mode to count UP
    pwm->MODE = (PWM_MODE_UPDOWN_Up << PWM_MODE_UPDOWN_Pos);
   d74ce:	2200      	movs	r2, #0
    if( !is800KHz ) {
      pwm->COUNTERTOP = (CTOPVAL_400KHz << PWM_COUNTERTOP_COUNTERTOP_Pos);
    }else
#endif
    {
      pwm->COUNTERTOP = (CTOPVAL << PWM_COUNTERTOP_COUNTERTOP_Pos);
   d74d0:	2314      	movs	r3, #20
    // Zero padding to indicate the end of que sequence
    pixels_pattern[++pos] = 0 | (0x8000); // Seq end
    pixels_pattern[++pos] = 0 | (0x8000); // Seq end

    // Set the wave mode to count UP
    pwm->MODE = (PWM_MODE_UPDOWN_Up << PWM_MODE_UPDOWN_Pos);
   d74d2:	f8c4 2504 	str.w	r2, [r4, #1284]	; 0x504
    // and block the execution thread until the event flag is set by
    // the peripheral.
//    pwm->INTEN |= (PWM_INTEN_SEQEND0_Enabled<<PWM_INTEN_SEQEND0_Pos);

    // PSEL must be configured before enabling PWM
    pwm->PSEL.OUT[0] = NRF_GPIO_PIN_MAP(PIN_MAP2[pin].gpio_port, PIN_MAP2[pin].gpio_pin);
   d74d6:	4e30      	ldr	r6, [pc, #192]	; (d7598 <_ZN17Adafruit_NeoPixel4showEv+0x330>)

    // Set the wave mode to count UP
    pwm->MODE = (PWM_MODE_UPDOWN_Up << PWM_MODE_UPDOWN_Pos);

    // Set the PWM to use the 16MHz clock
    pwm->PRESCALER = (PWM_PRESCALER_PRESCALER_DIV_1 << PWM_PRESCALER_PRESCALER_Pos);
   d74d8:	f8c4 250c 	str.w	r2, [r4, #1292]	; 0x50c
    if( !is800KHz ) {
      pwm->COUNTERTOP = (CTOPVAL_400KHz << PWM_COUNTERTOP_COUNTERTOP_Pos);
    }else
#endif
    {
      pwm->COUNTERTOP = (CTOPVAL << PWM_COUNTERTOP_COUNTERTOP_Pos);
   d74dc:	f8c4 3508 	str.w	r3, [r4, #1288]	; 0x508
    }

    // Disable loops, we want the sequence to repeat only once
    pwm->LOOP = (PWM_LOOP_CNT_Disabled << PWM_LOOP_CNT_Pos);
   d74e0:	f8c4 2514 	str.w	r2, [r4, #1300]	; 0x514

    // On the "Common" setting the PWM uses the same pattern for the
    // for supported sequences. The pattern is stored on half-word
    // of 16bits
    pwm->DECODER = (PWM_DECODER_LOAD_Common << PWM_DECODER_LOAD_Pos) |
                   (PWM_DECODER_MODE_RefreshCount << PWM_DECODER_MODE_Pos);
   d74e4:	f8c4 2510 	str.w	r2, [r4, #1296]	; 0x510

    // Pointer to the memory storing the patter
    pwm->SEQ[0].PTR = (uint32_t)(pixels_pattern) << PWM_SEQ_PTR_PTR_Pos;
   d74e8:	f8c4 0520 	str.w	r0, [r4, #1312]	; 0x520

    // Calculation of the number of steps loaded from memory.
    pwm->SEQ[0].CNT = (pattern_size/sizeof(uint16_t)) << PWM_SEQ_CNT_CNT_Pos;
   d74ec:	f8c4 1524 	str.w	r1, [r4, #1316]	; 0x524

    // The following settings are ignored with the current config.
    pwm->SEQ[0].REFRESH  = 0;
   d74f0:	f8c4 2528 	str.w	r2, [r4, #1320]	; 0x528
    pwm->SEQ[0].ENDDELAY = 0;
   d74f4:	f8c4 252c 	str.w	r2, [r4, #1324]	; 0x52c
    // and block the execution thread until the event flag is set by
    // the peripheral.
//    pwm->INTEN |= (PWM_INTEN_SEQEND0_Enabled<<PWM_INTEN_SEQEND0_Pos);

    // PSEL must be configured before enabling PWM
    pwm->PSEL.OUT[0] = NRF_GPIO_PIN_MAP(PIN_MAP2[pin].gpio_port, PIN_MAP2[pin].gpio_pin);
   d74f8:	79eb      	ldrb	r3, [r5, #7]
   d74fa:	6831      	ldr	r1, [r6, #0]
   d74fc:	011b      	lsls	r3, r3, #4
   d74fe:	18ce      	adds	r6, r1, r3
   d7500:	5cc9      	ldrb	r1, [r1, r3]
   d7502:	7873      	ldrb	r3, [r6, #1]
   d7504:	f003 031f 	and.w	r3, r3, #31
   d7508:	ea43 1341 	orr.w	r3, r3, r1, lsl #5

    // Enable the PWM
    pwm->ENABLE = 1;
   d750c:	2101      	movs	r1, #1
    // and block the execution thread until the event flag is set by
    // the peripheral.
//    pwm->INTEN |= (PWM_INTEN_SEQEND0_Enabled<<PWM_INTEN_SEQEND0_Pos);

    // PSEL must be configured before enabling PWM
    pwm->PSEL.OUT[0] = NRF_GPIO_PIN_MAP(PIN_MAP2[pin].gpio_port, PIN_MAP2[pin].gpio_pin);
   d750e:	f8c4 3560 	str.w	r3, [r4, #1376]	; 0x560

    // Enable the PWM
    pwm->ENABLE = 1;
   d7512:	f8c4 1500 	str.w	r1, [r4, #1280]	; 0x500

    // After all of this and many hours of reading the documentation
    // we are ready to start the sequence...
    pwm->EVENTS_SEQEND[0]  = 0;
   d7516:	f8c4 2110 	str.w	r2, [r4, #272]	; 0x110
    pwm->TASKS_SEQSTART[0] = 1;
   d751a:	60a1      	str	r1, [r4, #8]

    // But we have to wait for the flag to be set.
    while(!pwm->EVENTS_SEQEND[0])
   d751c:	f8d4 3110 	ldr.w	r3, [r4, #272]	; 0x110
   d7520:	2b00      	cmp	r3, #0
   d7522:	d0fb      	beq.n	d751c <_ZN17Adafruit_NeoPixel4showEv+0x2b4>
      yield();
      #endif
    }

    // Before leave we clear the flag for the event.
    pwm->EVENTS_SEQEND[0] = 0;
   d7524:	2300      	movs	r3, #0
    // all the outputs before leave or the device will not
    // be selected on the next call.
    // TODO: Check if disabling the device causes performance issues.
    pwm->ENABLE = 0;

    pwm->PSEL.OUT[0] = 0xFFFFFFFFUL;
   d7526:	f04f 32ff 	mov.w	r2, #4294967295	; 0xffffffff
      yield();
      #endif
    }

    // Before leave we clear the flag for the event.
    pwm->EVENTS_SEQEND[0] = 0;
   d752a:	f8c4 3110 	str.w	r3, [r4, #272]	; 0x110

    // We need to disable the device and disconnect
    // all the outputs before leave or the device will not
    // be selected on the next call.
    // TODO: Check if disabling the device causes performance issues.
    pwm->ENABLE = 0;
   d752e:	f8c4 3500 	str.w	r3, [r4, #1280]	; 0x500

    pwm->PSEL.OUT[0] = 0xFFFFFFFFUL;
   d7532:	f8c4 2560 	str.w	r2, [r4, #1376]	; 0x560

    #ifdef ARDUINO_FEATHER52  // use thread-safe free
      rtos_free(pixels_pattern);
    #else
      free(pixels_pattern);
   d7536:	f000 fbc5 	bl	d7cc4 <free>
  }
// END of NRF52 implementation


#endif
  endTime = micros(); // Save EOD time for latch on next call
   d753a:	f7ff fe2f 	bl	d719c <micros>
   d753e:	6128      	str	r0, [r5, #16]
}
   d7540:	b007      	add	sp, #28
   d7542:	e8bd 8ff0 	ldmia.w	sp!, {r4, r5, r6, r7, r8, r9, sl, fp, pc}
  // and has no connected pins
  NRF_PWM_Type* PWM[3] = {NRF_PWM0, NRF_PWM1, NRF_PWM2};
  for(int device = 0; device<3; device++) {
    if( (PWM[device]->ENABLE == 0)                            &&
        (PWM[device]->PSEL.OUT[0] & PWM_PSEL_OUT_CONNECT_Msk) &&
        (PWM[device]->PSEL.OUT[1] & PWM_PSEL_OUT_CONNECT_Msk) &&
   d7546:	f8d4 3564 	ldr.w	r3, [r4, #1380]	; 0x564
  // Try to find a free PWM device, which is not enabled
  // and has no connected pins
  NRF_PWM_Type* PWM[3] = {NRF_PWM0, NRF_PWM1, NRF_PWM2};
  for(int device = 0; device<3; device++) {
    if( (PWM[device]->ENABLE == 0)                            &&
        (PWM[device]->PSEL.OUT[0] & PWM_PSEL_OUT_CONNECT_Msk) &&
   d754a:	2b00      	cmp	r3, #0
   d754c:	f6bf aebf 	bge.w	d72ce <_ZN17Adafruit_NeoPixel4showEv+0x66>
        (PWM[device]->PSEL.OUT[1] & PWM_PSEL_OUT_CONNECT_Msk) &&
        (PWM[device]->PSEL.OUT[2] & PWM_PSEL_OUT_CONNECT_Msk) &&
   d7550:	f8d4 3568 	ldr.w	r3, [r4, #1384]	; 0x568
  // and has no connected pins
  NRF_PWM_Type* PWM[3] = {NRF_PWM0, NRF_PWM1, NRF_PWM2};
  for(int device = 0; device<3; device++) {
    if( (PWM[device]->ENABLE == 0)                            &&
        (PWM[device]->PSEL.OUT[0] & PWM_PSEL_OUT_CONNECT_Msk) &&
        (PWM[device]->PSEL.OUT[1] & PWM_PSEL_OUT_CONNECT_Msk) &&
   d7554:	2b00      	cmp	r3, #0
   d7556:	f6bf aeba 	bge.w	d72ce <_ZN17Adafruit_NeoPixel4showEv+0x66>
        (PWM[device]->PSEL.OUT[2] & PWM_PSEL_OUT_CONNECT_Msk) &&
        (PWM[device]->PSEL.OUT[3] & PWM_PSEL_OUT_CONNECT_Msk)
   d755a:	f8d4 356c 	ldr.w	r3, [r4, #1388]	; 0x56c
  NRF_PWM_Type* PWM[3] = {NRF_PWM0, NRF_PWM1, NRF_PWM2};
  for(int device = 0; device<3; device++) {
    if( (PWM[device]->ENABLE == 0)                            &&
        (PWM[device]->PSEL.OUT[0] & PWM_PSEL_OUT_CONNECT_Msk) &&
        (PWM[device]->PSEL.OUT[1] & PWM_PSEL_OUT_CONNECT_Msk) &&
        (PWM[device]->PSEL.OUT[2] & PWM_PSEL_OUT_CONNECT_Msk) &&
   d755e:	2b00      	cmp	r3, #0
   d7560:	f6bf aeb5 	bge.w	d72ce <_ZN17Adafruit_NeoPixel4showEv+0x66>
   d7564:	e736      	b.n	d73d4 <_ZN17Adafruit_NeoPixel4showEv+0x16c>
  // and has no connected pins
  NRF_PWM_Type* PWM[3] = {NRF_PWM0, NRF_PWM1, NRF_PWM2};
  for(int device = 0; device<3; device++) {
    if( (PWM[device]->ENABLE == 0)                            &&
        (PWM[device]->PSEL.OUT[0] & PWM_PSEL_OUT_CONNECT_Msk) &&
        (PWM[device]->PSEL.OUT[1] & PWM_PSEL_OUT_CONNECT_Msk) &&
   d7566:	f8d4 3564 	ldr.w	r3, [r4, #1380]	; 0x564
  // Try to find a free PWM device, which is not enabled
  // and has no connected pins
  NRF_PWM_Type* PWM[3] = {NRF_PWM0, NRF_PWM1, NRF_PWM2};
  for(int device = 0; device<3; device++) {
    if( (PWM[device]->ENABLE == 0)                            &&
        (PWM[device]->PSEL.OUT[0] & PWM_PSEL_OUT_CONNECT_Msk) &&
   d756a:	2b00      	cmp	r3, #0
   d756c:	f6bf aea6 	bge.w	d72bc <_ZN17Adafruit_NeoPixel4showEv+0x54>
        (PWM[device]->PSEL.OUT[1] & PWM_PSEL_OUT_CONNECT_Msk) &&
        (PWM[device]->PSEL.OUT[2] & PWM_PSEL_OUT_CONNECT_Msk) &&
   d7570:	f8d4 3568 	ldr.w	r3, [r4, #1384]	; 0x568
  // and has no connected pins
  NRF_PWM_Type* PWM[3] = {NRF_PWM0, NRF_PWM1, NRF_PWM2};
  for(int device = 0; device<3; device++) {
    if( (PWM[device]->ENABLE == 0)                            &&
        (PWM[device]->PSEL.OUT[0] & PWM_PSEL_OUT_CONNECT_Msk) &&
        (PWM[device]->PSEL.OUT[1] & PWM_PSEL_OUT_CONNECT_Msk) &&
   d7574:	2b00      	cmp	r3, #0
   d7576:	f6bf aea1 	bge.w	d72bc <_ZN17Adafruit_NeoPixel4showEv+0x54>
        (PWM[device]->PSEL.OUT[2] & PWM_PSEL_OUT_CONNECT_Msk) &&
        (PWM[device]->PSEL.OUT[3] & PWM_PSEL_OUT_CONNECT_Msk)
   d757a:	f8d4 356c 	ldr.w	r3, [r4, #1388]	; 0x56c
  NRF_PWM_Type* PWM[3] = {NRF_PWM0, NRF_PWM1, NRF_PWM2};
  for(int device = 0; device<3; device++) {
    if( (PWM[device]->ENABLE == 0)                            &&
        (PWM[device]->PSEL.OUT[0] & PWM_PSEL_OUT_CONNECT_Msk) &&
        (PWM[device]->PSEL.OUT[1] & PWM_PSEL_OUT_CONNECT_Msk) &&
        (PWM[device]->PSEL.OUT[2] & PWM_PSEL_OUT_CONNECT_Msk) &&
   d757e:	2b00      	cmp	r3, #0
   d7580:	f6bf ae9c 	bge.w	d72bc <_ZN17Adafruit_NeoPixel4showEv+0x54>
   d7584:	e726      	b.n	d73d4 <_ZN17Adafruit_NeoPixel4showEv+0x16c>
   d7586:	4770      	bx	lr
  // Use the identified device to choose the implementation
  // If a PWM device is available use DMA
  if( (pixels_pattern != NULL) && (pwm != NULL) ) {
    uint16_t pos = 0; // bit position

    for(uint16_t n=0; n<numBytes; n++) {
   d7588:	2304      	movs	r3, #4
   d758a:	2202      	movs	r2, #2
   d758c:	e799      	b.n	d74c2 <_ZN17Adafruit_NeoPixel4showEv+0x25a>
   d758e:	bf00      	nop
   d7590:	000dbb6c 	.word	0x000dbb6c
   d7594:	000dbb60 	.word	0x000dbb60
   d7598:	2003e36c 	.word	0x2003e36c
   d759c:	e000edf0 	.word	0xe000edf0
   d75a0:	e0001000 	.word	0xe0001000
   d75a4:	ffff800d 	.word	0xffff800d
   d75a8:	ffff8006 	.word	0xffff8006

000d75ac <_ZN17Adafruit_NeoPixel13setPixelColorEtm>:
}

// Set pixel color from 'packed' 32-bit RGB color:
// If RGB+W color, order of bytes is WRGB in packed 32-bit form
void Adafruit_NeoPixel::setPixelColor(uint16_t n, uint32_t c) {
  if(n < numLEDs) {
   d75ac:	8843      	ldrh	r3, [r0, #2]
   d75ae:	428b      	cmp	r3, r1
  }
}

// Set pixel color from 'packed' 32-bit RGB color:
// If RGB+W color, order of bytes is WRGB in packed 32-bit form
void Adafruit_NeoPixel::setPixelColor(uint16_t n, uint32_t c) {
   d75b0:	b5f0      	push	{r4, r5, r6, r7, lr}
  if(n < numLEDs) {
   d75b2:	d945      	bls.n	d7640 <_ZN17Adafruit_NeoPixel13setPixelColorEtm+0x94>
    uint8_t
      r = (uint8_t)(c >> 16),
      g = (uint8_t)(c >>  8),
      b = (uint8_t)c;
    if(brightness) { // See notes in setBrightness()
   d75b4:	7a05      	ldrb	r5, [r0, #8]
   d75b6:	f3c2 4307 	ubfx	r3, r2, #16, #8
   d75ba:	f3c2 2407 	ubfx	r4, r2, #8, #8
   d75be:	b2d6      	uxtb	r6, r2
   d75c0:	b145      	cbz	r5, d75d4 <_ZN17Adafruit_NeoPixel13setPixelColorEtm+0x28>
      r = (r * brightness) >> 8;
   d75c2:	436b      	muls	r3, r5
      g = (g * brightness) >> 8;
   d75c4:	436c      	muls	r4, r5
      b = (b * brightness) >> 8;
   d75c6:	436e      	muls	r6, r5
    uint8_t
      r = (uint8_t)(c >> 16),
      g = (uint8_t)(c >>  8),
      b = (uint8_t)c;
    if(brightness) { // See notes in setBrightness()
      r = (r * brightness) >> 8;
   d75c8:	f3c3 2307 	ubfx	r3, r3, #8, #8
      g = (g * brightness) >> 8;
   d75cc:	f3c4 2407 	ubfx	r4, r4, #8, #8
      b = (b * brightness) >> 8;
   d75d0:	f3c6 2607 	ubfx	r6, r6, #8, #8
    }
    uint8_t *p = &pixels[n * (type==SK6812RGBW?4:3)];
   d75d4:	f890 c006 	ldrb.w	ip, [r0, #6]
   d75d8:	68c7      	ldr	r7, [r0, #12]
   d75da:	f1bc 0f06 	cmp.w	ip, #6
   d75de:	bf0c      	ite	eq
   d75e0:	2504      	moveq	r5, #4
   d75e2:	2503      	movne	r5, #3
   d75e4:	4369      	muls	r1, r5
   d75e6:	f1bc 0f08 	cmp.w	ip, #8
   d75ea:	eb07 0501 	add.w	r5, r7, r1
   d75ee:	d824      	bhi.n	d763a <_ZN17Adafruit_NeoPixel13setPixelColorEtm+0x8e>
   d75f0:	f04f 0e01 	mov.w	lr, #1
   d75f4:	fa0e fe0c 	lsl.w	lr, lr, ip
   d75f8:	f41e 7fd2 	tst.w	lr, #420	; 0x1a4
   d75fc:	d10c      	bne.n	d7618 <_ZN17Adafruit_NeoPixel13setPixelColorEtm+0x6c>
   d75fe:	f01e 0f40 	tst.w	lr, #64	; 0x40
   d7602:	d10d      	bne.n	d7620 <_ZN17Adafruit_NeoPixel13setPixelColorEtm+0x74>
   d7604:	f01e 0f10 	tst.w	lr, #16
   d7608:	d017      	beq.n	d763a <_ZN17Adafruit_NeoPixel13setPixelColorEtm+0x8e>
          *p++ = g;
          *p++ = r;
          *p = b;
        } break;
      case TM1829: { // TM1829 is special RBG order
          if(r == 255) r = 254; // 255 on RED channel causes display to be in a special mode.
   d760a:	2bff      	cmp	r3, #255	; 0xff
   d760c:	bf08      	it	eq
   d760e:	23fe      	moveq	r3, #254	; 0xfe
          *p++ = r;
   d7610:	547b      	strb	r3, [r7, r1]
          *p++ = b;
   d7612:	706e      	strb	r6, [r5, #1]
          *p = g;
   d7614:	70ac      	strb	r4, [r5, #2]
        } break;
   d7616:	bdf0      	pop	{r4, r5, r6, r7, pc}
    switch(type) {
      case WS2812B: // WS2812, WS2812B & WS2813 is GRB order.
      case WS2812B_FAST:
      case WS2812B2:
      case WS2812B2_FAST: {
          *p++ = g;
   d7618:	547c      	strb	r4, [r7, r1]
          *p++ = r;
   d761a:	706b      	strb	r3, [r5, #1]
          *p = b;
   d761c:	70ae      	strb	r6, [r5, #2]
        } break;
   d761e:	bdf0      	pop	{r4, r5, r6, r7, pc}
          *p++ = b;
          *p = g;
        } break;
      case SK6812RGBW: { // SK6812RGBW is RGBW order
          uint8_t w = (uint8_t)(c >> 24);
          *p++ = r;
   d7620:	547b      	strb	r3, [r7, r1]
          *p++ = g;
   d7622:	706c      	strb	r4, [r5, #1]
          *p++ = b;
   d7624:	70ae      	strb	r6, [r5, #2]
          *p = brightness ? ((w * brightness) >> 8) : w;
   d7626:	7a03      	ldrb	r3, [r0, #8]
          *p++ = r;
          *p++ = b;
          *p = g;
        } break;
      case SK6812RGBW: { // SK6812RGBW is RGBW order
          uint8_t w = (uint8_t)(c >> 24);
   d7628:	0e12      	lsrs	r2, r2, #24
          *p++ = r;
          *p++ = g;
          *p++ = b;
          *p = brightness ? ((w * brightness) >> 8) : w;
   d762a:	b90b      	cbnz	r3, d7630 <_ZN17Adafruit_NeoPixel13setPixelColorEtm+0x84>
          *p++ = r;
          *p++ = b;
          *p = g;
        } break;
      case SK6812RGBW: { // SK6812RGBW is RGBW order
          uint8_t w = (uint8_t)(c >> 24);
   d762c:	b2d2      	uxtb	r2, r2
   d762e:	e002      	b.n	d7636 <_ZN17Adafruit_NeoPixel13setPixelColorEtm+0x8a>
          *p++ = r;
          *p++ = g;
          *p++ = b;
          *p = brightness ? ((w * brightness) >> 8) : w;
   d7630:	435a      	muls	r2, r3
   d7632:	f3c2 2207 	ubfx	r2, r2, #8, #8
   d7636:	70ea      	strb	r2, [r5, #3]
        } break;
   d7638:	bdf0      	pop	{r4, r5, r6, r7, pc}
      case WS2811: // WS2811 is RGB order
      case TM1803: // TM1803 is RGB order
      default: {   // default is RGB order
          *p++ = r;
   d763a:	547b      	strb	r3, [r7, r1]
          *p++ = g;
   d763c:	706c      	strb	r4, [r5, #1]
          *p = b;
   d763e:	70ae      	strb	r6, [r5, #2]
   d7640:	bdf0      	pop	{r4, r5, r6, r7, pc}

000d7642 <_ZN17Adafruit_NeoPixel5ColorEhhh>:
}

// Convert separate R,G,B into packed 32-bit RGB color.
// Packed format is always RGB, regardless of LED strand color order.
uint32_t Adafruit_NeoPixel::Color(uint8_t r, uint8_t g, uint8_t b) {
  return ((uint32_t)r << 16) | ((uint32_t)g <<  8) | b;
   d7642:	ea42 2201 	orr.w	r2, r2, r1, lsl #8
}
   d7646:	ea42 4000 	orr.w	r0, r2, r0, lsl #16
   d764a:	4770      	bx	lr

000d764c <_ZNK17Adafruit_NeoPixel9numPixelsEv>:
   d764c:	8840      	ldrh	r0, [r0, #2]
   d764e:	4770      	bx	lr

000d7650 <_ZN17Adafruit_NeoPixel13setBrightnessEh>:
  // This simplifies the actual scaling math later, allowing a fast
  // 8x8-bit multiply and taking the MSB.  'brightness' is a uint8_t,
  // adding 1 here may (intentionally) roll over...so 0 = max brightness
  // (color values are interpreted literally; no scaling), 1 = min
  // brightness (off), 255 = just below max brightness.
  uint8_t newBrightness = b + 1;
   d7650:	1c4a      	adds	r2, r1, #1
  if(newBrightness != brightness) { // Compare against prior value
   d7652:	7a03      	ldrb	r3, [r0, #8]
  // This simplifies the actual scaling math later, allowing a fast
  // 8x8-bit multiply and taking the MSB.  'brightness' is a uint8_t,
  // adding 1 here may (intentionally) roll over...so 0 = max brightness
  // (color values are interpreted literally; no scaling), 1 = min
  // brightness (off), 255 = just below max brightness.
  uint8_t newBrightness = b + 1;
   d7654:	b2d2      	uxtb	r2, r2
  if(newBrightness != brightness) { // Compare against prior value
   d7656:	429a      	cmp	r2, r3
// and scale it (subsequent graphics commands also work at this
// brightness level).  If there's a significant step up in brightness,
// the limited number of steps (quantization) in the old data will be
// quite visible in the re-scaled version.  For a non-destructive
// change, you'll need to re-render the full strip data.  C'est la vie.
void Adafruit_NeoPixel::setBrightness(uint8_t b) {
   d7658:	b570      	push	{r4, r5, r6, lr}
  // 8x8-bit multiply and taking the MSB.  'brightness' is a uint8_t,
  // adding 1 here may (intentionally) roll over...so 0 = max brightness
  // (color values are interpreted literally; no scaling), 1 = min
  // brightness (off), 255 = just below max brightness.
  uint8_t newBrightness = b + 1;
  if(newBrightness != brightness) { // Compare against prior value
   d765a:	d01e      	beq.n	d769a <_ZN17Adafruit_NeoPixel13setBrightnessEh+0x4a>
    // Brightness has changed -- re-scale existing data in RAM
    uint8_t  c,
            *ptr           = pixels,
             oldBrightness = brightness - 1; // De-wrap old brightness value
   d765c:	3b01      	subs	r3, #1
    uint16_t scale;
    if(oldBrightness == 0) scale = 0; // Avoid /0
   d765e:	f013 03ff 	ands.w	r3, r3, #255	; 0xff
  // brightness (off), 255 = just below max brightness.
  uint8_t newBrightness = b + 1;
  if(newBrightness != brightness) { // Compare against prior value
    // Brightness has changed -- re-scale existing data in RAM
    uint8_t  c,
            *ptr           = pixels,
   d7662:	68c4      	ldr	r4, [r0, #12]
             oldBrightness = brightness - 1; // De-wrap old brightness value
    uint16_t scale;
    if(oldBrightness == 0) scale = 0; // Avoid /0
   d7664:	d00c      	beq.n	d7680 <_ZN17Adafruit_NeoPixel13setBrightnessEh+0x30>
    else if(b == 255) scale = 65535 / oldBrightness;
   d7666:	29ff      	cmp	r1, #255	; 0xff
    else scale = (((uint16_t)newBrightness << 8) - 1) / oldBrightness;
   d7668:	bf1f      	itttt	ne
   d766a:	0211      	lslne	r1, r2, #8
   d766c:	f101 31ff 	addne.w	r1, r1, #4294967295	; 0xffffffff
   d7670:	fb91 f3f3 	sdivne	r3, r1, r3
   d7674:	b29b      	uxthne	r3, r3
    uint8_t  c,
            *ptr           = pixels,
             oldBrightness = brightness - 1; // De-wrap old brightness value
    uint16_t scale;
    if(oldBrightness == 0) scale = 0; // Avoid /0
    else if(b == 255) scale = 65535 / oldBrightness;
   d7676:	bf04      	itt	eq
   d7678:	f64f 71ff 	movweq	r1, #65535	; 0xffff
   d767c:	fb91 f3f3 	sdiveq	r3, r1, r3
  // brightness (off), 255 = just below max brightness.
  uint8_t newBrightness = b + 1;
  if(newBrightness != brightness) { // Compare against prior value
    // Brightness has changed -- re-scale existing data in RAM
    uint8_t  c,
            *ptr           = pixels,
   d7680:	4625      	mov	r5, r4
             oldBrightness = brightness - 1; // De-wrap old brightness value
    uint16_t scale;
    if(oldBrightness == 0) scale = 0; // Avoid /0
    else if(b == 255) scale = 65535 / oldBrightness;
    else scale = (((uint16_t)newBrightness << 8) - 1) / oldBrightness;
    for(uint16_t i=0; i<numBytes; i++) {
   d7682:	1b29      	subs	r1, r5, r4
   d7684:	8886      	ldrh	r6, [r0, #4]
   d7686:	b289      	uxth	r1, r1
   d7688:	428e      	cmp	r6, r1
   d768a:	d905      	bls.n	d7698 <_ZN17Adafruit_NeoPixel13setBrightnessEh+0x48>
      c      = *ptr;
   d768c:	7829      	ldrb	r1, [r5, #0]
      *ptr++ = (c * scale) >> 8;
   d768e:	4359      	muls	r1, r3
   d7690:	1209      	asrs	r1, r1, #8
   d7692:	f805 1b01 	strb.w	r1, [r5], #1
             oldBrightness = brightness - 1; // De-wrap old brightness value
    uint16_t scale;
    if(oldBrightness == 0) scale = 0; // Avoid /0
    else if(b == 255) scale = 65535 / oldBrightness;
    else scale = (((uint16_t)newBrightness << 8) - 1) / oldBrightness;
    for(uint16_t i=0; i<numBytes; i++) {
   d7696:	e7f4      	b.n	d7682 <_ZN17Adafruit_NeoPixel13setBrightnessEh+0x32>
      c      = *ptr;
      *ptr++ = (c * scale) >> 8;
    }
    brightness = newBrightness;
   d7698:	7202      	strb	r2, [r0, #8]
   d769a:	bd70      	pop	{r4, r5, r6, pc}

000d769c <_ZN17Adafruit_NeoPixel5clearEv>:
uint8_t Adafruit_NeoPixel::getBrightness(void) const {
  return brightness - 1;
}

void Adafruit_NeoPixel::clear(void) {
  memset(pixels, 0, numBytes);
   d769c:	8882      	ldrh	r2, [r0, #4]
   d769e:	68c0      	ldr	r0, [r0, #12]
   d76a0:	2100      	movs	r1, #0
   d76a2:	f002 bf84 	b.w	da5ae <memset>
	...

000d76a8 <_GLOBAL__sub_I_PIN_MAP2>:
}
   d76a8:	b508      	push	{r3, lr}
   d76aa:	f000 f897 	bl	d77dc <HAL_Pin_Map>
  #define pinHI(_pin) (PIN_MAP2[_pin].gpio_peripheral->BSRRL = PIN_MAP2[_pin].gpio_pin)
#elif (PLATFORM_ID == 12) || (PLATFORM_ID == 13) || (PLATFORM_ID == 14) // Argon (12), Boron (13), Xenon (14)
  #include "nrf.h"
  #include "nrf_gpio.h"
  #include "pinmap_impl.h"
  NRF5x_Pin_Info* PIN_MAP2 = HAL_Pin_Map();
   d76ae:	f000 f895 	bl	d77dc <HAL_Pin_Map>
   d76b2:	4b01      	ldr	r3, [pc, #4]	; (d76b8 <_GLOBAL__sub_I_PIN_MAP2+0x10>)
   d76b4:	6018      	str	r0, [r3, #0]
   d76b6:	bd08      	pop	{r3, pc}
   d76b8:	2003e36c 	.word	0x2003e36c

000d76bc <_ZN7NtpTime9nowMillisEP11epochMillis>:

/*
 * Return the current time to the millisecond.
 */
void NtpTime::nowMillis(epochMillis* _now)
{
   d76bc:	b570      	push	{r4, r5, r6, lr}
  if(!synced)
   d76be:	f890 6052 	ldrb.w	r6, [r0, #82]	; 0x52

/*
 * Return the current time to the millisecond.
 */
void NtpTime::nowMillis(epochMillis* _now)
{
   d76c2:	4604      	mov	r4, r0
   d76c4:	460d      	mov	r5, r1
  if(!synced)
   d76c6:	b926      	cbnz	r6, d76d2 <_ZN7NtpTime9nowMillisEP11epochMillis+0x16>
  {
    _now->seconds = Time.now();  //We haven't had a successful time request, so do the best we can.
   d76c8:	f001 fe1b 	bl	d9302 <_ZN9TimeClass3nowEv>
    _now->millis = 0;
   d76cc:	e885 0041 	stmia.w	r5, {r0, r6}
   d76d0:	bd70      	pop	{r4, r5, r6, pc}
#endif

#include "timer_hal.h"
#include "delay_hal.h"

inline system_tick_t millis(void) { return HAL_Timer_Get_Milli_Seconds(); }
   d76d2:	f000 f86b 	bl	d77ac <HAL_Timer_Get_Milli_Seconds>
  }
  else
  {
    int nowMillis = (millis() - updateSystemMillis + NTPMillis);
   d76d6:	6fa2      	ldr	r2, [r4, #120]	; 0x78
   d76d8:	6f63      	ldr	r3, [r4, #116]	; 0x74
   d76da:	1a9b      	subs	r3, r3, r2
   d76dc:	4418      	add	r0, r3
    _now->seconds =  NTPTime - ntpTimeEpochStart + (nowMillis / 1000);
   d76de:	6da2      	ldr	r2, [r4, #88]	; 0x58
   d76e0:	6ea3      	ldr	r3, [r4, #104]	; 0x68
   d76e2:	f44f 717a 	mov.w	r1, #1000	; 0x3e8
   d76e6:	1a9b      	subs	r3, r3, r2
   d76e8:	fb90 f2f1 	sdiv	r2, r0, r1
   d76ec:	4413      	add	r3, r2
    _now->millis = nowMillis % 1000;
   d76ee:	fb01 0012 	mls	r0, r1, r2, r0
    _now->millis = 0;
  }
  else
  {
    int nowMillis = (millis() - updateSystemMillis + NTPMillis);
    _now->seconds =  NTPTime - ntpTimeEpochStart + (nowMillis / 1000);
   d76f2:	602b      	str	r3, [r5, #0]
    _now->millis = nowMillis % 1000;
   d76f4:	6068      	str	r0, [r5, #4]
   d76f6:	bd70      	pop	{r4, r5, r6, pc}

000d76f8 <_GLOBAL__sub_I__ZN7NtpTimeC2Ev>:
   d76f8:	f000 b870 	b.w	d77dc <HAL_Pin_Map>

000d76fc <os_thread_create>:

DYNALIB_BEGIN(hal_concurrent)

#if PLATFORM_THREADING
DYNALIB_FN(0, hal_concurrent, __gthread_equal, bool(__gthread_t, __gthread_t))
DYNALIB_FN(1, hal_concurrent, os_thread_create, os_result_t(os_thread_t*, const char*, os_thread_prio_t, os_thread_fn_t, void*, size_t))
   d76fc:	b508      	push	{r3, lr}
   d76fe:	4b02      	ldr	r3, [pc, #8]	; (d7708 <os_thread_create+0xc>)
   d7700:	681b      	ldr	r3, [r3, #0]
   d7702:	685b      	ldr	r3, [r3, #4]
   d7704:	9301      	str	r3, [sp, #4]
   d7706:	bd08      	pop	{r3, pc}
   d7708:	00030248 	.word	0x00030248

000d770c <os_thread_is_current>:
DYNALIB_FN(2, hal_concurrent, os_thread_is_current, bool(os_thread_t))
   d770c:	b508      	push	{r3, lr}
   d770e:	4b02      	ldr	r3, [pc, #8]	; (d7718 <os_thread_is_current+0xc>)
   d7710:	681b      	ldr	r3, [r3, #0]
   d7712:	689b      	ldr	r3, [r3, #8]
   d7714:	9301      	str	r3, [sp, #4]
   d7716:	bd08      	pop	{r3, pc}
   d7718:	00030248 	.word	0x00030248

000d771c <os_thread_yield>:
DYNALIB_FN(3, hal_concurrent, os_thread_yield, os_result_t(void))
   d771c:	b508      	push	{r3, lr}
   d771e:	4b02      	ldr	r3, [pc, #8]	; (d7728 <os_thread_yield+0xc>)
   d7720:	681b      	ldr	r3, [r3, #0]
   d7722:	68db      	ldr	r3, [r3, #12]
   d7724:	9301      	str	r3, [sp, #4]
   d7726:	bd08      	pop	{r3, pc}
   d7728:	00030248 	.word	0x00030248

000d772c <os_thread_join>:
DYNALIB_FN(4, hal_concurrent, os_thread_join, os_result_t(os_thread_t))
   d772c:	b508      	push	{r3, lr}
   d772e:	4b02      	ldr	r3, [pc, #8]	; (d7738 <os_thread_join+0xc>)
   d7730:	681b      	ldr	r3, [r3, #0]
   d7732:	691b      	ldr	r3, [r3, #16]
   d7734:	9301      	str	r3, [sp, #4]
   d7736:	bd08      	pop	{r3, pc}
   d7738:	00030248 	.word	0x00030248

000d773c <os_thread_cleanup>:
DYNALIB_FN(5, hal_concurrent, os_thread_cleanup, os_result_t(os_thread_t))
   d773c:	b508      	push	{r3, lr}
   d773e:	4b02      	ldr	r3, [pc, #8]	; (d7748 <os_thread_cleanup+0xc>)
   d7740:	681b      	ldr	r3, [r3, #0]
   d7742:	695b      	ldr	r3, [r3, #20]
   d7744:	9301      	str	r3, [sp, #4]
   d7746:	bd08      	pop	{r3, pc}
   d7748:	00030248 	.word	0x00030248

000d774c <os_mutex_create>:
DYNALIB_FN(8, hal_concurrent, os_timer_create, int(os_timer_t*, unsigned, void(*)(os_timer_t), void*, bool, void*))
DYNALIB_FN(9, hal_concurrent, os_timer_destroy, int(os_timer_t, void*))
DYNALIB_FN(10, hal_concurrent, os_timer_get_id, int(os_timer_t, void**))
DYNALIB_FN(11, hal_concurrent, os_timer_change, int(os_timer_t, os_timer_change_t, bool, unsigned, unsigned, void*))

DYNALIB_FN(12, hal_concurrent, os_mutex_create, int(os_mutex_t*))
   d774c:	b508      	push	{r3, lr}
   d774e:	4b02      	ldr	r3, [pc, #8]	; (d7758 <os_mutex_create+0xc>)
   d7750:	681b      	ldr	r3, [r3, #0]
   d7752:	6b1b      	ldr	r3, [r3, #48]	; 0x30
   d7754:	9301      	str	r3, [sp, #4]
   d7756:	bd08      	pop	{r3, pc}
   d7758:	00030248 	.word	0x00030248

000d775c <os_mutex_recursive_create>:
DYNALIB_FN(13, hal_concurrent, os_mutex_destroy, int(os_mutex_t))
DYNALIB_FN(14, hal_concurrent, os_mutex_lock, int(os_mutex_t))
DYNALIB_FN(15, hal_concurrent, os_mutex_trylock, int(os_mutex_t))
DYNALIB_FN(16, hal_concurrent, os_mutex_unlock, int(os_mutex_t))

DYNALIB_FN(17, hal_concurrent, os_mutex_recursive_create, int(os_mutex_recursive_t*))
   d775c:	b508      	push	{r3, lr}
   d775e:	4b02      	ldr	r3, [pc, #8]	; (d7768 <os_mutex_recursive_create+0xc>)
   d7760:	681b      	ldr	r3, [r3, #0]
   d7762:	6c5b      	ldr	r3, [r3, #68]	; 0x44
   d7764:	9301      	str	r3, [sp, #4]
   d7766:	bd08      	pop	{r3, pc}
   d7768:	00030248 	.word	0x00030248

000d776c <os_thread_exit>:

DYNALIB_FN(23, hal_concurrent, os_queue_create, int(os_queue_t*, size_t, size_t, void*))
DYNALIB_FN(24, hal_concurrent, os_queue_destroy, int(os_queue_t, void*))
DYNALIB_FN(25, hal_concurrent, os_queue_put, int(os_queue_t, const void* item, system_tick_t, void*))
DYNALIB_FN(26, hal_concurrent, os_queue_take, int(os_queue_t, void* item, system_tick_t, void*))
DYNALIB_FN(27, hal_concurrent, os_thread_exit, os_result_t(os_thread_t))
   d776c:	b508      	push	{r3, lr}
   d776e:	4b02      	ldr	r3, [pc, #8]	; (d7778 <os_thread_exit+0xc>)
   d7770:	681b      	ldr	r3, [r3, #0]
   d7772:	6edb      	ldr	r3, [r3, #108]	; 0x6c
   d7774:	9301      	str	r3, [sp, #4]
   d7776:	bd08      	pop	{r3, pc}
   d7778:	00030248 	.word	0x00030248

000d777c <HAL_RNG_GetRandomNumber>:

DYNALIB_BEGIN(hal)

#if PLATFORM_ID > 3
DYNALIB_FN(0, hal, HAL_RNG_Configuration, void(void))
DYNALIB_FN(1, hal, HAL_RNG_GetRandomNumber, uint32_t(void))
   d777c:	b508      	push	{r3, lr}
   d777e:	4b02      	ldr	r3, [pc, #8]	; (d7788 <HAL_RNG_GetRandomNumber+0xc>)
   d7780:	681b      	ldr	r3, [r3, #0]
   d7782:	685b      	ldr	r3, [r3, #4]
   d7784:	9301      	str	r3, [sp, #4]
   d7786:	bd08      	pop	{r3, pc}
   d7788:	00030218 	.word	0x00030218

000d778c <HAL_Delay_Microseconds>:
#else
#define BASE_IDX 0
#endif

DYNALIB_FN(BASE_IDX + 0, hal, HAL_Delay_Milliseconds, void(uint32_t))
DYNALIB_FN(BASE_IDX + 1, hal, HAL_Delay_Microseconds, void(uint32_t))
   d778c:	b508      	push	{r3, lr}
   d778e:	4b02      	ldr	r3, [pc, #8]	; (d7798 <HAL_Delay_Microseconds+0xc>)
   d7790:	681b      	ldr	r3, [r3, #0]
   d7792:	68db      	ldr	r3, [r3, #12]
   d7794:	9301      	str	r3, [sp, #4]
   d7796:	bd08      	pop	{r3, pc}
   d7798:	00030218 	.word	0x00030218

000d779c <HAL_Timer_Get_Micro_Seconds>:
DYNALIB_FN(BASE_IDX + 2, hal, HAL_Timer_Get_Micro_Seconds, system_tick_t(void))
   d779c:	b508      	push	{r3, lr}
   d779e:	4b02      	ldr	r3, [pc, #8]	; (d77a8 <HAL_Timer_Get_Micro_Seconds+0xc>)
   d77a0:	681b      	ldr	r3, [r3, #0]
   d77a2:	691b      	ldr	r3, [r3, #16]
   d77a4:	9301      	str	r3, [sp, #4]
   d77a6:	bd08      	pop	{r3, pc}
   d77a8:	00030218 	.word	0x00030218

000d77ac <HAL_Timer_Get_Milli_Seconds>:
DYNALIB_FN(BASE_IDX + 3, hal, HAL_Timer_Get_Milli_Seconds, system_tick_t(void))
   d77ac:	b508      	push	{r3, lr}
   d77ae:	4b02      	ldr	r3, [pc, #8]	; (d77b8 <HAL_Timer_Get_Milli_Seconds+0xc>)
   d77b0:	681b      	ldr	r3, [r3, #0]
   d77b2:	695b      	ldr	r3, [r3, #20]
   d77b4:	9301      	str	r3, [sp, #4]
   d77b6:	bd08      	pop	{r3, pc}
   d77b8:	00030218 	.word	0x00030218

000d77bc <HAL_RTC_Get_UnixTime>:

DYNALIB_FN(BASE_IDX + 4, hal, HAL_RTC_Configuration, void(void))
DYNALIB_FN(BASE_IDX + 5, hal, HAL_RTC_Get_UnixTime, time_t(void))
   d77bc:	b508      	push	{r3, lr}
   d77be:	4b02      	ldr	r3, [pc, #8]	; (d77c8 <HAL_RTC_Get_UnixTime+0xc>)
   d77c0:	681b      	ldr	r3, [r3, #0]
   d77c2:	69db      	ldr	r3, [r3, #28]
   d77c4:	9301      	str	r3, [sp, #4]
   d77c6:	bd08      	pop	{r3, pc}
   d77c8:	00030218 	.word	0x00030218

000d77cc <HAL_RTC_Time_Is_Valid>:
DYNALIB_FN(BASE_IDX + 15, hal,HAL_EEPROM_Get, void(uint32_t, void *, size_t))
DYNALIB_FN(BASE_IDX + 16, hal,HAL_EEPROM_Put, void(uint32_t, const void *, size_t))
DYNALIB_FN(BASE_IDX + 17, hal,HAL_EEPROM_Clear, void(void))
DYNALIB_FN(BASE_IDX + 18, hal,HAL_EEPROM_Has_Pending_Erase, bool(void))
DYNALIB_FN(BASE_IDX + 19, hal,HAL_EEPROM_Perform_Pending_Erase, void(void))
DYNALIB_FN(BASE_IDX + 20, hal, HAL_RTC_Time_Is_Valid, uint8_t(void*))
   d77cc:	b508      	push	{r3, lr}
   d77ce:	4b02      	ldr	r3, [pc, #8]	; (d77d8 <HAL_RTC_Time_Is_Valid+0xc>)
   d77d0:	681b      	ldr	r3, [r3, #0]
   d77d2:	6d9b      	ldr	r3, [r3, #88]	; 0x58
   d77d4:	9301      	str	r3, [sp, #4]
   d77d6:	bd08      	pop	{r3, pc}
   d77d8:	00030218 	.word	0x00030218

000d77dc <HAL_Pin_Map>:
// New HAL functions must be added to the end of this list.
// GNINRAW

DYNALIB_BEGIN(hal_gpio)

DYNALIB_FN(0, hal_gpio, HAL_Pin_Map, STM32_Pin_Info*(void))
   d77dc:	b508      	push	{r3, lr}
   d77de:	4b02      	ldr	r3, [pc, #8]	; (d77e8 <HAL_Pin_Map+0xc>)
   d77e0:	681b      	ldr	r3, [r3, #0]
   d77e2:	681b      	ldr	r3, [r3, #0]
   d77e4:	9301      	str	r3, [sp, #4]
   d77e6:	bd08      	pop	{r3, pc}
   d77e8:	0003022c 	.word	0x0003022c

000d77ec <HAL_Validate_Pin_Function>:
DYNALIB_FN(1, hal_gpio, HAL_Validate_Pin_Function, PinFunction(pin_t, PinFunction))
   d77ec:	b508      	push	{r3, lr}
   d77ee:	4b02      	ldr	r3, [pc, #8]	; (d77f8 <HAL_Validate_Pin_Function+0xc>)
   d77f0:	681b      	ldr	r3, [r3, #0]
   d77f2:	685b      	ldr	r3, [r3, #4]
   d77f4:	9301      	str	r3, [sp, #4]
   d77f6:	bd08      	pop	{r3, pc}
   d77f8:	0003022c 	.word	0x0003022c

000d77fc <HAL_Pin_Mode>:
DYNALIB_FN(2, hal_gpio, HAL_Pin_Mode, void(pin_t, PinMode))
   d77fc:	b508      	push	{r3, lr}
   d77fe:	4b02      	ldr	r3, [pc, #8]	; (d7808 <HAL_Pin_Mode+0xc>)
   d7800:	681b      	ldr	r3, [r3, #0]
   d7802:	689b      	ldr	r3, [r3, #8]
   d7804:	9301      	str	r3, [sp, #4]
   d7806:	bd08      	pop	{r3, pc}
   d7808:	0003022c 	.word	0x0003022c

000d780c <HAL_Get_Pin_Mode>:
DYNALIB_FN(3, hal_gpio, HAL_Get_Pin_Mode, PinMode(pin_t))
   d780c:	b508      	push	{r3, lr}
   d780e:	4b02      	ldr	r3, [pc, #8]	; (d7818 <HAL_Get_Pin_Mode+0xc>)
   d7810:	681b      	ldr	r3, [r3, #0]
   d7812:	68db      	ldr	r3, [r3, #12]
   d7814:	9301      	str	r3, [sp, #4]
   d7816:	bd08      	pop	{r3, pc}
   d7818:	0003022c 	.word	0x0003022c

000d781c <HAL_GPIO_Write>:
DYNALIB_FN(4, hal_gpio, HAL_GPIO_Write, void(pin_t, uint8_t))
   d781c:	b508      	push	{r3, lr}
   d781e:	4b02      	ldr	r3, [pc, #8]	; (d7828 <HAL_GPIO_Write+0xc>)
   d7820:	681b      	ldr	r3, [r3, #0]
   d7822:	691b      	ldr	r3, [r3, #16]
   d7824:	9301      	str	r3, [sp, #4]
   d7826:	bd08      	pop	{r3, pc}
   d7828:	0003022c 	.word	0x0003022c

000d782c <HAL_GPIO_Read>:
DYNALIB_FN(5, hal_gpio, HAL_GPIO_Read, int32_t(pin_t))
   d782c:	b508      	push	{r3, lr}
   d782e:	4b02      	ldr	r3, [pc, #8]	; (d7838 <HAL_GPIO_Read+0xc>)
   d7830:	681b      	ldr	r3, [r3, #0]
   d7832:	695b      	ldr	r3, [r3, #20]
   d7834:	9301      	str	r3, [sp, #4]
   d7836:	bd08      	pop	{r3, pc}
   d7838:	0003022c 	.word	0x0003022c

000d783c <HAL_DAC_Write>:
DYNALIB_FN(6, hal_gpio, HAL_Interrupts_Attach, void(uint16_t, HAL_InterruptHandler, void*, InterruptMode, HAL_InterruptExtraConfiguration*))
DYNALIB_FN(7, hal_gpio, HAL_Interrupts_Detach, void(uint16_t))
DYNALIB_FN(8, hal_gpio, HAL_Interrupts_Enable_All, void(void))
DYNALIB_FN(9, hal_gpio, HAL_Interrupts_Disable_All, void(void))

DYNALIB_FN(10, hal_gpio, HAL_DAC_Write, void(pin_t, uint16_t))
   d783c:	b508      	push	{r3, lr}
   d783e:	4b02      	ldr	r3, [pc, #8]	; (d7848 <HAL_DAC_Write+0xc>)
   d7840:	681b      	ldr	r3, [r3, #0]
   d7842:	6a9b      	ldr	r3, [r3, #40]	; 0x28
   d7844:	9301      	str	r3, [sp, #4]
   d7846:	bd08      	pop	{r3, pc}
   d7848:	0003022c 	.word	0x0003022c

000d784c <HAL_ADC_Read>:
DYNALIB_FN(11, hal_gpio, HAL_ADC_Set_Sample_Time, void(uint8_t))
DYNALIB_FN(12, hal_gpio, HAL_ADC_Read, int32_t(uint16_t))
   d784c:	b508      	push	{r3, lr}
   d784e:	4b02      	ldr	r3, [pc, #8]	; (d7858 <HAL_ADC_Read+0xc>)
   d7850:	681b      	ldr	r3, [r3, #0]
   d7852:	6b1b      	ldr	r3, [r3, #48]	; 0x30
   d7854:	9301      	str	r3, [sp, #4]
   d7856:	bd08      	pop	{r3, pc}
   d7858:	0003022c 	.word	0x0003022c

000d785c <HAL_PWM_Write_Ext>:
DYNALIB_FN(25, hal_gpio, HAL_DAC_Get_Resolution, uint8_t(pin_t))
DYNALIB_FN(26, hal_gpio, HAL_DAC_Set_Resolution, void(pin_t, uint8_t))
DYNALIB_FN(27, hal_gpio, HAL_DAC_Enable_Buffer, void(pin_t pin, uint8_t state))
DYNALIB_FN(28, hal_gpio, HAL_PWM_Get_Resolution, uint8_t(uint16_t))
DYNALIB_FN(29, hal_gpio, HAL_PWM_Set_Resolution, void(uint16_t, uint8_t))
DYNALIB_FN(30, hal_gpio, HAL_PWM_Write_Ext, void(uint16_t, uint32_t))
   d785c:	b508      	push	{r3, lr}
   d785e:	4b02      	ldr	r3, [pc, #8]	; (d7868 <HAL_PWM_Write_Ext+0xc>)
   d7860:	681b      	ldr	r3, [r3, #0]
   d7862:	6f9b      	ldr	r3, [r3, #120]	; 0x78
   d7864:	9301      	str	r3, [sp, #4]
   d7866:	bd08      	pop	{r3, pc}
   d7868:	0003022c 	.word	0x0003022c

000d786c <HAL_I2C_Begin>:
#endif

DYNALIB_FN(BASE_IDX + 0, hal_i2c, HAL_I2C_Set_Speed, void(HAL_I2C_Interface, uint32_t, void*))
DYNALIB_FN(BASE_IDX + 1, hal_i2c, HAL_I2C_Enable_DMA_Mode, void(HAL_I2C_Interface, bool, void*))
DYNALIB_FN(BASE_IDX + 2, hal_i2c, HAL_I2C_Stretch_Clock, void(HAL_I2C_Interface, bool, void*))
DYNALIB_FN(BASE_IDX + 3, hal_i2c, HAL_I2C_Begin, void(HAL_I2C_Interface, I2C_Mode, uint8_t, void*))
   d786c:	b508      	push	{r3, lr}
   d786e:	4b02      	ldr	r3, [pc, #8]	; (d7878 <HAL_I2C_Begin+0xc>)
   d7870:	681b      	ldr	r3, [r3, #0]
   d7872:	68db      	ldr	r3, [r3, #12]
   d7874:	9301      	str	r3, [sp, #4]
   d7876:	bd08      	pop	{r3, pc}
   d7878:	00030228 	.word	0x00030228

000d787c <HAL_I2C_Request_Data>:
DYNALIB_FN(BASE_IDX + 4, hal_i2c, HAL_I2C_End, void(HAL_I2C_Interface, void*))
DYNALIB_FN(BASE_IDX + 5, hal_i2c, HAL_I2C_Request_Data, uint32_t(HAL_I2C_Interface, uint8_t, uint8_t, uint8_t, void*))
   d787c:	b508      	push	{r3, lr}
   d787e:	4b02      	ldr	r3, [pc, #8]	; (d7888 <HAL_I2C_Request_Data+0xc>)
   d7880:	681b      	ldr	r3, [r3, #0]
   d7882:	695b      	ldr	r3, [r3, #20]
   d7884:	9301      	str	r3, [sp, #4]
   d7886:	bd08      	pop	{r3, pc}
   d7888:	00030228 	.word	0x00030228

000d788c <HAL_I2C_Begin_Transmission>:
DYNALIB_FN(BASE_IDX + 6, hal_i2c, HAL_I2C_Begin_Transmission, void(HAL_I2C_Interface, uint8_t, void*))
   d788c:	b508      	push	{r3, lr}
   d788e:	4b02      	ldr	r3, [pc, #8]	; (d7898 <HAL_I2C_Begin_Transmission+0xc>)
   d7890:	681b      	ldr	r3, [r3, #0]
   d7892:	699b      	ldr	r3, [r3, #24]
   d7894:	9301      	str	r3, [sp, #4]
   d7896:	bd08      	pop	{r3, pc}
   d7898:	00030228 	.word	0x00030228

000d789c <HAL_I2C_End_Transmission>:
DYNALIB_FN(BASE_IDX + 7, hal_i2c, HAL_I2C_End_Transmission, uint8_t(HAL_I2C_Interface, uint8_t, void*))
   d789c:	b508      	push	{r3, lr}
   d789e:	4b02      	ldr	r3, [pc, #8]	; (d78a8 <HAL_I2C_End_Transmission+0xc>)
   d78a0:	681b      	ldr	r3, [r3, #0]
   d78a2:	69db      	ldr	r3, [r3, #28]
   d78a4:	9301      	str	r3, [sp, #4]
   d78a6:	bd08      	pop	{r3, pc}
   d78a8:	00030228 	.word	0x00030228

000d78ac <HAL_I2C_Write_Data>:
DYNALIB_FN(BASE_IDX + 8, hal_i2c, HAL_I2C_Write_Data, uint32_t(HAL_I2C_Interface, uint8_t, void*))
   d78ac:	b508      	push	{r3, lr}
   d78ae:	4b02      	ldr	r3, [pc, #8]	; (d78b8 <HAL_I2C_Write_Data+0xc>)
   d78b0:	681b      	ldr	r3, [r3, #0]
   d78b2:	6a1b      	ldr	r3, [r3, #32]
   d78b4:	9301      	str	r3, [sp, #4]
   d78b6:	bd08      	pop	{r3, pc}
   d78b8:	00030228 	.word	0x00030228

000d78bc <HAL_I2C_Available_Data>:
DYNALIB_FN(BASE_IDX + 9, hal_i2c, HAL_I2C_Available_Data, int32_t(HAL_I2C_Interface, void*))
   d78bc:	b508      	push	{r3, lr}
   d78be:	4b02      	ldr	r3, [pc, #8]	; (d78c8 <HAL_I2C_Available_Data+0xc>)
   d78c0:	681b      	ldr	r3, [r3, #0]
   d78c2:	6a5b      	ldr	r3, [r3, #36]	; 0x24
   d78c4:	9301      	str	r3, [sp, #4]
   d78c6:	bd08      	pop	{r3, pc}
   d78c8:	00030228 	.word	0x00030228

000d78cc <HAL_I2C_Read_Data>:
DYNALIB_FN(BASE_IDX + 10, hal_i2c, HAL_I2C_Read_Data, int32_t(HAL_I2C_Interface, void*))
   d78cc:	b508      	push	{r3, lr}
   d78ce:	4b02      	ldr	r3, [pc, #8]	; (d78d8 <HAL_I2C_Read_Data+0xc>)
   d78d0:	681b      	ldr	r3, [r3, #0]
   d78d2:	6a9b      	ldr	r3, [r3, #40]	; 0x28
   d78d4:	9301      	str	r3, [sp, #4]
   d78d6:	bd08      	pop	{r3, pc}
   d78d8:	00030228 	.word	0x00030228

000d78dc <HAL_I2C_Peek_Data>:
DYNALIB_FN(BASE_IDX + 11, hal_i2c, HAL_I2C_Peek_Data, int32_t(HAL_I2C_Interface, void*))
   d78dc:	b508      	push	{r3, lr}
   d78de:	4b02      	ldr	r3, [pc, #8]	; (d78e8 <HAL_I2C_Peek_Data+0xc>)
   d78e0:	681b      	ldr	r3, [r3, #0]
   d78e2:	6adb      	ldr	r3, [r3, #44]	; 0x2c
   d78e4:	9301      	str	r3, [sp, #4]
   d78e6:	bd08      	pop	{r3, pc}
   d78e8:	00030228 	.word	0x00030228

000d78ec <HAL_I2C_Flush_Data>:
DYNALIB_FN(BASE_IDX + 12, hal_i2c, HAL_I2C_Flush_Data, void(HAL_I2C_Interface, void*))
   d78ec:	b508      	push	{r3, lr}
   d78ee:	4b02      	ldr	r3, [pc, #8]	; (d78f8 <HAL_I2C_Flush_Data+0xc>)
   d78f0:	681b      	ldr	r3, [r3, #0]
   d78f2:	6b1b      	ldr	r3, [r3, #48]	; 0x30
   d78f4:	9301      	str	r3, [sp, #4]
   d78f6:	bd08      	pop	{r3, pc}
   d78f8:	00030228 	.word	0x00030228

000d78fc <HAL_I2C_Is_Enabled>:
DYNALIB_FN(BASE_IDX + 13, hal_i2c, HAL_I2C_Is_Enabled, bool(HAL_I2C_Interface, void*))
   d78fc:	b508      	push	{r3, lr}
   d78fe:	4b02      	ldr	r3, [pc, #8]	; (d7908 <HAL_I2C_Is_Enabled+0xc>)
   d7900:	681b      	ldr	r3, [r3, #0]
   d7902:	6b5b      	ldr	r3, [r3, #52]	; 0x34
   d7904:	9301      	str	r3, [sp, #4]
   d7906:	bd08      	pop	{r3, pc}
   d7908:	00030228 	.word	0x00030228

000d790c <HAL_I2C_Init>:
DYNALIB_FN(BASE_IDX + 14, hal_i2c, HAL_I2C_Set_Callback_On_Receive, void(HAL_I2C_Interface, void(*)(int), void*))
DYNALIB_FN(BASE_IDX + 15, hal_i2c, HAL_I2C_Set_Callback_On_Request, void(HAL_I2C_Interface, void(*)(void), void*))
DYNALIB_FN(BASE_IDX + 16, hal_i2c, HAL_I2C_Init, void(HAL_I2C_Interface, void*))
   d790c:	b508      	push	{r3, lr}
   d790e:	4b02      	ldr	r3, [pc, #8]	; (d7918 <HAL_I2C_Init+0xc>)
   d7910:	681b      	ldr	r3, [r3, #0]
   d7912:	6c1b      	ldr	r3, [r3, #64]	; 0x40
   d7914:	9301      	str	r3, [sp, #4]
   d7916:	bd08      	pop	{r3, pc}
   d7918:	00030228 	.word	0x00030228

000d791c <if_index_to_name>:
DYNALIB_FN(0, hal_ifapi, if_get_list, int(struct if_list**))
DYNALIB_FN(1, hal_ifapi, if_free_list, int(struct if_list*))
DYNALIB_FN(2, hal_ifapi, if_get_name_index, int(struct if_nameindex**))
DYNALIB_FN(3, hal_ifapi, if_free_name_index, int(struct if_nameindex*))
DYNALIB_FN(4, hal_ifapi, if_name_to_index, int(const char*, uint8_t*))
DYNALIB_FN(5, hal_ifapi, if_index_to_name, int(uint8_t, char*))
   d791c:	b508      	push	{r3, lr}
   d791e:	4b02      	ldr	r3, [pc, #8]	; (d7928 <if_index_to_name+0xc>)
   d7920:	681b      	ldr	r3, [r3, #0]
   d7922:	695b      	ldr	r3, [r3, #20]
   d7924:	9301      	str	r3, [sp, #4]
   d7926:	bd08      	pop	{r3, pc}
   d7928:	0003026c 	.word	0x0003026c

000d792c <inet_inet_ntop>:
DYNALIB_FN(0, hal_inet, inet_inet_addr, in_addr_t(const char*))
DYNALIB_FN(1, hal_inet, inet_inet_aton, int(const char*, struct in_addr*))
DYNALIB_FN(2, hal_inet, inet_inet_network, in_addr_t(const char*))
DYNALIB_FN(3, hal_inet, inet_inet_ntoa, char*(struct in_addr))
DYNALIB_FN(4, hal_inet, inet_inet_ntoa_r, char*(struct in_addr, char*, socklen_t))
DYNALIB_FN(5, hal_inet, inet_inet_ntop, const char*(int, const void*, char*, socklen_t))
   d792c:	b508      	push	{r3, lr}
   d792e:	4b02      	ldr	r3, [pc, #8]	; (d7938 <inet_inet_ntop+0xc>)
   d7930:	681b      	ldr	r3, [r3, #0]
   d7932:	695b      	ldr	r3, [r3, #20]
   d7934:	9301      	str	r3, [sp, #4]
   d7936:	bd08      	pop	{r3, pc}
   d7938:	00030264 	.word	0x00030264

000d793c <inet_htonl>:
DYNALIB_FN(6, hal_inet, inet_inet_pton, int(int, const char*, void*))
DYNALIB_FN(7, hal_inet, inet_ntohl, uint32_t(uint32_t))
DYNALIB_FN(8, hal_inet, inet_htonl, uint32_t(uint32_t))
   d793c:	b508      	push	{r3, lr}
   d793e:	4b02      	ldr	r3, [pc, #8]	; (d7948 <inet_htonl+0xc>)
   d7940:	681b      	ldr	r3, [r3, #0]
   d7942:	6a1b      	ldr	r3, [r3, #32]
   d7944:	9301      	str	r3, [sp, #4]
   d7946:	bd08      	pop	{r3, pc}
   d7948:	00030264 	.word	0x00030264

000d794c <inet_htons>:
DYNALIB_FN(9, hal_inet, inet_ntohs, uint16_t(uint16_t))
DYNALIB_FN(10, hal_inet, inet_htons, uint16_t(uint16_t))
   d794c:	b508      	push	{r3, lr}
   d794e:	4b02      	ldr	r3, [pc, #8]	; (d7958 <inet_htons+0xc>)
   d7950:	681b      	ldr	r3, [r3, #0]
   d7952:	6a9b      	ldr	r3, [r3, #40]	; 0x28
   d7954:	9301      	str	r3, [sp, #4]
   d7956:	bd08      	pop	{r3, pc}
   d7958:	00030264 	.word	0x00030264

000d795c <netdb_freeaddrinfo>:

DYNALIB_BEGIN(hal_netdb)

DYNALIB_FN(0, hal_netdb, netdb_gethostbyname, struct hostent*(const char*))
DYNALIB_FN(1, hal_netdb, netdb_gethostbyname_r, int(const char*, struct hostent*, char*, size_t, struct hostent**, int*))
DYNALIB_FN(2, hal_netdb, netdb_freeaddrinfo, void(struct addrinfo*))
   d795c:	b508      	push	{r3, lr}
   d795e:	4b02      	ldr	r3, [pc, #8]	; (d7968 <netdb_freeaddrinfo+0xc>)
   d7960:	681b      	ldr	r3, [r3, #0]
   d7962:	689b      	ldr	r3, [r3, #8]
   d7964:	9301      	str	r3, [sp, #4]
   d7966:	bd08      	pop	{r3, pc}
   d7968:	00030268 	.word	0x00030268

000d796c <netdb_getaddrinfo>:
DYNALIB_FN(3, hal_netdb, netdb_getaddrinfo, int(const char*, const char*, const struct addrinfo*, struct addrinfo**))
   d796c:	b508      	push	{r3, lr}
   d796e:	4b02      	ldr	r3, [pc, #8]	; (d7978 <netdb_getaddrinfo+0xc>)
   d7970:	681b      	ldr	r3, [r3, #0]
   d7972:	68db      	ldr	r3, [r3, #12]
   d7974:	9301      	str	r3, [sp, #4]
   d7976:	bd08      	pop	{r3, pc}
   d7978:	00030268 	.word	0x00030268

000d797c <HAL_Tone_Start>:
// New HAL functions must be added to the end of this list.
// GNINRAW

DYNALIB_BEGIN(hal_peripherals)

DYNALIB_FN(0, hal_peripherals, HAL_Tone_Start, void(uint8_t, uint32_t, uint32_t))
   d797c:	b508      	push	{r3, lr}
   d797e:	4b02      	ldr	r3, [pc, #8]	; (d7988 <HAL_Tone_Start+0xc>)
   d7980:	681b      	ldr	r3, [r3, #0]
   d7982:	681b      	ldr	r3, [r3, #0]
   d7984:	9301      	str	r3, [sp, #4]
   d7986:	bd08      	pop	{r3, pc}
   d7988:	00030224 	.word	0x00030224

000d798c <sock_setsockopt>:
DYNALIB_FN(1, hal_socket, sock_bind, int(int, const struct sockaddr*, socklen_t))
DYNALIB_FN(2, hal_socket, sock_shutdown, int(int, int))
DYNALIB_FN(3, hal_socket, sock_getpeername, int(int, struct sockaddr*, socklen_t*))
DYNALIB_FN(4, hal_socket, sock_getsockname, int(int, struct sockaddr*, socklen_t*))
DYNALIB_FN(5, hal_socket, sock_getsockopt, int(int, int, int, void*, socklen_t*))
DYNALIB_FN(6, hal_socket, sock_setsockopt, int(int, int, int, const void*, socklen_t))
   d798c:	b508      	push	{r3, lr}
   d798e:	4b02      	ldr	r3, [pc, #8]	; (d7998 <sock_setsockopt+0xc>)
   d7990:	681b      	ldr	r3, [r3, #0]
   d7992:	699b      	ldr	r3, [r3, #24]
   d7994:	9301      	str	r3, [sp, #4]
   d7996:	bd08      	pop	{r3, pc}
   d7998:	00030238 	.word	0x00030238

000d799c <sock_close>:
DYNALIB_FN(7, hal_socket, sock_close, int(int))
   d799c:	b508      	push	{r3, lr}
   d799e:	4b02      	ldr	r3, [pc, #8]	; (d79a8 <sock_close+0xc>)
   d79a0:	681b      	ldr	r3, [r3, #0]
   d79a2:	69db      	ldr	r3, [r3, #28]
   d79a4:	9301      	str	r3, [sp, #4]
   d79a6:	bd08      	pop	{r3, pc}
   d79a8:	00030238 	.word	0x00030238

000d79ac <sock_connect>:
DYNALIB_FN(8, hal_socket, sock_connect, int(int, const struct sockaddr*, socklen_t))
   d79ac:	b508      	push	{r3, lr}
   d79ae:	4b02      	ldr	r3, [pc, #8]	; (d79b8 <sock_connect+0xc>)
   d79b0:	681b      	ldr	r3, [r3, #0]
   d79b2:	6a1b      	ldr	r3, [r3, #32]
   d79b4:	9301      	str	r3, [sp, #4]
   d79b6:	bd08      	pop	{r3, pc}
   d79b8:	00030238 	.word	0x00030238

000d79bc <sock_recv>:
DYNALIB_FN(9, hal_socket, sock_listen, int(int, int))
DYNALIB_FN(10, hal_socket, sock_recv, int(int, void*, size_t, int))
   d79bc:	b508      	push	{r3, lr}
   d79be:	4b02      	ldr	r3, [pc, #8]	; (d79c8 <sock_recv+0xc>)
   d79c0:	681b      	ldr	r3, [r3, #0]
   d79c2:	6a9b      	ldr	r3, [r3, #40]	; 0x28
   d79c4:	9301      	str	r3, [sp, #4]
   d79c6:	bd08      	pop	{r3, pc}
   d79c8:	00030238 	.word	0x00030238

000d79cc <sock_send>:
DYNALIB_FN(11, hal_socket, sock_recvfrom, int(int, void*, size_t, int, struct sockaddr*, socklen_t*))
DYNALIB_FN(12, hal_socket, sock_send, int(int, const void*, size_t, int))
   d79cc:	b508      	push	{r3, lr}
   d79ce:	4b02      	ldr	r3, [pc, #8]	; (d79d8 <sock_send+0xc>)
   d79d0:	681b      	ldr	r3, [r3, #0]
   d79d2:	6b1b      	ldr	r3, [r3, #48]	; 0x30
   d79d4:	9301      	str	r3, [sp, #4]
   d79d6:	bd08      	pop	{r3, pc}
   d79d8:	00030238 	.word	0x00030238

000d79dc <sock_socket>:
DYNALIB_FN(13, hal_socket, sock_sendto, int(int, const void*, size_t, int, const struct sockaddr*, socklen_t))
DYNALIB_FN(14, hal_socket, sock_socket, int(int, int, int))
   d79dc:	b508      	push	{r3, lr}
   d79de:	4b02      	ldr	r3, [pc, #8]	; (d79e8 <sock_socket+0xc>)
   d79e0:	681b      	ldr	r3, [r3, #0]
   d79e2:	6b9b      	ldr	r3, [r3, #56]	; 0x38
   d79e4:	9301      	str	r3, [sp, #4]
   d79e6:	bd08      	pop	{r3, pc}
   d79e8:	00030238 	.word	0x00030238

000d79ec <HAL_SPI_Init>:
DYNALIB_FN(2, hal_spi, HAL_SPI_Set_Bit_Order, void(HAL_SPI_Interface, uint8_t))
DYNALIB_FN(3, hal_spi, HAL_SPI_Set_Data_Mode, void(HAL_SPI_Interface, uint8_t))
DYNALIB_FN(4, hal_spi, HAL_SPI_Set_Clock_Divider, void(HAL_SPI_Interface, uint8_t))
DYNALIB_FN(5, hal_spi, HAL_SPI_Send_Receive_Data, uint16_t(HAL_SPI_Interface, uint16_t))
DYNALIB_FN(6, hal_spi, HAL_SPI_Is_Enabled_Old, bool(void))
DYNALIB_FN(7, hal_spi, HAL_SPI_Init, void(HAL_SPI_Interface))
   d79ec:	b508      	push	{r3, lr}
   d79ee:	4b02      	ldr	r3, [pc, #8]	; (d79f8 <HAL_SPI_Init+0xc>)
   d79f0:	681b      	ldr	r3, [r3, #0]
   d79f2:	69db      	ldr	r3, [r3, #28]
   d79f4:	9301      	str	r3, [sp, #4]
   d79f6:	bd08      	pop	{r3, pc}
   d79f8:	00030230 	.word	0x00030230

000d79fc <HAL_SPI_Is_Enabled>:
DYNALIB_FN(8, hal_spi, HAL_SPI_Is_Enabled, bool(HAL_SPI_Interface))
   d79fc:	b508      	push	{r3, lr}
   d79fe:	4b02      	ldr	r3, [pc, #8]	; (d7a08 <HAL_SPI_Is_Enabled+0xc>)
   d7a00:	681b      	ldr	r3, [r3, #0]
   d7a02:	6a1b      	ldr	r3, [r3, #32]
   d7a04:	9301      	str	r3, [sp, #4]
   d7a06:	bd08      	pop	{r3, pc}
   d7a08:	00030230 	.word	0x00030230

000d7a0c <HAL_USART_Init>:
#define BASE_IDX 6 // Base index for all subsequent functions
#else
#define BASE_IDX 0
#endif

DYNALIB_FN(BASE_IDX + 0, hal_usart, HAL_USART_Init, void(HAL_USART_Serial, Ring_Buffer*, Ring_Buffer*))
   d7a0c:	b508      	push	{r3, lr}
   d7a0e:	4b02      	ldr	r3, [pc, #8]	; (d7a18 <HAL_USART_Init+0xc>)
   d7a10:	681b      	ldr	r3, [r3, #0]
   d7a12:	681b      	ldr	r3, [r3, #0]
   d7a14:	9301      	str	r3, [sp, #4]
   d7a16:	bd08      	pop	{r3, pc}
   d7a18:	0003023c 	.word	0x0003023c

000d7a1c <HAL_USART_Write_Data>:
DYNALIB_FN(BASE_IDX + 1, hal_usart, HAL_USART_Begin, void(HAL_USART_Serial, uint32_t))
DYNALIB_FN(BASE_IDX + 2, hal_usart, HAL_USART_End, void(HAL_USART_Serial))
DYNALIB_FN(BASE_IDX + 3, hal_usart, HAL_USART_Write_Data, uint32_t(HAL_USART_Serial, uint8_t))
   d7a1c:	b508      	push	{r3, lr}
   d7a1e:	4b02      	ldr	r3, [pc, #8]	; (d7a28 <HAL_USART_Write_Data+0xc>)
   d7a20:	681b      	ldr	r3, [r3, #0]
   d7a22:	68db      	ldr	r3, [r3, #12]
   d7a24:	9301      	str	r3, [sp, #4]
   d7a26:	bd08      	pop	{r3, pc}
   d7a28:	0003023c 	.word	0x0003023c

000d7a2c <HAL_USART_Available_Data>:
DYNALIB_FN(BASE_IDX + 4, hal_usart, HAL_USART_Available_Data, int32_t(HAL_USART_Serial))
   d7a2c:	b508      	push	{r3, lr}
   d7a2e:	4b02      	ldr	r3, [pc, #8]	; (d7a38 <HAL_USART_Available_Data+0xc>)
   d7a30:	681b      	ldr	r3, [r3, #0]
   d7a32:	691b      	ldr	r3, [r3, #16]
   d7a34:	9301      	str	r3, [sp, #4]
   d7a36:	bd08      	pop	{r3, pc}
   d7a38:	0003023c 	.word	0x0003023c

000d7a3c <HAL_USART_Read_Data>:
DYNALIB_FN(BASE_IDX + 5, hal_usart, HAL_USART_Read_Data, int32_t(HAL_USART_Serial))
   d7a3c:	b508      	push	{r3, lr}
   d7a3e:	4b02      	ldr	r3, [pc, #8]	; (d7a48 <HAL_USART_Read_Data+0xc>)
   d7a40:	681b      	ldr	r3, [r3, #0]
   d7a42:	695b      	ldr	r3, [r3, #20]
   d7a44:	9301      	str	r3, [sp, #4]
   d7a46:	bd08      	pop	{r3, pc}
   d7a48:	0003023c 	.word	0x0003023c

000d7a4c <HAL_USART_Peek_Data>:
DYNALIB_FN(BASE_IDX + 6, hal_usart, HAL_USART_Peek_Data, int32_t(HAL_USART_Serial))
   d7a4c:	b508      	push	{r3, lr}
   d7a4e:	4b02      	ldr	r3, [pc, #8]	; (d7a58 <HAL_USART_Peek_Data+0xc>)
   d7a50:	681b      	ldr	r3, [r3, #0]
   d7a52:	699b      	ldr	r3, [r3, #24]
   d7a54:	9301      	str	r3, [sp, #4]
   d7a56:	bd08      	pop	{r3, pc}
   d7a58:	0003023c 	.word	0x0003023c

000d7a5c <HAL_USART_Flush_Data>:
DYNALIB_FN(BASE_IDX + 7, hal_usart, HAL_USART_Flush_Data, void(HAL_USART_Serial))
   d7a5c:	b508      	push	{r3, lr}
   d7a5e:	4b02      	ldr	r3, [pc, #8]	; (d7a68 <HAL_USART_Flush_Data+0xc>)
   d7a60:	681b      	ldr	r3, [r3, #0]
   d7a62:	69db      	ldr	r3, [r3, #28]
   d7a64:	9301      	str	r3, [sp, #4]
   d7a66:	bd08      	pop	{r3, pc}
   d7a68:	0003023c 	.word	0x0003023c

000d7a6c <HAL_USART_Is_Enabled>:
DYNALIB_FN(BASE_IDX + 8, hal_usart, HAL_USART_Is_Enabled, bool(HAL_USART_Serial))
   d7a6c:	b508      	push	{r3, lr}
   d7a6e:	4b02      	ldr	r3, [pc, #8]	; (d7a78 <HAL_USART_Is_Enabled+0xc>)
   d7a70:	681b      	ldr	r3, [r3, #0]
   d7a72:	6a1b      	ldr	r3, [r3, #32]
   d7a74:	9301      	str	r3, [sp, #4]
   d7a76:	bd08      	pop	{r3, pc}
   d7a78:	0003023c 	.word	0x0003023c

000d7a7c <HAL_USART_Available_Data_For_Write>:
DYNALIB_FN(BASE_IDX + 9, hal_usart, HAL_USART_Half_Duplex, void(HAL_USART_Serial, bool))
DYNALIB_FN(BASE_IDX + 10, hal_usart, HAL_USART_Available_Data_For_Write, int32_t(HAL_USART_Serial))
   d7a7c:	b508      	push	{r3, lr}
   d7a7e:	4b02      	ldr	r3, [pc, #8]	; (d7a88 <HAL_USART_Available_Data_For_Write+0xc>)
   d7a80:	681b      	ldr	r3, [r3, #0]
   d7a82:	6a9b      	ldr	r3, [r3, #40]	; 0x28
   d7a84:	9301      	str	r3, [sp, #4]
   d7a86:	bd08      	pop	{r3, pc}
   d7a88:	0003023c 	.word	0x0003023c

000d7a8c <HAL_USB_USART_Init>:
#endif

DYNALIB_BEGIN(hal_usb)

#ifdef USB_CDC_ENABLE
DYNALIB_FN(0, hal_usb, HAL_USB_USART_Init, void(HAL_USB_USART_Serial, const HAL_USB_USART_Config*))
   d7a8c:	b508      	push	{r3, lr}
   d7a8e:	4b02      	ldr	r3, [pc, #8]	; (d7a98 <HAL_USB_USART_Init+0xc>)
   d7a90:	681b      	ldr	r3, [r3, #0]
   d7a92:	681b      	ldr	r3, [r3, #0]
   d7a94:	9301      	str	r3, [sp, #4]
   d7a96:	bd08      	pop	{r3, pc}
   d7a98:	0003024c 	.word	0x0003024c

000d7a9c <HAL_USB_USART_Begin>:
DYNALIB_FN(1, hal_usb, HAL_USB_USART_Begin, void(HAL_USB_USART_Serial, uint32_t, void *))
   d7a9c:	b508      	push	{r3, lr}
   d7a9e:	4b02      	ldr	r3, [pc, #8]	; (d7aa8 <HAL_USB_USART_Begin+0xc>)
   d7aa0:	681b      	ldr	r3, [r3, #0]
   d7aa2:	685b      	ldr	r3, [r3, #4]
   d7aa4:	9301      	str	r3, [sp, #4]
   d7aa6:	bd08      	pop	{r3, pc}
   d7aa8:	0003024c 	.word	0x0003024c

000d7aac <HAL_USB_USART_Available_Data>:
DYNALIB_FN(2, hal_usb, HAL_USB_USART_End, void(HAL_USB_USART_Serial))
DYNALIB_FN(3, hal_usb, HAL_USB_USART_Baud_Rate, unsigned int(HAL_USB_USART_Serial))
DYNALIB_FN(4, hal_usb, HAL_USB_USART_Available_Data, int32_t(HAL_USB_USART_Serial))
   d7aac:	b508      	push	{r3, lr}
   d7aae:	4b02      	ldr	r3, [pc, #8]	; (d7ab8 <HAL_USB_USART_Available_Data+0xc>)
   d7ab0:	681b      	ldr	r3, [r3, #0]
   d7ab2:	691b      	ldr	r3, [r3, #16]
   d7ab4:	9301      	str	r3, [sp, #4]
   d7ab6:	bd08      	pop	{r3, pc}
   d7ab8:	0003024c 	.word	0x0003024c

000d7abc <HAL_USB_USART_Available_Data_For_Write>:
DYNALIB_FN(5, hal_usb, HAL_USB_USART_Available_Data_For_Write, int32_t(HAL_USB_USART_Serial))
   d7abc:	b508      	push	{r3, lr}
   d7abe:	4b02      	ldr	r3, [pc, #8]	; (d7ac8 <HAL_USB_USART_Available_Data_For_Write+0xc>)
   d7ac0:	681b      	ldr	r3, [r3, #0]
   d7ac2:	695b      	ldr	r3, [r3, #20]
   d7ac4:	9301      	str	r3, [sp, #4]
   d7ac6:	bd08      	pop	{r3, pc}
   d7ac8:	0003024c 	.word	0x0003024c

000d7acc <HAL_USB_USART_Receive_Data>:
DYNALIB_FN(6, hal_usb, HAL_USB_USART_Receive_Data, int32_t(HAL_USB_USART_Serial, uint8_t))
   d7acc:	b508      	push	{r3, lr}
   d7ace:	4b02      	ldr	r3, [pc, #8]	; (d7ad8 <HAL_USB_USART_Receive_Data+0xc>)
   d7ad0:	681b      	ldr	r3, [r3, #0]
   d7ad2:	699b      	ldr	r3, [r3, #24]
   d7ad4:	9301      	str	r3, [sp, #4]
   d7ad6:	bd08      	pop	{r3, pc}
   d7ad8:	0003024c 	.word	0x0003024c

000d7adc <HAL_USB_USART_Send_Data>:
DYNALIB_FN(7, hal_usb, HAL_USB_USART_Send_Data, int32_t(HAL_USB_USART_Serial, uint8_t))
   d7adc:	b508      	push	{r3, lr}
   d7ade:	4b02      	ldr	r3, [pc, #8]	; (d7ae8 <HAL_USB_USART_Send_Data+0xc>)
   d7ae0:	681b      	ldr	r3, [r3, #0]
   d7ae2:	69db      	ldr	r3, [r3, #28]
   d7ae4:	9301      	str	r3, [sp, #4]
   d7ae6:	bd08      	pop	{r3, pc}
   d7ae8:	0003024c 	.word	0x0003024c

000d7aec <HAL_USB_USART_Flush_Data>:
DYNALIB_FN(8, hal_usb, HAL_USB_USART_Flush_Data, void(HAL_USB_USART_Serial))
   d7aec:	b508      	push	{r3, lr}
   d7aee:	4b02      	ldr	r3, [pc, #8]	; (d7af8 <HAL_USB_USART_Flush_Data+0xc>)
   d7af0:	681b      	ldr	r3, [r3, #0]
   d7af2:	6a1b      	ldr	r3, [r3, #32]
   d7af4:	9301      	str	r3, [sp, #4]
   d7af6:	bd08      	pop	{r3, pc}
   d7af8:	0003024c 	.word	0x0003024c

000d7afc <panic_>:
DYNALIB_FN(9, services, LED_Toggle, void(Led_TypeDef))
DYNALIB_FN(10, services, LED_Fade, void(Led_TypeDef))
DYNALIB_FN(11, services, Get_LED_Brightness, uint8_t(void))

DYNALIB_FN(12, services, set_logger_output, void(debug_output_fn, LoggerOutputLevel)) // Deprecated
DYNALIB_FN(13, services, panic_, void(ePanicCode, void*, void(*)(uint32_t)))
   d7afc:	b508      	push	{r3, lr}
   d7afe:	4b02      	ldr	r3, [pc, #8]	; (d7b08 <panic_+0xc>)
   d7b00:	681b      	ldr	r3, [r3, #0]
   d7b02:	6b5b      	ldr	r3, [r3, #52]	; 0x34
   d7b04:	9301      	str	r3, [sp, #4]
   d7b06:	bd08      	pop	{r3, pc}
   d7b08:	00030260 	.word	0x00030260

000d7b0c <log_message>:
DYNALIB_FN(16, services, log_print_, void(int, int, const char*, const char*, const char*, ...)) // Deprecated
DYNALIB_FN(17, services, LED_RGB_SetChangeHandler, void(led_update_handler_fn, void*))
DYNALIB_FN(18, services, log_print_direct_, void(int, void*, const char*, ...)) // Deprecated
DYNALIB_FN(19, services, LED_GetColor, uint32_t(uint32_t, void*))

DYNALIB_FN(20, services, log_message, void(int, const char*, LogAttributes*, void*, const char*, ...))
   d7b0c:	b508      	push	{r3, lr}
   d7b0e:	4b02      	ldr	r3, [pc, #8]	; (d7b18 <log_message+0xc>)
   d7b10:	681b      	ldr	r3, [r3, #0]
   d7b12:	6d1b      	ldr	r3, [r3, #80]	; 0x50
   d7b14:	9301      	str	r3, [sp, #4]
   d7b16:	bd08      	pop	{r3, pc}
   d7b18:	00030260 	.word	0x00030260

000d7b1c <system_mode>:
#include "system_setup.h"
#endif

DYNALIB_BEGIN(system)

DYNALIB_FN(0, system, system_mode, System_Mode_TypeDef(void))
   d7b1c:	b508      	push	{r3, lr}
   d7b1e:	4b02      	ldr	r3, [pc, #8]	; (d7b28 <system_mode+0xc>)
   d7b20:	681b      	ldr	r3, [r3, #0]
   d7b22:	681b      	ldr	r3, [r3, #0]
   d7b24:	9301      	str	r3, [sp, #4]
   d7b26:	bd08      	pop	{r3, pc}
   d7b28:	00030220 	.word	0x00030220

000d7b2c <set_system_mode>:
DYNALIB_FN(1, system, set_system_mode, void(System_Mode_TypeDef))
   d7b2c:	b508      	push	{r3, lr}
   d7b2e:	4b02      	ldr	r3, [pc, #8]	; (d7b38 <set_system_mode+0xc>)
   d7b30:	681b      	ldr	r3, [r3, #0]
   d7b32:	685b      	ldr	r3, [r3, #4]
   d7b34:	9301      	str	r3, [sp, #4]
   d7b36:	bd08      	pop	{r3, pc}
   d7b38:	00030220 	.word	0x00030220

000d7b3c <system_delay_ms>:

DYNALIB_FN(2, system, set_ymodem_serial_flash_update_handler, void(ymodem_serial_flash_update_handler))
DYNALIB_FN(3, system, system_firmwareUpdate, bool(Stream*, void*))
DYNALIB_FN(4, system, system_fileTransfer, bool(system_file_transfer_t*, void*))

DYNALIB_FN(5, system, system_delay_ms, void(unsigned long, bool))
   d7b3c:	b508      	push	{r3, lr}
   d7b3e:	4b02      	ldr	r3, [pc, #8]	; (d7b48 <system_delay_ms+0xc>)
   d7b40:	681b      	ldr	r3, [r3, #0]
   d7b42:	695b      	ldr	r3, [r3, #20]
   d7b44:	9301      	str	r3, [sp, #4]
   d7b46:	bd08      	pop	{r3, pc}
   d7b48:	00030220 	.word	0x00030220

000d7b4c <system_thread_set_state>:
DYNALIB_FN(6, system, system_sleep, int(Spark_Sleep_TypeDef, long, uint32_t, void*))
DYNALIB_FN(7, system, system_sleep_pin, int(uint16_t, uint16_t, long, uint32_t, void*))
DYNALIB_FN(8, system, system_subscribe_event, int(system_event_t, system_event_handler_t*, void*))
DYNALIB_FN(9, system, system_unsubscribe_event, void(system_event_t, system_event_handler_t*, void*))
DYNALIB_FN(10, system, system_button_pushed_duration, uint16_t(uint8_t, void*))
DYNALIB_FN(11, system, system_thread_set_state, void(spark::feature::State, void*))
   d7b4c:	b508      	push	{r3, lr}
   d7b4e:	4b02      	ldr	r3, [pc, #8]	; (d7b58 <system_thread_set_state+0xc>)
   d7b50:	681b      	ldr	r3, [r3, #0]
   d7b52:	6adb      	ldr	r3, [r3, #44]	; 0x2c
   d7b54:	9301      	str	r3, [sp, #4]
   d7b56:	bd08      	pop	{r3, pc}
   d7b58:	00030220 	.word	0x00030220

000d7b5c <application_thread_current>:
DYNALIB_FN(15, system, system_get_flag, int(system_flag_t, uint8_t*, void*))
DYNALIB_FN(16, system, Spark_Prepare_For_Firmware_Update, int(FileTransfer::Descriptor&, uint32_t, void*))
DYNALIB_FN(17, system, Spark_Save_Firmware_Chunk, int(FileTransfer::Descriptor&, const uint8_t*, void*))
DYNALIB_FN(18, system, Spark_Finish_Firmware_Update, int(FileTransfer::Descriptor&, uint32_t, void*))

DYNALIB_FN(19, system, application_thread_current, uint8_t(void*))
   d7b5c:	b508      	push	{r3, lr}
   d7b5e:	4b02      	ldr	r3, [pc, #8]	; (d7b68 <application_thread_current+0xc>)
   d7b60:	681b      	ldr	r3, [r3, #0]
   d7b62:	6cdb      	ldr	r3, [r3, #76]	; 0x4c
   d7b64:	9301      	str	r3, [sp, #4]
   d7b66:	bd08      	pop	{r3, pc}
   d7b68:	00030220 	.word	0x00030220

000d7b6c <application_thread_invoke>:
DYNALIB_FN(20, system, system_thread_current, uint8_t(void*))
DYNALIB_FN(21, system, application_thread_invoke, uint8_t(void(*)(void*), void*, void*))
   d7b6c:	b508      	push	{r3, lr}
   d7b6e:	4b02      	ldr	r3, [pc, #8]	; (d7b78 <application_thread_invoke+0xc>)
   d7b70:	681b      	ldr	r3, [r3, #0]
   d7b72:	6d5b      	ldr	r3, [r3, #84]	; 0x54
   d7b74:	9301      	str	r3, [sp, #4]
   d7b76:	bd08      	pop	{r3, pc}
   d7b78:	00030220 	.word	0x00030220

000d7b7c <system_thread_get_state>:
DYNALIB_FN(22, system, system_thread_get_state, spark::feature::State(void*))
   d7b7c:	b508      	push	{r3, lr}
   d7b7e:	4b02      	ldr	r3, [pc, #8]	; (d7b88 <system_thread_get_state+0xc>)
   d7b80:	681b      	ldr	r3, [r3, #0]
   d7b82:	6d9b      	ldr	r3, [r3, #88]	; 0x58
   d7b84:	9301      	str	r3, [sp, #4]
   d7b86:	bd08      	pop	{r3, pc}
   d7b88:	00030220 	.word	0x00030220

000d7b8c <system_ctrl_set_app_request_handler>:
DYNALIB_FN(BASE_IDX + 6, system, led_pattern_period, uint16_t(int, int, void*))
DYNALIB_FN(BASE_IDX + 7, system, system_set_tester_handlers, int(system_tester_handlers_t*, void*))
DYNALIB_FN(BASE_IDX + 8, system, system_format_diag_data, int(const uint16_t*, size_t, unsigned, appender_fn, void*, void*))

// Control requests
DYNALIB_FN(BASE_IDX + 9, system, system_ctrl_set_app_request_handler, int(ctrl_request_handler_fn, void*))
   d7b8c:	b508      	push	{r3, lr}
   d7b8e:	4b03      	ldr	r3, [pc, #12]	; (d7b9c <system_ctrl_set_app_request_handler+0x10>)
   d7b90:	681b      	ldr	r3, [r3, #0]
   d7b92:	f8d3 3088 	ldr.w	r3, [r3, #136]	; 0x88
   d7b96:	9301      	str	r3, [sp, #4]
   d7b98:	bd08      	pop	{r3, pc}
   d7b9a:	0000      	.short	0x0000
   d7b9c:	00030220 	.word	0x00030220

000d7ba0 <system_ctrl_set_result>:
DYNALIB_FN(BASE_IDX + 10, system, system_ctrl_alloc_reply_data, int(ctrl_request*, size_t, void*))
DYNALIB_FN(BASE_IDX + 11, system, system_ctrl_free_request_data, void(ctrl_request*, void*))
DYNALIB_FN(BASE_IDX + 12, system, system_ctrl_set_result, void(ctrl_request*, int, ctrl_completion_handler_fn, void*, void*))
   d7ba0:	b508      	push	{r3, lr}
   d7ba2:	4b03      	ldr	r3, [pc, #12]	; (d7bb0 <system_ctrl_set_result+0x10>)
   d7ba4:	681b      	ldr	r3, [r3, #0]
   d7ba6:	f8d3 3094 	ldr.w	r3, [r3, #148]	; 0x94
   d7baa:	9301      	str	r3, [sp, #4]
   d7bac:	bd08      	pop	{r3, pc}
   d7bae:	0000      	.short	0x0000
   d7bb0:	00030220 	.word	0x00030220

000d7bb4 <spark_process>:

DYNALIB_BEGIN(system_cloud)

DYNALIB_FN(0, system_cloud, spark_variable, bool(const char*, const void*, Spark_Data_TypeDef, spark_variable_t*))
DYNALIB_FN(1, system_cloud, spark_function, bool(const char*, p_user_function_int_str_t, void*))
DYNALIB_FN(2, system_cloud, spark_process, void(void))
   d7bb4:	b508      	push	{r3, lr}
   d7bb6:	4b02      	ldr	r3, [pc, #8]	; (d7bc0 <spark_process+0xc>)
   d7bb8:	681b      	ldr	r3, [r3, #0]
   d7bba:	689b      	ldr	r3, [r3, #8]
   d7bbc:	9301      	str	r3, [sp, #4]
   d7bbe:	bd08      	pop	{r3, pc}
   d7bc0:	00030244 	.word	0x00030244

000d7bc4 <spark_cloud_flag_connected>:
DYNALIB_FN(3, system_cloud, spark_cloud_flag_connect, void(void))
DYNALIB_FN(4, system_cloud, spark_cloud_flag_disconnect, void(void))
DYNALIB_FN(5, system_cloud, spark_cloud_flag_connected, bool(void))
   d7bc4:	b508      	push	{r3, lr}
   d7bc6:	4b02      	ldr	r3, [pc, #8]	; (d7bd0 <spark_cloud_flag_connected+0xc>)
   d7bc8:	681b      	ldr	r3, [r3, #0]
   d7bca:	695b      	ldr	r3, [r3, #20]
   d7bcc:	9301      	str	r3, [sp, #4]
   d7bce:	bd08      	pop	{r3, pc}
   d7bd0:	00030244 	.word	0x00030244

000d7bd4 <spark_send_event>:
DYNALIB_FN(6, system_cloud, system_cloud_protocol_instance, ProtocolFacade*(void))
DYNALIB_FN(7, system_cloud, spark_deviceID, String(void))
DYNALIB_FN(8, system_cloud, spark_send_event, bool(const char*, const char*, int, uint32_t, void*))
   d7bd4:	b508      	push	{r3, lr}
   d7bd6:	4b02      	ldr	r3, [pc, #8]	; (d7be0 <spark_send_event+0xc>)
   d7bd8:	681b      	ldr	r3, [r3, #0]
   d7bda:	6a1b      	ldr	r3, [r3, #32]
   d7bdc:	9301      	str	r3, [sp, #4]
   d7bde:	bd08      	pop	{r3, pc}
   d7be0:	00030244 	.word	0x00030244

000d7be4 <spark_subscribe>:
DYNALIB_FN(9, system_cloud, spark_subscribe, bool(const char*, EventHandler, void*, Spark_Subscription_Scope_TypeDef, const char*, void*))
   d7be4:	b508      	push	{r3, lr}
   d7be6:	4b02      	ldr	r3, [pc, #8]	; (d7bf0 <spark_subscribe+0xc>)
   d7be8:	681b      	ldr	r3, [r3, #0]
   d7bea:	6a5b      	ldr	r3, [r3, #36]	; 0x24
   d7bec:	9301      	str	r3, [sp, #4]
   d7bee:	bd08      	pop	{r3, pc}
   d7bf0:	00030244 	.word	0x00030244

000d7bf4 <spark_sync_time_pending>:
DYNALIB_FN(10, system_cloud, spark_unsubscribe, void(void*))
DYNALIB_FN(11, system_cloud, spark_sync_time, bool(void*))
DYNALIB_FN(12, system_cloud, spark_sync_time_pending, bool(void*))
   d7bf4:	b508      	push	{r3, lr}
   d7bf6:	4b02      	ldr	r3, [pc, #8]	; (d7c00 <spark_sync_time_pending+0xc>)
   d7bf8:	681b      	ldr	r3, [r3, #0]
   d7bfa:	6b1b      	ldr	r3, [r3, #48]	; 0x30
   d7bfc:	9301      	str	r3, [sp, #4]
   d7bfe:	bd08      	pop	{r3, pc}
   d7c00:	00030244 	.word	0x00030244

000d7c04 <spark_set_random_seed_from_cloud_handler>:
DYNALIB_FN(13, system_cloud, spark_sync_time_last, system_tick_t(time_t*, void*))
DYNALIB_FN(14, system_cloud, spark_set_connection_property, int(unsigned, unsigned, particle::protocol::connection_properties_t*, void*))
DYNALIB_FN(15, system_cloud, spark_set_random_seed_from_cloud_handler, int(void (*handler)(unsigned int), void*))
   d7c04:	b508      	push	{r3, lr}
   d7c06:	4b02      	ldr	r3, [pc, #8]	; (d7c10 <spark_set_random_seed_from_cloud_handler+0xc>)
   d7c08:	681b      	ldr	r3, [r3, #0]
   d7c0a:	6bdb      	ldr	r3, [r3, #60]	; 0x3c
   d7c0c:	9301      	str	r3, [sp, #4]
   d7c0e:	bd08      	pop	{r3, pc}
   d7c10:	00030244 	.word	0x00030244

000d7c14 <network_connect>:
#endif

DYNALIB_BEGIN(system_net)

DYNALIB_FN(0, system_net, network_config, const void*(network_handle_t, uint32_t, void*))
DYNALIB_FN(1, system_net, network_connect, void(network_handle_t, uint32_t, uint32_t, void*))
   d7c14:	b508      	push	{r3, lr}
   d7c16:	4b02      	ldr	r3, [pc, #8]	; (d7c20 <network_connect+0xc>)
   d7c18:	681b      	ldr	r3, [r3, #0]
   d7c1a:	685b      	ldr	r3, [r3, #4]
   d7c1c:	9301      	str	r3, [sp, #4]
   d7c1e:	bd08      	pop	{r3, pc}
   d7c20:	00030240 	.word	0x00030240

000d7c24 <network_connecting>:
DYNALIB_FN(2, system_net, network_connecting, bool(network_handle_t, uint32_t, void*))
   d7c24:	b508      	push	{r3, lr}
   d7c26:	4b02      	ldr	r3, [pc, #8]	; (d7c30 <network_connecting+0xc>)
   d7c28:	681b      	ldr	r3, [r3, #0]
   d7c2a:	689b      	ldr	r3, [r3, #8]
   d7c2c:	9301      	str	r3, [sp, #4]
   d7c2e:	bd08      	pop	{r3, pc}
   d7c30:	00030240 	.word	0x00030240

000d7c34 <network_disconnect>:
DYNALIB_FN(3, system_net, network_disconnect, void(network_handle_t, uint32_t, void*))
   d7c34:	b508      	push	{r3, lr}
   d7c36:	4b02      	ldr	r3, [pc, #8]	; (d7c40 <network_disconnect+0xc>)
   d7c38:	681b      	ldr	r3, [r3, #0]
   d7c3a:	68db      	ldr	r3, [r3, #12]
   d7c3c:	9301      	str	r3, [sp, #4]
   d7c3e:	bd08      	pop	{r3, pc}
   d7c40:	00030240 	.word	0x00030240

000d7c44 <network_ready>:
DYNALIB_FN(4, system_net, network_ready, bool(network_handle_t, uint32_t, void*))
   d7c44:	b508      	push	{r3, lr}
   d7c46:	4b02      	ldr	r3, [pc, #8]	; (d7c50 <network_ready+0xc>)
   d7c48:	681b      	ldr	r3, [r3, #0]
   d7c4a:	691b      	ldr	r3, [r3, #16]
   d7c4c:	9301      	str	r3, [sp, #4]
   d7c4e:	bd08      	pop	{r3, pc}
   d7c50:	00030240 	.word	0x00030240

000d7c54 <network_on>:
DYNALIB_FN(5, system_net, network_on, void(network_handle_t, uint32_t, uint32_t, void*))
   d7c54:	b508      	push	{r3, lr}
   d7c56:	4b02      	ldr	r3, [pc, #8]	; (d7c60 <network_on+0xc>)
   d7c58:	681b      	ldr	r3, [r3, #0]
   d7c5a:	695b      	ldr	r3, [r3, #20]
   d7c5c:	9301      	str	r3, [sp, #4]
   d7c5e:	bd08      	pop	{r3, pc}
   d7c60:	00030240 	.word	0x00030240

000d7c64 <network_off>:
DYNALIB_FN(6, system_net, network_off, void(network_handle_t, uint32_t, uint32_t, void*))
   d7c64:	b508      	push	{r3, lr}
   d7c66:	4b02      	ldr	r3, [pc, #8]	; (d7c70 <network_off+0xc>)
   d7c68:	681b      	ldr	r3, [r3, #0]
   d7c6a:	699b      	ldr	r3, [r3, #24]
   d7c6c:	9301      	str	r3, [sp, #4]
   d7c6e:	bd08      	pop	{r3, pc}
   d7c70:	00030240 	.word	0x00030240

000d7c74 <network_listen>:
DYNALIB_FN(7, system_net, network_listen, void(network_handle_t, uint32_t, void*))
   d7c74:	b508      	push	{r3, lr}
   d7c76:	4b02      	ldr	r3, [pc, #8]	; (d7c80 <network_listen+0xc>)
   d7c78:	681b      	ldr	r3, [r3, #0]
   d7c7a:	69db      	ldr	r3, [r3, #28]
   d7c7c:	9301      	str	r3, [sp, #4]
   d7c7e:	bd08      	pop	{r3, pc}
   d7c80:	00030240 	.word	0x00030240

000d7c84 <network_listening>:
DYNALIB_FN(8, system_net, network_listening, bool(network_handle_t, uint32_t, void*))
   d7c84:	b508      	push	{r3, lr}
   d7c86:	4b02      	ldr	r3, [pc, #8]	; (d7c90 <network_listening+0xc>)
   d7c88:	681b      	ldr	r3, [r3, #0]
   d7c8a:	6a1b      	ldr	r3, [r3, #32]
   d7c8c:	9301      	str	r3, [sp, #4]
   d7c8e:	bd08      	pop	{r3, pc}
   d7c90:	00030240 	.word	0x00030240

000d7c94 <network_set_listen_timeout>:
DYNALIB_FN(9, system_net, network_has_credentials, bool(network_handle_t, uint32_t, void*))
DYNALIB_FN(10, system_net, network_set_credentials, int(network_handle_t, uint32_t, NetworkCredentials*, void*))
DYNALIB_FN(11, system_net, network_clear_credentials, bool(network_handle_t, uint32_t, NetworkCredentials*, void*))
DYNALIB_FN(12, system_net, network_set_listen_timeout, void(network_handle_t, uint16_t, void*))
   d7c94:	b508      	push	{r3, lr}
   d7c96:	4b02      	ldr	r3, [pc, #8]	; (d7ca0 <network_set_listen_timeout+0xc>)
   d7c98:	681b      	ldr	r3, [r3, #0]
   d7c9a:	6b1b      	ldr	r3, [r3, #48]	; 0x30
   d7c9c:	9301      	str	r3, [sp, #4]
   d7c9e:	bd08      	pop	{r3, pc}
   d7ca0:	00030240 	.word	0x00030240

000d7ca4 <network_get_listen_timeout>:
DYNALIB_FN(13, system_net, network_get_listen_timeout, uint16_t(network_handle_t, uint32_t, void*))
   d7ca4:	b508      	push	{r3, lr}
   d7ca6:	4b02      	ldr	r3, [pc, #8]	; (d7cb0 <network_get_listen_timeout+0xc>)
   d7ca8:	681b      	ldr	r3, [r3, #0]
   d7caa:	6b5b      	ldr	r3, [r3, #52]	; 0x34
   d7cac:	9301      	str	r3, [sp, #4]
   d7cae:	bd08      	pop	{r3, pc}
   d7cb0:	00030240 	.word	0x00030240

000d7cb4 <malloc>:
#include <assert.h>
#endif

DYNALIB_BEGIN(rt)

DYNALIB_FN(0, rt, malloc, void*(size_t))
   d7cb4:	b508      	push	{r3, lr}
   d7cb6:	4b02      	ldr	r3, [pc, #8]	; (d7cc0 <malloc+0xc>)
   d7cb8:	681b      	ldr	r3, [r3, #0]
   d7cba:	681b      	ldr	r3, [r3, #0]
   d7cbc:	9301      	str	r3, [sp, #4]
   d7cbe:	bd08      	pop	{r3, pc}
   d7cc0:	0003021c 	.word	0x0003021c

000d7cc4 <free>:
DYNALIB_FN(1, rt, free, void(void*))
   d7cc4:	b508      	push	{r3, lr}
   d7cc6:	4b02      	ldr	r3, [pc, #8]	; (d7cd0 <free+0xc>)
   d7cc8:	681b      	ldr	r3, [r3, #0]
   d7cca:	685b      	ldr	r3, [r3, #4]
   d7ccc:	9301      	str	r3, [sp, #4]
   d7cce:	bd08      	pop	{r3, pc}
   d7cd0:	0003021c 	.word	0x0003021c

000d7cd4 <realloc>:
DYNALIB_FN(2, rt, realloc, void*(void*, size_t))
   d7cd4:	b508      	push	{r3, lr}
   d7cd6:	4b02      	ldr	r3, [pc, #8]	; (d7ce0 <realloc+0xc>)
   d7cd8:	681b      	ldr	r3, [r3, #0]
   d7cda:	689b      	ldr	r3, [r3, #8]
   d7cdc:	9301      	str	r3, [sp, #4]
   d7cde:	bd08      	pop	{r3, pc}
   d7ce0:	0003021c 	.word	0x0003021c

000d7ce4 <sprintf>:
DYNALIB_FN(3, rt, sprintf, int(char*, const char*, ...))
   d7ce4:	b508      	push	{r3, lr}
   d7ce6:	4b02      	ldr	r3, [pc, #8]	; (d7cf0 <sprintf+0xc>)
   d7ce8:	681b      	ldr	r3, [r3, #0]
   d7cea:	68db      	ldr	r3, [r3, #12]
   d7cec:	9301      	str	r3, [sp, #4]
   d7cee:	bd08      	pop	{r3, pc}
   d7cf0:	0003021c 	.word	0x0003021c

000d7cf4 <sscanf>:
DYNALIB_FN(4, rt, siprintf, int(char*, const char*, ...))
DYNALIB_FN(5, rt, sscanf, int(const char*, const char*, ...))
   d7cf4:	b508      	push	{r3, lr}
   d7cf6:	4b02      	ldr	r3, [pc, #8]	; (d7d00 <sscanf+0xc>)
   d7cf8:	681b      	ldr	r3, [r3, #0]
   d7cfa:	695b      	ldr	r3, [r3, #20]
   d7cfc:	9301      	str	r3, [sp, #4]
   d7cfe:	bd08      	pop	{r3, pc}
   d7d00:	0003021c 	.word	0x0003021c

000d7d04 <siscanf>:
DYNALIB_FN(6, rt, siscanf, int(const char*, const char*, ...))
   d7d04:	b508      	push	{r3, lr}
   d7d06:	4b02      	ldr	r3, [pc, #8]	; (d7d10 <siscanf+0xc>)
   d7d08:	681b      	ldr	r3, [r3, #0]
   d7d0a:	699b      	ldr	r3, [r3, #24]
   d7d0c:	9301      	str	r3, [sp, #4]
   d7d0e:	bd08      	pop	{r3, pc}
   d7d10:	0003021c 	.word	0x0003021c

000d7d14 <snprintf>:
DYNALIB_FN(7, rt, snprintf, int(char*, size_t, const char*, ...))
   d7d14:	b508      	push	{r3, lr}
   d7d16:	4b02      	ldr	r3, [pc, #8]	; (d7d20 <snprintf+0xc>)
   d7d18:	681b      	ldr	r3, [r3, #0]
   d7d1a:	69db      	ldr	r3, [r3, #28]
   d7d1c:	9301      	str	r3, [sp, #4]
   d7d1e:	bd08      	pop	{r3, pc}
   d7d20:	0003021c 	.word	0x0003021c

000d7d24 <vsnprintf>:
DYNALIB_FN(8, rt, sniprintf, int(char*, size_t, const char*, ...))
DYNALIB_FN(9, rt, vsnprintf, int(char*, size_t, const char*, va_list))
   d7d24:	b508      	push	{r3, lr}
   d7d26:	4b02      	ldr	r3, [pc, #8]	; (d7d30 <vsnprintf+0xc>)
   d7d28:	681b      	ldr	r3, [r3, #0]
   d7d2a:	6a5b      	ldr	r3, [r3, #36]	; 0x24
   d7d2c:	9301      	str	r3, [sp, #4]
   d7d2e:	bd08      	pop	{r3, pc}
   d7d30:	0003021c 	.word	0x0003021c

000d7d34 <abort>:
DYNALIB_FN(10, rt, vsniprintf, int(char*, size_t, const char*, va_list))
DYNALIB_FN(11, rt, abort, void(void))
   d7d34:	b508      	push	{r3, lr}
   d7d36:	4b02      	ldr	r3, [pc, #8]	; (d7d40 <abort+0xc>)
   d7d38:	681b      	ldr	r3, [r3, #0]
   d7d3a:	6adb      	ldr	r3, [r3, #44]	; 0x2c
   d7d3c:	9301      	str	r3, [sp, #4]
   d7d3e:	bd08      	pop	{r3, pc}
   d7d40:	0003021c 	.word	0x0003021c

000d7d44 <_malloc_r>:
DYNALIB_FN(12, rt, _malloc_r, void*(struct _reent*, size_t))
   d7d44:	b508      	push	{r3, lr}
   d7d46:	4b02      	ldr	r3, [pc, #8]	; (d7d50 <_malloc_r+0xc>)
   d7d48:	681b      	ldr	r3, [r3, #0]
   d7d4a:	6b1b      	ldr	r3, [r3, #48]	; 0x30
   d7d4c:	9301      	str	r3, [sp, #4]
   d7d4e:	bd08      	pop	{r3, pc}
   d7d50:	0003021c 	.word	0x0003021c

000d7d54 <__errno>:
DYNALIB_FN(13, rt, _free_r, void(struct _reent*, void*))
DYNALIB_FN(14, rt, _realloc_r, void*(struct _reent*, void*, size_t))
DYNALIB_FN(15, rt, __errno, int*())
   d7d54:	b508      	push	{r3, lr}
   d7d56:	4b02      	ldr	r3, [pc, #8]	; (d7d60 <__errno+0xc>)
   d7d58:	681b      	ldr	r3, [r3, #0]
   d7d5a:	6bdb      	ldr	r3, [r3, #60]	; 0x3c
   d7d5c:	9301      	str	r3, [sp, #4]
   d7d5e:	bd08      	pop	{r3, pc}
   d7d60:	0003021c 	.word	0x0003021c

000d7d64 <delay>:
    return (value - fromStart) * (toEnd - toStart) / (fromEnd - fromStart) + toStart;
}

void delay(unsigned long ms)
{
    system_delay_ms(ms, false);
   d7d64:	2100      	movs	r1, #0
   d7d66:	f7ff bee9 	b.w	d7b3c <system_delay_ms>

000d7d6a <_ZN8particle6detail21futureCallbackWrapperEPv>:
 * License along with this library; if not, see <http://www.gnu.org/licenses/>.
 */

#include "spark_wiring_async.h"

void particle::detail::futureCallbackWrapper(void* data) {
   d7d6a:	b510      	push	{r4, lr}
  template<typename _Res, typename... _ArgTypes>
    _Res
    function<_Res(_ArgTypes...)>::
    operator()(_ArgTypes... __args) const
    {
      if (_M_empty())
   d7d6c:	6883      	ldr	r3, [r0, #8]
   d7d6e:	4604      	mov	r4, r0
   d7d70:	b90b      	cbnz	r3, d7d76 <_ZN8particle6detail21futureCallbackWrapperEPv+0xc>
	__throw_bad_function_call();
   d7d72:	f001 fd9e 	bl	d98b2 <_ZSt25__throw_bad_function_callv>
      return _M_invoker(_M_functor, std::forward<_ArgTypes>(__args)...);
   d7d76:	68c3      	ldr	r3, [r0, #12]
   d7d78:	4798      	blx	r3

    _Function_base() : _M_manager(nullptr) { }

    ~_Function_base()
    {
      if (_M_manager)
   d7d7a:	68a3      	ldr	r3, [r4, #8]
   d7d7c:	b11b      	cbz	r3, d7d86 <_ZN8particle6detail21futureCallbackWrapperEPv+0x1c>
	_M_manager(_M_functor, _M_functor, __destroy_functor);
   d7d7e:	2203      	movs	r2, #3
   d7d80:	4621      	mov	r1, r4
   d7d82:	4620      	mov	r0, r4
   d7d84:	4798      	blx	r3
    auto callbackPtr = static_cast<const std::function<void()>*>(data);
    (*callbackPtr)();
    delete callbackPtr;
   d7d86:	4620      	mov	r0, r4
   d7d88:	2110      	movs	r1, #16
}
   d7d8a:	e8bd 4010 	ldmia.w	sp!, {r4, lr}
#include "spark_wiring_async.h"

void particle::detail::futureCallbackWrapper(void* data) {
    auto callbackPtr = static_cast<const std::function<void()>*>(data);
    (*callbackPtr)();
    delete callbackPtr;
   d7d8e:	f001 bd76 	b.w	d987e <_ZdlPvj>

000d7d92 <_ZNSt14__shared_countILN9__gnu_cxx12_Lock_policyE0EEC1ERKS2_>:
	if (_M_pi != nullptr)
	  _M_pi->_M_release();
      }

      __shared_count(const __shared_count& __r) noexcept
      : _M_pi(__r._M_pi)
   d7d92:	680b      	ldr	r3, [r1, #0]
   d7d94:	6003      	str	r3, [r0, #0]
      {
	if (_M_pi != 0)
   d7d96:	b113      	cbz	r3, d7d9e <_ZNSt14__shared_countILN9__gnu_cxx12_Lock_policyE0EEC1ERKS2_+0xc>
    }

  template<>
    inline void
    _Sp_counted_base<_S_single>::_M_add_ref_copy()
    { ++_M_use_count; }
   d7d98:	685a      	ldr	r2, [r3, #4]
   d7d9a:	3201      	adds	r2, #1
   d7d9c:	605a      	str	r2, [r3, #4]
      __shared_count(const __shared_count& __r) noexcept
      : _M_pi(__r._M_pi)
      {
	if (_M_pi != 0)
	  _M_pi->_M_add_ref_copy();
      }
   d7d9e:	4770      	bx	lr

000d7da0 <_GLOBAL__sub_I__ZN8particle3ble13WiringBleLock6mutex_E>:
    /**
     * Creates a shared mutex.
     */
    RecursiveMutex(os_mutex_recursive_t handle) : handle_(handle) {}

    RecursiveMutex() : handle_(nullptr)
   d7da0:	4802      	ldr	r0, [pc, #8]	; (d7dac <_GLOBAL__sub_I__ZN8particle3ble13WiringBleLock6mutex_E+0xc>)
   d7da2:	2300      	movs	r3, #0
   d7da4:	6003      	str	r3, [r0, #0]
    {
        os_mutex_recursive_create(&handle_);
   d7da6:	f7ff bcd9 	b.w	d775c <os_mutex_recursive_create>
   d7daa:	bf00      	nop
   d7dac:	2003e370 	.word	0x2003e370

000d7db0 <_ZNSt15_Sp_counted_ptrIPN8particle6detail10FutureImplIbNS1_13FutureContextEEELN9__gnu_cxx12_Lock_policyE0EED1Ev>:
    class __shared_count;


  // Counted ptr with no deleter or allocator support
  template<typename _Ptr, _Lock_policy _Lp>
    class _Sp_counted_ptr final : public _Sp_counted_base<_Lp>
   d7db0:	4770      	bx	lr

000d7db2 <_ZNSt15_Sp_counted_ptrIPN8particle6detail10FutureImplIbNS1_13FutureContextEEELN9__gnu_cxx12_Lock_policyE0EE14_M_get_deleterERKSt9type_info>:
      _M_destroy() noexcept
      { delete this; }

      virtual void*
      _M_get_deleter(const std::type_info&) noexcept
      { return nullptr; }
   d7db2:	2000      	movs	r0, #0
   d7db4:	4770      	bx	lr

000d7db6 <_ZNSt15_Sp_counted_ptrIPN8particle6detail10FutureImplIbNS1_13FutureContextEEELN9__gnu_cxx12_Lock_policyE0EED0Ev>:
    class __shared_count;


  // Counted ptr with no deleter or allocator support
  template<typename _Ptr, _Lock_policy _Lp>
    class _Sp_counted_ptr final : public _Sp_counted_base<_Lp>
   d7db6:	b510      	push	{r4, lr}
   d7db8:	2110      	movs	r1, #16
   d7dba:	4604      	mov	r4, r0
   d7dbc:	f001 fd5f 	bl	d987e <_ZdlPvj>
   d7dc0:	4620      	mov	r0, r4
   d7dc2:	bd10      	pop	{r4, pc}

000d7dc4 <_ZNSt15_Sp_counted_ptrIPN8particle6detail10FutureImplIbNS1_13FutureContextEEELN9__gnu_cxx12_Lock_policyE0EE10_M_destroyEv>:
      virtual void
      _M_dispose() noexcept
      { delete _M_ptr; }

      virtual void
      _M_destroy() noexcept
   d7dc4:	b508      	push	{r3, lr}
      { delete this; }
   d7dc6:	b108      	cbz	r0, d7dcc <_ZNSt15_Sp_counted_ptrIPN8particle6detail10FutureImplIbNS1_13FutureContextEEELN9__gnu_cxx12_Lock_policyE0EE10_M_destroyEv+0x8>
   d7dc8:	f7ff fff5 	bl	d7db6 <_ZNSt15_Sp_counted_ptrIPN8particle6detail10FutureImplIbNS1_13FutureContextEEELN9__gnu_cxx12_Lock_policyE0EED0Ev>
   d7dcc:	bd08      	pop	{r3, pc}

000d7dce <_ZNSt15_Sp_counted_ptrIPN8particle6detail10FutureImplIbNS1_13FutureContextEEELN9__gnu_cxx12_Lock_policyE0EE10_M_disposeEv>:
      explicit
      _Sp_counted_ptr(_Ptr __p) noexcept
      : _M_ptr(__p) { }

      virtual void
      _M_dispose() noexcept
   d7dce:	b538      	push	{r3, r4, r5, lr}
      { delete _M_ptr; }
   d7dd0:	68c4      	ldr	r4, [r0, #12]
   d7dd2:	b1ec      	cbz	r4, d7e10 <_ZNSt15_Sp_counted_ptrIPN8particle6detail10FutureImplIbNS1_13FutureContextEEELN9__gnu_cxx12_Lock_policyE0EE10_M_disposeEv+0x42>

      _Tp
      load(memory_order __m = memory_order_seq_cst) const noexcept
      { 
        _Tp tmp;
	__atomic_load(&_M_i, &tmp, __m);
   d7dd4:	7823      	ldrb	r3, [r4, #0]
    ~FutureImpl() {
        // Call destructor of the appropriate unnamed enum's field
        const State s = this->state();
        if (s == State::SUCCEEDED) {
            result_.~ResultT();
        } else if (s == State::FAILED) {
   d7dd6:	2b02      	cmp	r3, #2
   d7dd8:	d102      	bne.n	d7de0 <_ZNSt15_Sp_counted_ptrIPN8particle6detail10FutureImplIbNS1_13FutureContextEEELN9__gnu_cxx12_Lock_policyE0EE10_M_disposeEv+0x12>
        Error() {
    swap(*this, error);
}

inline particle::Error::~Error() {
    free((void*)msg_);
   d7dda:	68e0      	ldr	r0, [r4, #12]
   d7ddc:	f7ff ff72 	bl	d7cc4 <free>
      {
        memory_order __b = __m & __memory_order_mask;
	__glibcxx_assert(__b != memory_order_release);
	__glibcxx_assert(__b != memory_order_acq_rel);

	return __atomic_load_n(&_M_p, __m);
   d7de0:	6865      	ldr	r5, [r4, #4]
    // Completion callback types
    typedef typename detail::FutureCallbackTypes<ResultT>::OnSuccess OnSuccessCallback;
    typedef typename detail::FutureCallbackTypes<ResultT>::OnError OnErrorCallback;

    ~FutureImplBase() {
        delete onSuccess_.load(std::memory_order_relaxed);
   d7de2:	b135      	cbz	r5, d7df2 <_ZNSt15_Sp_counted_ptrIPN8particle6detail10FutureImplIbNS1_13FutureContextEEELN9__gnu_cxx12_Lock_policyE0EE10_M_disposeEv+0x24>
   *  @ingroup functors
   *
   *  Polymorphic function wrapper.
   */
  template<typename _Res, typename... _ArgTypes>
    class function<_Res(_ArgTypes...)>
   d7de4:	4628      	mov	r0, r5
   d7de6:	f7fc f9d8 	bl	d419a <_ZNSt14_Function_baseD1Ev>
   d7dea:	2110      	movs	r1, #16
   d7dec:	4628      	mov	r0, r5
   d7dee:	f001 fd46 	bl	d987e <_ZdlPvj>
   d7df2:	68a5      	ldr	r5, [r4, #8]
        delete onError_.load(std::memory_order_relaxed);
   d7df4:	b135      	cbz	r5, d7e04 <_ZNSt15_Sp_counted_ptrIPN8particle6detail10FutureImplIbNS1_13FutureContextEEELN9__gnu_cxx12_Lock_policyE0EE10_M_disposeEv+0x36>
   d7df6:	4628      	mov	r0, r5
   d7df8:	f7fc f9cf 	bl	d419a <_ZNSt14_Function_baseD1Ev>
   d7dfc:	2110      	movs	r1, #16
   d7dfe:	4628      	mov	r0, r5
   d7e00:	f001 fd3d 	bl	d987e <_ZdlPvj>
   d7e04:	4620      	mov	r0, r4
   d7e06:	2114      	movs	r1, #20
   d7e08:	e8bd 4038 	ldmia.w	sp!, {r3, r4, r5, lr}
   d7e0c:	f001 bd37 	b.w	d987e <_ZdlPvj>
   d7e10:	bd38      	pop	{r3, r4, r5, pc}

000d7e12 <_ZN8particle6FutureIbNS_6detail13FutureContextEEC1ESt10shared_ptrINS1_10FutureImplIbS2_EEE>:
};

template<typename ResultT, typename ContextT = detail::FutureContext>
class Future: public FutureBase<ResultT, ContextT> {
public:
    using FutureBase<ResultT, ContextT>::FutureBase;
   d7e12:	b513      	push	{r0, r1, r4, lr}
   d7e14:	4604      	mov	r4, r0
      }

      void
      _M_swap(__shared_count& __r) noexcept
      {
	_Sp_counted_base<_Lp>* __tmp = __r._M_pi;
   d7e16:	e891 0005 	ldmia.w	r1, {r0, r2}
	__r._M_pi = _M_pi;
   d7e1a:	2300      	movs	r3, #0
   d7e1c:	604b      	str	r3, [r1, #4]

      __shared_ptr(__shared_ptr&& __r) noexcept
      : _M_ptr(__r._M_ptr), _M_refcount()
      {
	_M_refcount._M_swap(__r._M_refcount);
	__r._M_ptr = 0;
   d7e1e:	600b      	str	r3, [r1, #0]
	__shared_ptr(const __shared_ptr<_Tp1, _Lp>& __r) noexcept
	: _M_ptr(__r._M_ptr), _M_refcount(__r._M_refcount)
	{ }

      __shared_ptr(__shared_ptr&& __r) noexcept
      : _M_ptr(__r._M_ptr), _M_refcount()
   d7e20:	6020      	str	r0, [r4, #0]
      void
      _M_swap(__shared_count& __r) noexcept
      {
	_Sp_counted_base<_Lp>* __tmp = __r._M_pi;
	__r._M_pi = _M_pi;
	_M_pi = __tmp;
   d7e22:	6062      	str	r2, [r4, #4]
	: _M_ptr(__p), _M_refcount(__r._M_refcount) // never throws
	{ }

      __shared_ptr(const __shared_ptr&) noexcept = default;
      __shared_ptr& operator=(const __shared_ptr&) noexcept = default;
      ~__shared_ptr() = default;
   d7e24:	a801      	add	r0, sp, #4

      void
      _M_swap(__shared_count& __r) noexcept
      {
	_Sp_counted_base<_Lp>* __tmp = __r._M_pi;
	__r._M_pi = _M_pi;
   d7e26:	9301      	str	r3, [sp, #4]

      __shared_ptr(__shared_ptr&& __r) noexcept
      : _M_ptr(__r._M_ptr), _M_refcount()
      {
	_M_refcount._M_swap(__r._M_refcount);
	__r._M_ptr = 0;
   d7e28:	9300      	str	r3, [sp, #0]
	: _M_ptr(__p), _M_refcount(__r._M_refcount) // never throws
	{ }

      __shared_ptr(const __shared_ptr&) noexcept = default;
      __shared_ptr& operator=(const __shared_ptr&) noexcept = default;
      ~__shared_ptr() = default;
   d7e2a:	f7fc fd8f 	bl	d494c <_ZNSt14__shared_countILN9__gnu_cxx12_Lock_policyE0EED1Ev>
   d7e2e:	4620      	mov	r0, r4
   d7e30:	b002      	add	sp, #8
   d7e32:	bd10      	pop	{r4, pc}

000d7e34 <_ZN8particle11PromiseBaseIbNS_6detail13FutureContextEE11fromDataPtrEPv>:
        // TODO: Use custom reference counting object to avoid unnecessary memory allocation
        return new detail::FutureImplPtr<ResultT, ContextT>(p_);
    }

    // Unwraps promise from an object pointer created via dataPtr() method
    static Promise<ResultT, ContextT> fromDataPtr(void* data) {
   d7e34:	b5f7      	push	{r0, r1, r2, r4, r5, r6, r7, lr}
      template<typename _Tp1>
	__shared_ptr(const __shared_ptr<_Tp1, _Lp>& __r, _Tp* __p) noexcept
	: _M_ptr(__p), _M_refcount(__r._M_refcount) // never throws
	{ }

      __shared_ptr(const __shared_ptr&) noexcept = default;
   d7e36:	460c      	mov	r4, r1
   d7e38:	ad02      	add	r5, sp, #8
   d7e3a:	f854 3b04 	ldr.w	r3, [r4], #4
   d7e3e:	f845 3d08 	str.w	r3, [r5, #-8]!
   d7e42:	4606      	mov	r6, r0
   d7e44:	460f      	mov	r7, r1
   d7e46:	a801      	add	r0, sp, #4
   d7e48:	4621      	mov	r1, r4
   d7e4a:	f7ff ffa2 	bl	d7d92 <_ZNSt14__shared_countILN9__gnu_cxx12_Lock_policyE0EEC1ERKS2_>
        auto d = static_cast<detail::FutureImplPtr<ResultT, ContextT>*>(data);
        const Promise<ResultT, ContextT> p(*d);
   d7e4e:	4629      	mov	r1, r5
   d7e50:	4630      	mov	r0, r6
   d7e52:	f7ff ffde 	bl	d7e12 <_ZN8particle6FutureIbNS_6detail13FutureContextEEC1ESt10shared_ptrINS1_10FutureImplIbS2_EEE>
      __shared_ptr& operator=(const __shared_ptr&) noexcept = default;
      ~__shared_ptr() = default;
   d7e56:	a801      	add	r0, sp, #4
   d7e58:	f7fc fd78 	bl	d494c <_ZNSt14__shared_countILN9__gnu_cxx12_Lock_policyE0EED1Ev>
   d7e5c:	4620      	mov	r0, r4
   d7e5e:	f7fc fd75 	bl	d494c <_ZNSt14__shared_countILN9__gnu_cxx12_Lock_policyE0EED1Ev>
        delete d;
   d7e62:	4638      	mov	r0, r7
   d7e64:	2108      	movs	r1, #8
   d7e66:	f001 fd0a 	bl	d987e <_ZdlPvj>
        return p;
    }
   d7e6a:	4630      	mov	r0, r6
   d7e6c:	b003      	add	sp, #12
   d7e6e:	bdf0      	pop	{r4, r5, r6, r7, pc}

000d7e70 <_ZSt4swapISt9_Any_dataEvRT_S2_>:
   *  @param  __b  Another thing of arbitrary type.
   *  @return   Nothing.
  */
  template<typename _Tp>
    inline void
    swap(_Tp& __a, _Tp& __b)
   d7e70:	b513      	push	{r0, r1, r4, lr}
   d7e72:	460b      	mov	r3, r1
   d7e74:	4604      	mov	r4, r0
#endif
    {
      // concept requirements
      __glibcxx_function_requires(_SGIAssignableConcept<_Tp>)

      _Tp __tmp = _GLIBCXX_MOVE(__a);
   d7e76:	c803      	ldmia	r0, {r0, r1}
   d7e78:	e88d 0003 	stmia.w	sp, {r0, r1}
      __a = _GLIBCXX_MOVE(__b);
   d7e7c:	e893 0003 	ldmia.w	r3, {r0, r1}
   d7e80:	e884 0003 	stmia.w	r4, {r0, r1}
      __b = _GLIBCXX_MOVE(__tmp);
   d7e84:	e89d 0003 	ldmia.w	sp, {r0, r1}
   d7e88:	e883 0003 	stmia.w	r3, {r0, r1}
    }
   d7e8c:	b002      	add	sp, #8
   d7e8e:	bd10      	pop	{r4, pc}

000d7e90 <_ZNKSt8functionIFvRKN8particle5ErrorEEEclES3_>:
  template<typename _Res, typename... _ArgTypes>
    _Res
    function<_Res(_ArgTypes...)>::
    operator()(_ArgTypes... __args) const
    {
      if (_M_empty())
   d7e90:	6882      	ldr	r2, [r0, #8]
	  }
      }

  template<typename _Res, typename... _ArgTypes>
    _Res
    function<_Res(_ArgTypes...)>::
   d7e92:	b510      	push	{r4, lr}
    operator()(_ArgTypes... __args) const
    {
      if (_M_empty())
   d7e94:	b90a      	cbnz	r2, d7e9a <_ZNKSt8functionIFvRKN8particle5ErrorEEEclES3_+0xa>
	__throw_bad_function_call();
   d7e96:	f001 fd0c 	bl	d98b2 <_ZSt25__throw_bad_function_callv>
      return _M_invoker(_M_functor, std::forward<_ArgTypes>(__args)...);
   d7e9a:	68c3      	ldr	r3, [r0, #12]
    }
   d7e9c:	e8bd 4010 	ldmia.w	sp!, {r4, lr}
    function<_Res(_ArgTypes...)>::
    operator()(_ArgTypes... __args) const
    {
      if (_M_empty())
	__throw_bad_function_call();
      return _M_invoker(_M_functor, std::forward<_ArgTypes>(__args)...);
   d7ea0:	4718      	bx	r3

000d7ea2 <_ZNSt17_Function_handlerIFvvESt5_BindIFSt8functionIFvRKN8particle5ErrorEEES4_EEE9_M_invokeERKSt9_Any_data>:
    {
      typedef _Function_base::_Base_manager<_Functor> _Base;

     public:
      static void
      _M_invoke(const _Any_data& __functor, _ArgTypes&&... __args)
   d7ea2:	b508      	push	{r3, lr}
	static _Functor*
	_M_get_pointer(const _Any_data& __source)
	{
	  const _Functor* __ptr =
	    __stored_locally? std::__addressof(__source._M_access<_Functor>())
	    /* have stored a pointer */ : __source._M_access<_Functor*>();
   d7ea4:	6800      	ldr	r0, [r0, #0]
      template<typename _Result, typename... _Args, std::size_t... _Indexes>
	_Result
	__call(tuple<_Args...>&& __args, _Index_tuple<_Indexes...>)
	{
	  return _M_f(_Mu<_Bound_args>()
		      (std::get<_Indexes>(_M_bound_args), __args)...);
   d7ea6:	f100 0110 	add.w	r1, r0, #16
   d7eaa:	f7ff fff1 	bl	d7e90 <_ZNKSt8functionIFvRKN8particle5ErrorEEEclES3_>
   d7eae:	bd08      	pop	{r3, pc}

000d7eb0 <_ZNKSt8functionIFvRKbEEclES1_>:
  template<typename _Res, typename... _ArgTypes>
    _Res
    function<_Res(_ArgTypes...)>::
    operator()(_ArgTypes... __args) const
    {
      if (_M_empty())
   d7eb0:	6882      	ldr	r2, [r0, #8]
	  }
      }

  template<typename _Res, typename... _ArgTypes>
    _Res
    function<_Res(_ArgTypes...)>::
   d7eb2:	b510      	push	{r4, lr}
    operator()(_ArgTypes... __args) const
    {
      if (_M_empty())
   d7eb4:	b90a      	cbnz	r2, d7eba <_ZNKSt8functionIFvRKbEEclES1_+0xa>
	__throw_bad_function_call();
   d7eb6:	f001 fcfc 	bl	d98b2 <_ZSt25__throw_bad_function_callv>
      return _M_invoker(_M_functor, std::forward<_ArgTypes>(__args)...);
   d7eba:	68c3      	ldr	r3, [r0, #12]
    }
   d7ebc:	e8bd 4010 	ldmia.w	sp!, {r4, lr}
    function<_Res(_ArgTypes...)>::
    operator()(_ArgTypes... __args) const
    {
      if (_M_empty())
	__throw_bad_function_call();
      return _M_invoker(_M_functor, std::forward<_ArgTypes>(__args)...);
   d7ec0:	4718      	bx	r3

000d7ec2 <_ZNSt17_Function_handlerIFvvESt5_BindIFSt8functionIFvRKbEEbEEE9_M_invokeERKSt9_Any_data>:
    {
      typedef _Function_base::_Base_manager<_Functor> _Base;

     public:
      static void
      _M_invoke(const _Any_data& __functor, _ArgTypes&&... __args)
   d7ec2:	b508      	push	{r3, lr}
	static _Functor*
	_M_get_pointer(const _Any_data& __source)
	{
	  const _Functor* __ptr =
	    __stored_locally? std::__addressof(__source._M_access<_Functor>())
	    /* have stored a pointer */ : __source._M_access<_Functor*>();
   d7ec4:	6800      	ldr	r0, [r0, #0]
      template<typename _Result, typename... _Args, std::size_t... _Indexes>
	_Result
	__call(tuple<_Args...>&& __args, _Index_tuple<_Indexes...>)
	{
	  return _M_f(_Mu<_Bound_args>()
		      (std::get<_Indexes>(_M_bound_args), __args)...);
   d7ec6:	f100 0110 	add.w	r1, r0, #16
   d7eca:	f7ff fff1 	bl	d7eb0 <_ZNKSt8functionIFvRKbEEclES1_>
   d7ece:	bd08      	pop	{r3, pc}

000d7ed0 <_ZNSt8functionIFvRKN8particle5ErrorEEEC1ERKS5_>:
      _Invoker_type _M_invoker;
  };

  // Out-of-line member definitions.
  template<typename _Res, typename... _ArgTypes>
    function<_Res(_ArgTypes...)>::
   d7ed0:	b538      	push	{r3, r4, r5, lr}
	{
	  _Base::_M_init_functor(__functor, std::__addressof(__f.get()));
	}
      };

    _Function_base() : _M_manager(nullptr) { }
   d7ed2:	2300      	movs	r3, #0
   d7ed4:	6083      	str	r3, [r0, #8]
   d7ed6:	688b      	ldr	r3, [r1, #8]
      _Invoker_type _M_invoker;
  };

  // Out-of-line member definitions.
  template<typename _Res, typename... _ArgTypes>
    function<_Res(_ArgTypes...)>::
   d7ed8:	4604      	mov	r4, r0
   d7eda:	460d      	mov	r5, r1
    function(const function& __x)
    : _Function_base()
    {
      if (static_cast<bool>(__x))
   d7edc:	b12b      	cbz	r3, d7eea <_ZNSt8functionIFvRKN8particle5ErrorEEEC1ERKS5_+0x1a>
	{
	  __x._M_manager(_M_functor, __x._M_functor, __clone_functor);
   d7ede:	2202      	movs	r2, #2
   d7ee0:	4798      	blx	r3
	  _M_invoker = __x._M_invoker;
   d7ee2:	68eb      	ldr	r3, [r5, #12]
   d7ee4:	60e3      	str	r3, [r4, #12]
	  _M_manager = __x._M_manager;
   d7ee6:	68ab      	ldr	r3, [r5, #8]
   d7ee8:	60a3      	str	r3, [r4, #8]
	}
    }
   d7eea:	4620      	mov	r0, r4
   d7eec:	bd38      	pop	{r3, r4, r5, pc}
	...

000d7ef0 <_ZN8particle11PromiseBaseIbNS_6detail13FutureContextEE8setErrorENS_5ErrorE>:

    explicit PromiseBase(detail::FutureImplPtr<ResultT, ContextT> ptr) :
            p_(std::move(ptr)) {
    }

    void setError(Error error) {
   d7ef0:	e92d 41f0 	stmdb	sp!, {r4, r5, r6, r7, r8, lr}
      // concept requirements
      __glibcxx_function_requires(_SGIAssignableConcept<_Tp>)

      _Tp __tmp = _GLIBCXX_MOVE(__a);
      __a = _GLIBCXX_MOVE(__b);
      __b = _GLIBCXX_MOVE(__tmp);
   d7ef4:	f64f 739c 	movw	r3, #65436	; 0xff9c
   d7ef8:	b086      	sub	sp, #24
   d7efa:	6804      	ldr	r4, [r0, #0]
    {
      // concept requirements
      __glibcxx_function_requires(_SGIAssignableConcept<_Tp>)

      _Tp __tmp = _GLIBCXX_MOVE(__a);
      __a = _GLIBCXX_MOVE(__b);
   d7efc:	f9b1 2004 	ldrsh.w	r2, [r1, #4]
      __b = _GLIBCXX_MOVE(__tmp);
   d7f00:	808b      	strh	r3, [r1, #4]
   d7f02:	2300      	movs	r3, #0
    {
      // concept requirements
      __glibcxx_function_requires(_SGIAssignableConcept<_Tp>)

      _Tp __tmp = _GLIBCXX_MOVE(__a);
      __a = _GLIBCXX_MOVE(__b);
   d7f04:	680f      	ldr	r7, [r1, #0]
            onSuccess_(nullptr),
            onError_(nullptr) {
    }

    bool changeState(State state) {
        State s = State::RUNNING; // Expected state
   d7f06:	f88d 3000 	strb.w	r3, [sp]
      __b = _GLIBCXX_MOVE(__tmp);
   d7f0a:	600b      	str	r3, [r1, #0]

      bool
      compare_exchange_strong(_Tp& __e, _Tp __i, memory_order __s, 
			      memory_order __f) noexcept
      {
	return __atomic_compare_exchange(&_M_i, &__e, &__i, false, __s, __f);
   d7f0c:	f04f 0002 	mov.w	r0, #2
   d7f10:	e8d4 1f4f 	ldrexb	r1, [r4]
   d7f14:	4299      	cmp	r1, r3
   d7f16:	d103      	bne.n	d7f20 <_ZN8particle11PromiseBaseIbNS_6detail13FutureContextEE8setErrorENS_5ErrorE+0x30>
   d7f18:	e8c4 0f45 	strexb	r5, r0, [r4]
   d7f1c:	2d00      	cmp	r5, #0
   d7f1e:	d1f7      	bne.n	d7f10 <_ZN8particle11PromiseBaseIbNS_6detail13FutureContextEE8setErrorENS_5ErrorE+0x20>
   d7f20:	d002      	beq.n	d7f28 <_ZN8particle11PromiseBaseIbNS_6detail13FutureContextEE8setErrorENS_5ErrorE+0x38>
   d7f22:	f88d 1000 	strb.w	r1, [sp]
   d7f26:	e06b      	b.n	d8000 <_ZN8particle11PromiseBaseIbNS_6detail13FutureContextEE8setErrorENS_5ErrorE+0x110>
        return std::move(defaultValue);
    }

    void setError(Error error) {
        if (this->changeState(State::FAILED)) {
            new(&error_) Error(std::move(error));
   d7f28:	f114 050c 	adds.w	r5, r4, #12
    {
      // concept requirements
      __glibcxx_function_requires(_SGIAssignableConcept<_Tp>)

      _Tp __tmp = _GLIBCXX_MOVE(__a);
      __a = _GLIBCXX_MOVE(__b);
   d7f2c:	bf1e      	ittt	ne
   d7f2e:	60e7      	strne	r7, [r4, #12]
   d7f30:	8222      	strhne	r2, [r4, #16]
      __b = _GLIBCXX_MOVE(__tmp);
   d7f32:	461f      	movne	r7, r3
        memory_order __b = __m & __memory_order_mask;
	__glibcxx_assert(__b != memory_order_acquire);
	__glibcxx_assert(__b != memory_order_acq_rel);
	__glibcxx_assert(__b != memory_order_consume);

	__atomic_store_n(&_M_i, __i, __m);
   d7f34:	2301      	movs	r3, #1
   d7f36:	f3bf 8f5f 	dmb	sy

      _GLIBCXX_ALWAYS_INLINE __pointer_type
      exchange(__pointer_type __p,
	       memory_order __m = memory_order_seq_cst) noexcept
      {
	return __atomic_exchange_n(&_M_p, __p, __m);
   d7f3a:	2000      	movs	r0, #0
        memory_order __b = __m & __memory_order_mask;
	__glibcxx_assert(__b != memory_order_acquire);
	__glibcxx_assert(__b != memory_order_acq_rel);
	__glibcxx_assert(__b != memory_order_consume);

	__atomic_store_n(&_M_i, __i, __m);
   d7f3c:	7063      	strb	r3, [r4, #1]

      _GLIBCXX_ALWAYS_INLINE __pointer_type
      exchange(__pointer_type __p,
	       memory_order __m = memory_order_seq_cst) noexcept
      {
	return __atomic_exchange_n(&_M_p, __p, __m);
   d7f3e:	f104 0308 	add.w	r3, r4, #8
   d7f42:	f3bf 8f5f 	dmb	sy
   d7f46:	e853 6f00 	ldrex	r6, [r3]
   d7f4a:	e843 0200 	strex	r2, r0, [r3]
   d7f4e:	2a00      	cmp	r2, #0
   d7f50:	d1f9      	bne.n	d7f46 <_ZN8particle11PromiseBaseIbNS_6detail13FutureContextEE8setErrorENS_5ErrorE+0x56>
   d7f52:	f3bf 8f5f 	dmb	sy

    // Takes a callback from its atomic wrapper and invokes it
    template<typename FunctionT, typename... ArgsT>
    static void invokeCallback(std::atomic<std::function<FunctionT>*>& wrapper, ArgsT&&... args) {
        std::function<FunctionT>* callbackPtr = wrapper.exchange(nullptr, std::memory_order_acq_rel);
        if (callbackPtr) {
   d7f56:	2e00      	cmp	r6, #0
   d7f58:	d052      	beq.n	d8000 <_ZN8particle11PromiseBaseIbNS_6detail13FutureContextEE8setErrorENS_5ErrorE+0x110>
        return (application_thread_invoke(callback, data, nullptr) == 0);
    }

    // Returns true if current thread is the application thread
    static bool isApplicationThreadCurrent() {
        return (application_thread_current(nullptr) != 0);
   d7f5a:	f7ff fdff 	bl	d7b5c <application_thread_current>
    }

    // Invokes std::function in the application context
    template<typename FunctionT, typename... ArgsT>
    static void invokeCallback(const std::function<FunctionT>& callback, ArgsT&&... args) {
        if (ContextT::isApplicationThreadCurrent()) {
   d7f5e:	b120      	cbz	r0, d7f6a <_ZN8particle11PromiseBaseIbNS_6detail13FutureContextEE8setErrorENS_5ErrorE+0x7a>
            callback(std::forward<ArgsT>(args)...); // Synchronous call
   d7f60:	4629      	mov	r1, r5
   d7f62:	4630      	mov	r0, r6
   d7f64:	f7ff ff94 	bl	d7e90 <_ZNKSt8functionIFvRKN8particle5ErrorEEEclES3_>
   d7f68:	e043      	b.n	d7ff2 <_ZN8particle11PromiseBaseIbNS_6detail13FutureContextEE8setErrorENS_5ErrorE+0x102>
	}

     public:
      template<typename... _Args>
	explicit _Bind(const _Functor& __f, _Args&&... __args)
	: _M_f(__f), _M_bound_args(std::forward<_Args>(__args)...)
   d7f6a:	4631      	mov	r1, r6
   d7f6c:	4668      	mov	r0, sp
   d7f6e:	f7ff ffaf 	bl	d7ed0 <_ZNSt8functionIFvRKN8particle5ErrorEEEC1ERKS5_>
inline particle::Error::Error(const char* msg) :
        Error(UNKNOWN, msg) {
}

inline particle::Error::Error(const Error& error) :
        Error(error.type_, error.msg_) {
   d7f72:	68e0      	ldr	r0, [r4, #12]
   d7f74:	f9b4 5010 	ldrsh.w	r5, [r4, #16]
        type_(type) {
}

inline particle::Error::Error(Type type, const char* msg) :
        msg_(msg ? (const char*)strdup(msg) : nullptr),
        type_(type) {
   d7f78:	b108      	cbz	r0, d7f7e <_ZN8particle11PromiseBaseIbNS_6detail13FutureContextEE8setErrorENS_5ErrorE+0x8e>
   d7f7a:	f002 fb5b 	bl	da634 <strdup>
   d7f7e:	9004      	str	r0, [sp, #16]
        } else {
            // Bind all arguments and wrap resulting function into a pointer
            auto callbackPtr = new std::function<void()>(std::bind(callback, std::forward<ArgsT>(args)...));
   d7f80:	2010      	movs	r0, #16
   d7f82:	f8ad 5014 	strh.w	r5, [sp, #20]
   d7f86:	f7fc f886 	bl	d4096 <_Znwj>
   d7f8a:	4605      	mov	r5, r0
   d7f8c:	b330      	cbz	r0, d7fdc <_ZN8particle11PromiseBaseIbNS_6detail13FutureContextEE8setErrorENS_5ErrorE+0xec>
	{
	  _Base::_M_init_functor(__functor, std::__addressof(__f.get()));
	}
      };

    _Function_base() : _M_manager(nullptr) { }
   d7f8e:	f04f 0800 	mov.w	r8, #0
   d7f92:	f8c0 8008 	str.w	r8, [r0, #8]
	_M_init_functor(_Any_data& __functor, _Functor&& __f, true_type)
	{ new (__functor._M_access()) _Functor(std::move(__f)); }

	static void
	_M_init_functor(_Any_data& __functor, _Functor&& __f, false_type)
	{ __functor._M_access<_Functor*>() = new _Functor(std::move(__f)); }
   d7f96:	2018      	movs	r0, #24
   d7f98:	f7fc f87d 	bl	d4096 <_Znwj>
   d7f9c:	4604      	mov	r4, r0
   d7f9e:	b1c0      	cbz	r0, d7fd2 <_ZN8particle11PromiseBaseIbNS_6detail13FutureContextEE8setErrorENS_5ErrorE+0xe2>
	{
	  _Base::_M_init_functor(__functor, std::__addressof(__f.get()));
	}
      };

    _Function_base() : _M_manager(nullptr) { }
   d7fa0:	f8c0 8008 	str.w	r8, [r0, #8]
       *  Swap the targets of @c this function object and @a __f. This
       *  function will not throw an %exception.
       */
      void swap(function& __x)
      {
	std::swap(_M_functor, __x._M_functor);
   d7fa4:	4601      	mov	r1, r0
   d7fa6:	4668      	mov	r0, sp
   d7fa8:	f7ff ff62 	bl	d7e70 <_ZSt4swapISt9_Any_dataEvRT_S2_>
#endif
    {
      // concept requirements
      __glibcxx_function_requires(_SGIAssignableConcept<_Tp>)

      _Tp __tmp = _GLIBCXX_MOVE(__a);
   d7fac:	9b02      	ldr	r3, [sp, #8]
      __a = _GLIBCXX_MOVE(__b);
   d7fae:	68a2      	ldr	r2, [r4, #8]
      __b = _GLIBCXX_MOVE(__tmp);
   d7fb0:	60a3      	str	r3, [r4, #8]
#endif
    {
      // concept requirements
      __glibcxx_function_requires(_SGIAssignableConcept<_Tp>)

      _Tp __tmp = _GLIBCXX_MOVE(__a);
   d7fb2:	9b03      	ldr	r3, [sp, #12]
      __a = _GLIBCXX_MOVE(__b);
   d7fb4:	9202      	str	r2, [sp, #8]
   d7fb6:	68e2      	ldr	r2, [r4, #12]
      __b = _GLIBCXX_MOVE(__tmp);
   d7fb8:	60e3      	str	r3, [r4, #12]
    {
      // concept requirements
      __glibcxx_function_requires(_SGIAssignableConcept<_Tp>)

      _Tp __tmp = _GLIBCXX_MOVE(__a);
      __a = _GLIBCXX_MOVE(__b);
   d7fba:	f8bd 3014 	ldrh.w	r3, [sp, #20]
   d7fbe:	82a3      	strh	r3, [r4, #20]
      __b = _GLIBCXX_MOVE(__tmp);
   d7fc0:	f64f 739c 	movw	r3, #65436	; 0xff9c
   d7fc4:	f8ad 3014 	strh.w	r3, [sp, #20]
    {
      // concept requirements
      __glibcxx_function_requires(_SGIAssignableConcept<_Tp>)

      _Tp __tmp = _GLIBCXX_MOVE(__a);
      __a = _GLIBCXX_MOVE(__b);
   d7fc8:	9b04      	ldr	r3, [sp, #16]
   d7fca:	9203      	str	r2, [sp, #12]
   d7fcc:	6123      	str	r3, [r4, #16]
      __b = _GLIBCXX_MOVE(__tmp);
   d7fce:	f8cd 8010 	str.w	r8, [sp, #16]
	typedef _Function_handler<_Signature_type, _Functor> _My_handler;

	if (_My_handler::_M_not_empty_function(__f))
	  {
	    _My_handler::_M_init_functor(_M_functor, std::move(__f));
	    _M_invoker = &_My_handler::_M_invoke;
   d7fd2:	4b0e      	ldr	r3, [pc, #56]	; (d800c <_ZN8particle11PromiseBaseIbNS_6detail13FutureContextEE8setErrorENS_5ErrorE+0x11c>)
   d7fd4:	60eb      	str	r3, [r5, #12]
	    _M_manager = &_My_handler::_M_manager;
   d7fd6:	4b0e      	ldr	r3, [pc, #56]	; (d8010 <_ZN8particle11PromiseBaseIbNS_6detail13FutureContextEE8setErrorENS_5ErrorE+0x120>)
	_M_init_functor(_Any_data& __functor, _Functor&& __f, true_type)
	{ new (__functor._M_access()) _Functor(std::move(__f)); }

	static void
	_M_init_functor(_Any_data& __functor, _Functor&& __f, false_type)
	{ __functor._M_access<_Functor*>() = new _Functor(std::move(__f)); }
   d7fd8:	602c      	str	r4, [r5, #0]

	if (_My_handler::_M_not_empty_function(__f))
	  {
	    _My_handler::_M_init_functor(_M_functor, std::move(__f));
	    _M_invoker = &_My_handler::_M_invoke;
	    _M_manager = &_My_handler::_M_manager;
   d7fda:	60ab      	str	r3, [r5, #8]
        Error() {
    swap(*this, error);
}

inline particle::Error::~Error() {
    free((void*)msg_);
   d7fdc:	9804      	ldr	r0, [sp, #16]
   d7fde:	f7ff fe71 	bl	d7cc4 <free>
   *  @ingroup functors
   *
   *  Polymorphic function wrapper.
   */
  template<typename _Res, typename... _ArgTypes>
    class function<_Res(_ArgTypes...)>
   d7fe2:	4668      	mov	r0, sp
   d7fe4:	f7fc f8d9 	bl	d419a <_ZNSt14_Function_baseD1Ev>
        spark_process();
    }

    // Asynchronously invokes a callback in the application context
    static bool invokeApplicationCallback(void (*callback)(void* data), void* data) {
        return (application_thread_invoke(callback, data, nullptr) == 0);
   d7fe8:	2200      	movs	r2, #0
   d7fea:	4629      	mov	r1, r5
   d7fec:	4809      	ldr	r0, [pc, #36]	; (d8014 <_ZN8particle11PromiseBaseIbNS_6detail13FutureContextEE8setErrorENS_5ErrorE+0x124>)
   d7fee:	f7ff fdbd 	bl	d7b6c <application_thread_invoke>
   d7ff2:	4630      	mov	r0, r6
   d7ff4:	f7fc f8d1 	bl	d419a <_ZNSt14_Function_baseD1Ev>
    template<typename FunctionT, typename... ArgsT>
    static void invokeCallback(std::atomic<std::function<FunctionT>*>& wrapper, ArgsT&&... args) {
        std::function<FunctionT>* callbackPtr = wrapper.exchange(nullptr, std::memory_order_acq_rel);
        if (callbackPtr) {
            invokeCallback(*callbackPtr, std::forward<ArgsT>(args)...);
            delete callbackPtr;
   d7ff8:	2110      	movs	r1, #16
   d7ffa:	4630      	mov	r0, r6
   d7ffc:	f001 fc3f 	bl	d987e <_ZdlPvj>
   d8000:	4638      	mov	r0, r7
   d8002:	f7ff fe5f 	bl	d7cc4 <free>
            p_(std::move(ptr)) {
    }

    void setError(Error error) {
        p_->setError(std::move(error));
    }
   d8006:	b006      	add	sp, #24
   d8008:	e8bd 81f0 	ldmia.w	sp!, {r4, r5, r6, r7, r8, pc}
   d800c:	000d7ea3 	.word	0x000d7ea3
   d8010:	000d8101 	.word	0x000d8101
   d8014:	000d7d6b 	.word	0x000d7d6b

000d8018 <_ZN10CloudClass13publish_eventEPKcS1_iN8particle5FlagsI15PublishFlagTypehEE>:
    desc.data = (void*)data;
    desc.funcKey = funcKey;
    return spark_function(NULL, (user_function_int_str_t*)&desc, NULL);
}

Future<bool> CloudClass::publish_event(const char *eventName, const char *eventData, int ttl, PublishFlags flags) {
   d8018:	e92d 4ff0 	stmdb	sp!, {r4, r5, r6, r7, r8, r9, sl, fp, lr}
   d801c:	b08b      	sub	sp, #44	; 0x2c
#ifndef SPARK_NO_CLOUD
    spark_send_event_data d = { sizeof(spark_send_event_data) };
   d801e:	ad07      	add	r5, sp, #28
   d8020:	f04f 0b00 	mov.w	fp, #0
    desc.data = (void*)data;
    desc.funcKey = funcKey;
    return spark_function(NULL, (user_function_int_str_t*)&desc, NULL);
}

Future<bool> CloudClass::publish_event(const char *eventName, const char *eventData, int ttl, PublishFlags flags) {
   d8024:	4606      	mov	r6, r0
   d8026:	4699      	mov	r9, r3
// can be acquired via Future
template<typename ResultT, typename ContextT>
class PromiseBase {
public:
    PromiseBase() :
            p_(new detail::FutureImpl<ResultT, ContextT>(State::RUNNING)) {
   d8028:	2014      	movs	r0, #20
#ifndef SPARK_NO_CLOUD
    spark_send_event_data d = { sizeof(spark_send_event_data) };
   d802a:	230c      	movs	r3, #12
    desc.data = (void*)data;
    desc.funcKey = funcKey;
    return spark_function(NULL, (user_function_int_str_t*)&desc, NULL);
}

Future<bool> CloudClass::publish_event(const char *eventName, const char *eventData, int ttl, PublishFlags flags) {
   d802c:	460f      	mov	r7, r1
   d802e:	4690      	mov	r8, r2
   d8030:	f89d a050 	ldrb.w	sl, [sp, #80]	; 0x50
#ifndef SPARK_NO_CLOUD
    spark_send_event_data d = { sizeof(spark_send_event_data) };
   d8034:	f8c5 b004 	str.w	fp, [r5, #4]
   d8038:	f8c5 b008 	str.w	fp, [r5, #8]
   d803c:	9307      	str	r3, [sp, #28]
   d803e:	f7fc f82a 	bl	d4096 <_Znwj>
   d8042:	4604      	mov	r4, r0
   d8044:	b138      	cbz	r0, d8056 <_ZN10CloudClass13publish_eventEPKcS1_iN8particle5FlagsI15PublishFlagTypehEE+0x3e>
      ~atomic() noexcept = default;
      atomic(const atomic&) = delete;
      atomic& operator=(const atomic&) = delete;
      atomic& operator=(const atomic&) volatile = delete;

      constexpr atomic(_Tp __i) noexcept : _M_i(__i) { }
   d8046:	f880 b000 	strb.w	fp, [r0]
      __atomic_base(const __atomic_base&) = delete;
      __atomic_base& operator=(const __atomic_base&) = delete;
      __atomic_base& operator=(const __atomic_base&) volatile = delete;

      // Requires __int_type convertible to _M_i.
      constexpr __atomic_base(__int_type __i) noexcept : _M_i (__i) { }
   d804a:	f880 b001 	strb.w	fp, [r0, #1]
      __atomic_base(const __atomic_base&) = delete;
      __atomic_base& operator=(const __atomic_base&) = delete;
      __atomic_base& operator=(const __atomic_base&) volatile = delete;

      // Requires __pointer_type convertible to _M_p.
      constexpr __atomic_base(__pointer_type __p) noexcept : _M_p (__p) { }
   d804e:	f8c0 b004 	str.w	fp, [r0, #4]
   d8052:	f8c0 b008 	str.w	fp, [r0, #8]
      constexpr __shared_count() noexcept : _M_pi(0)
      { }

      template<typename _Ptr>
        explicit
	__shared_count(_Ptr __p) : _M_pi(0)
   d8056:	2300      	movs	r3, #0
	{
	  __try
	    {
	      _M_pi = new _Sp_counted_ptr<_Ptr, _Lp>(__p);
   d8058:	2010      	movs	r0, #16
      : _M_ptr(0), _M_refcount()
      { }

      template<typename _Tp1>
	explicit __shared_ptr(_Tp1* __p)
        : _M_ptr(__p), _M_refcount(__p)
   d805a:	9403      	str	r4, [sp, #12]
      constexpr __shared_count() noexcept : _M_pi(0)
      { }

      template<typename _Ptr>
        explicit
	__shared_count(_Ptr __p) : _M_pi(0)
   d805c:	9304      	str	r3, [sp, #16]
	{
	  __try
	    {
	      _M_pi = new _Sp_counted_ptr<_Ptr, _Lp>(__p);
   d805e:	f7fc f81a 	bl	d4096 <_Znwj>
   d8062:	b128      	cbz	r0, d8070 <_ZN10CloudClass13publish_eventEPKcS1_iN8particle5FlagsI15PublishFlagTypehEE+0x58>
    class _Sp_counted_base
    : public _Mutex_base<_Lp>
    {
    public:  
      _Sp_counted_base() noexcept
      : _M_use_count(1), _M_weak_count(1) { }
   d8064:	2301      	movs	r3, #1
   d8066:	6043      	str	r3, [r0, #4]
   d8068:	6083      	str	r3, [r0, #8]
    class _Sp_counted_ptr final : public _Sp_counted_base<_Lp>
    {
    public:
      explicit
      _Sp_counted_ptr(_Ptr __p) noexcept
      : _M_ptr(__p) { }
   d806a:	4b23      	ldr	r3, [pc, #140]	; (d80f8 <_ZN10CloudClass13publish_eventEPKcS1_iN8particle5FlagsI15PublishFlagTypehEE+0xe0>)
   d806c:	6003      	str	r3, [r0, #0]
   d806e:	60c4      	str	r4, [r0, #12]
        explicit
	__shared_count(_Ptr __p) : _M_pi(0)
	{
	  __try
	    {
	      _M_pi = new _Sp_counted_ptr<_Ptr, _Lp>(__p);
   d8070:	9004      	str	r0, [sp, #16]

    // Completion handler
    Promise<bool> p;
    d.handler_callback = publishCompletionCallback;
   d8072:	4b22      	ldr	r3, [pc, #136]	; (d80fc <_ZN10CloudClass13publish_eventEPKcS1_iN8particle5FlagsI15PublishFlagTypehEE+0xe4>)
   d8074:	9308      	str	r3, [sp, #32]
    }

    // Wraps this promise into an object pointer that can be passed to a C function
    void* dataPtr() const {
        // TODO: Use custom reference counting object to avoid unnecessary memory allocation
        return new detail::FutureImplPtr<ResultT, ContextT>(p_);
   d8076:	2008      	movs	r0, #8
   d8078:	f7fc f80d 	bl	d4096 <_Znwj>
   d807c:	4604      	mov	r4, r0
   d807e:	b128      	cbz	r0, d808c <_ZN10CloudClass13publish_eventEPKcS1_iN8particle5FlagsI15PublishFlagTypehEE+0x74>
      template<typename _Tp1>
	__shared_ptr(const __shared_ptr<_Tp1, _Lp>& __r, _Tp* __p) noexcept
	: _M_ptr(__p), _M_refcount(__r._M_refcount) // never throws
	{ }

      __shared_ptr(const __shared_ptr&) noexcept = default;
   d8080:	9b03      	ldr	r3, [sp, #12]
   d8082:	f840 3b04 	str.w	r3, [r0], #4
   d8086:	a904      	add	r1, sp, #16
   d8088:	f7ff fe83 	bl	d7d92 <_ZNSt14__shared_countILN9__gnu_cxx12_Lock_policyE0EEC1ERKS2_>
    d.handler_data = p.dataPtr();

    if (!spark_send_event(eventName, eventData, ttl, flags.value(), &d) && !p.isDone()) {
   d808c:	9500      	str	r5, [sp, #0]
   d808e:	fa5f f38a 	uxtb.w	r3, sl
   d8092:	464a      	mov	r2, r9
   d8094:	4641      	mov	r1, r8
   d8096:	4638      	mov	r0, r7
    spark_send_event_data d = { sizeof(spark_send_event_data) };

    // Completion handler
    Promise<bool> p;
    d.handler_callback = publishCompletionCallback;
    d.handler_data = p.dataPtr();
   d8098:	9409      	str	r4, [sp, #36]	; 0x24

    if (!spark_send_event(eventName, eventData, ttl, flags.value(), &d) && !p.isDone()) {
   d809a:	f7ff fd9b 	bl	d7bd4 <spark_send_event>
   d809e:	b9b8      	cbnz	r0, d80d0 <_ZN10CloudClass13publish_eventEPKcS1_iN8particle5FlagsI15PublishFlagTypehEE+0xb8>
      {
       memory_order __b = __m & __memory_order_mask;
	__glibcxx_assert(__b != memory_order_release);
	__glibcxx_assert(__b != memory_order_acq_rel);

	return __atomic_load_n(&_M_i, __m);
   d80a0:	9b03      	ldr	r3, [sp, #12]
   d80a2:	785b      	ldrb	r3, [r3, #1]
   d80a4:	f003 02ff 	and.w	r2, r3, #255	; 0xff
   d80a8:	b993      	cbnz	r3, d80d0 <_ZN10CloudClass13publish_eventEPKcS1_iN8particle5FlagsI15PublishFlagTypehEE+0xb8>

} // namespace particle

inline particle::Error::Error(Type type) :
        msg_(nullptr),
        type_(type) {
   d80aa:	f64f 739c 	movw	r3, #65436	; 0xff9c
        // Set generic error code in case completion callback wasn't invoked for some reason
        p.setError(Error::UNKNOWN);
   d80ae:	a905      	add	r1, sp, #20
   d80b0:	a803      	add	r0, sp, #12
   d80b2:	9205      	str	r2, [sp, #20]
   d80b4:	f8ad 3018 	strh.w	r3, [sp, #24]
   d80b8:	f7ff ff1a 	bl	d7ef0 <_ZN8particle11PromiseBaseIbNS_6detail13FutureContextEE8setErrorENS_5ErrorE>
        Error() {
    swap(*this, error);
}

inline particle::Error::~Error() {
    free((void*)msg_);
   d80bc:	9805      	ldr	r0, [sp, #20]
   d80be:	f7ff fe01 	bl	d7cc4 <free>
        p.fromDataPtr(d.handler_data); // Free wrapper object
   d80c2:	a805      	add	r0, sp, #20
   d80c4:	9909      	ldr	r1, [sp, #36]	; 0x24
   d80c6:	f7ff feb5 	bl	d7e34 <_ZN8particle11PromiseBaseIbNS_6detail13FutureContextEE11fromDataPtrEPv>
      __shared_ptr& operator=(const __shared_ptr&) noexcept = default;
      ~__shared_ptr() = default;
   d80ca:	a806      	add	r0, sp, #24
   d80cc:	f7fc fc3e 	bl	d494c <_ZNSt14__shared_countILN9__gnu_cxx12_Lock_policyE0EED1Ev>
      template<typename _Tp1>
	__shared_ptr(const __shared_ptr<_Tp1, _Lp>& __r, _Tp* __p) noexcept
	: _M_ptr(__p), _M_refcount(__r._M_refcount) // never throws
	{ }

      __shared_ptr(const __shared_ptr&) noexcept = default;
   d80d0:	9b03      	ldr	r3, [sp, #12]
   d80d2:	9305      	str	r3, [sp, #20]
   d80d4:	a904      	add	r1, sp, #16
   d80d6:	a806      	add	r0, sp, #24
   d80d8:	f7ff fe5b 	bl	d7d92 <_ZNSt14__shared_countILN9__gnu_cxx12_Lock_policyE0EEC1ERKS2_>
    bool isDone() const {
        return p_->isDone();
    }

    Future<ResultT, ContextT> future() const {
        return Future<ResultT, ContextT>(p_);
   d80dc:	a905      	add	r1, sp, #20
   d80de:	4630      	mov	r0, r6
   d80e0:	f7ff fe97 	bl	d7e12 <_ZN8particle6FutureIbNS_6detail13FutureContextEEC1ESt10shared_ptrINS1_10FutureImplIbS2_EEE>
      __shared_ptr& operator=(const __shared_ptr&) noexcept = default;
      ~__shared_ptr() = default;
   d80e4:	a806      	add	r0, sp, #24
   d80e6:	f7fc fc31 	bl	d494c <_ZNSt14__shared_countILN9__gnu_cxx12_Lock_policyE0EED1Ev>
   d80ea:	a804      	add	r0, sp, #16
   d80ec:	f7fc fc2e 	bl	d494c <_ZNSt14__shared_countILN9__gnu_cxx12_Lock_policyE0EED1Ev>

    return p.future();
#else
    return Future<bool>(Error::NOT_SUPPORTED);
#endif
}
   d80f0:	4630      	mov	r0, r6
   d80f2:	b00b      	add	sp, #44	; 0x2c
   d80f4:	e8bd 8ff0 	ldmia.w	sp!, {r4, r5, r6, r7, r8, r9, sl, fp, pc}
   d80f8:	000dbb88 	.word	0x000dbb88
   d80fc:	000d826d 	.word	0x000d826d

000d8100 <_ZNSt14_Function_base13_Base_managerISt5_BindIFSt8functionIFvRKN8particle5ErrorEEES4_EEE10_M_managerERSt9_Any_dataRKSC_St18_Manager_operation>:
      public:
	static bool
	_M_manager(_Any_data& __dest, const _Any_data& __source,
		   _Manager_operation __op)
	{
	  switch (__op)
   d8100:	2a02      	cmp	r2, #2
	  delete __victim._M_access<_Functor*>();
	}

      public:
	static bool
	_M_manager(_Any_data& __dest, const _Any_data& __source,
   d8102:	b5f8      	push	{r3, r4, r5, r6, r7, lr}
   d8104:	4604      	mov	r4, r0
		   _Manager_operation __op)
	{
	  switch (__op)
   d8106:	d006      	beq.n	d8116 <_ZNSt14_Function_base13_Base_managerISt5_BindIFSt8functionIFvRKN8particle5ErrorEEES4_EEE10_M_managerERSt9_Any_dataRKSC_St18_Manager_operation+0x16>
   d8108:	2a03      	cmp	r2, #3
   d810a:	d017      	beq.n	d813c <_ZNSt14_Function_base13_Base_managerISt5_BindIFSt8functionIFvRKN8particle5ErrorEEES4_EEE10_M_managerERSt9_Any_dataRKSC_St18_Manager_operation+0x3c>
   d810c:	2a01      	cmp	r2, #1
   d810e:	d121      	bne.n	d8154 <_ZNSt14_Function_base13_Base_managerISt5_BindIFSt8functionIFvRKN8particle5ErrorEEES4_EEE10_M_managerERSt9_Any_dataRKSC_St18_Manager_operation+0x54>
	static _Functor*
	_M_get_pointer(const _Any_data& __source)
	{
	  const _Functor* __ptr =
	    __stored_locally? std::__addressof(__source._M_access<_Functor>())
	    /* have stored a pointer */ : __source._M_access<_Functor*>();
   d8110:	680b      	ldr	r3, [r1, #0]
	    case __get_type_info:
	      __dest._M_access<const type_info*>() = &typeid(_Functor);
	      break;
#endif
	    case __get_functor_ptr:
	      __dest._M_access<_Functor*>() = _M_get_pointer(__source);
   d8112:	6003      	str	r3, [r0, #0]
	      break;
   d8114:	e01e      	b.n	d8154 <_ZNSt14_Function_base13_Base_managerISt5_BindIFSt8functionIFvRKN8particle5ErrorEEES4_EEE10_M_managerERSt9_Any_dataRKSC_St18_Manager_operation+0x54>
	// Clone a function object that is not location-invariant or
	// that cannot fit into an _Any_data structure.
	static void
	_M_clone(_Any_data& __dest, const _Any_data& __source, false_type)
	{
	  __dest._M_access<_Functor*>() =
   d8116:	2018      	movs	r0, #24
   d8118:	680e      	ldr	r6, [r1, #0]
   d811a:	f7fb ffbc 	bl	d4096 <_Znwj>
   d811e:	4605      	mov	r5, r0
   d8120:	b150      	cbz	r0, d8138 <_ZNSt14_Function_base13_Base_managerISt5_BindIFSt8functionIFvRKN8particle5ErrorEEES4_EEE10_M_managerERSt9_Any_dataRKSC_St18_Manager_operation+0x38>
      template<typename... _Args>
	explicit _Bind(_Functor&& __f, _Args&&... __args)
	: _M_f(std::move(__f)), _M_bound_args(std::forward<_Args>(__args)...)
	{ }

      _Bind(const _Bind&) = default;
   d8122:	4631      	mov	r1, r6
   d8124:	f7ff fed4 	bl	d7ed0 <_ZNSt8functionIFvRKN8particle5ErrorEEEC1ERKS5_>
inline particle::Error::Error(const char* msg) :
        Error(UNKNOWN, msg) {
}

inline particle::Error::Error(const Error& error) :
        Error(error.type_, error.msg_) {
   d8128:	6930      	ldr	r0, [r6, #16]
   d812a:	f9b6 7014 	ldrsh.w	r7, [r6, #20]
        type_(type) {
}

inline particle::Error::Error(Type type, const char* msg) :
        msg_(msg ? (const char*)strdup(msg) : nullptr),
        type_(type) {
   d812e:	b108      	cbz	r0, d8134 <_ZNSt14_Function_base13_Base_managerISt5_BindIFSt8functionIFvRKN8particle5ErrorEEES4_EEE10_M_managerERSt9_Any_dataRKSC_St18_Manager_operation+0x34>
   d8130:	f002 fa80 	bl	da634 <strdup>
   d8134:	6128      	str	r0, [r5, #16]
   d8136:	82af      	strh	r7, [r5, #20]
	// Clone a function object that is not location-invariant or
	// that cannot fit into an _Any_data structure.
	static void
	_M_clone(_Any_data& __dest, const _Any_data& __source, false_type)
	{
	  __dest._M_access<_Functor*>() =
   d8138:	6025      	str	r5, [r4, #0]
   d813a:	e00b      	b.n	d8154 <_ZNSt14_Function_base13_Base_managerISt5_BindIFSt8functionIFvRKN8particle5ErrorEEES4_EEE10_M_managerERSt9_Any_dataRKSC_St18_Manager_operation+0x54>

	// Destroying an object located on the heap.
	static void
	_M_destroy(_Any_data& __victim, false_type)
	{
	  delete __victim._M_access<_Functor*>();
   d813c:	6804      	ldr	r4, [r0, #0]
   d813e:	b14c      	cbz	r4, d8154 <_ZNSt14_Function_base13_Base_managerISt5_BindIFSt8functionIFvRKN8particle5ErrorEEES4_EEE10_M_managerERSt9_Any_dataRKSC_St18_Manager_operation+0x54>
        Error() {
    swap(*this, error);
}

inline particle::Error::~Error() {
    free((void*)msg_);
   d8140:	6920      	ldr	r0, [r4, #16]
   d8142:	f7ff fdbf 	bl	d7cc4 <free>
   *  @ingroup functors
   *
   *  Polymorphic function wrapper.
   */
  template<typename _Res, typename... _ArgTypes>
    class function<_Res(_ArgTypes...)>
   d8146:	4620      	mov	r0, r4
   d8148:	f7fc f827 	bl	d419a <_ZNSt14_Function_baseD1Ev>

	// Destroying an object located on the heap.
	static void
	_M_destroy(_Any_data& __victim, false_type)
	{
	  delete __victim._M_access<_Functor*>();
   d814c:	2118      	movs	r1, #24
   d814e:	4620      	mov	r0, r4
   d8150:	f001 fb95 	bl	d987e <_ZdlPvj>
	    case __destroy_functor:
	      _M_destroy(__dest, _Local_storage());
	      break;
	    }
	  return false;
	}
   d8154:	2000      	movs	r0, #0
   d8156:	bdf8      	pop	{r3, r4, r5, r6, r7, pc}

000d8158 <_ZNSt8functionIFvRKbEEC1ERKS3_>:
      _Invoker_type _M_invoker;
  };

  // Out-of-line member definitions.
  template<typename _Res, typename... _ArgTypes>
    function<_Res(_ArgTypes...)>::
   d8158:	b538      	push	{r3, r4, r5, lr}
	{
	  _Base::_M_init_functor(__functor, std::__addressof(__f.get()));
	}
      };

    _Function_base() : _M_manager(nullptr) { }
   d815a:	2300      	movs	r3, #0
   d815c:	6083      	str	r3, [r0, #8]
   d815e:	688b      	ldr	r3, [r1, #8]
      _Invoker_type _M_invoker;
  };

  // Out-of-line member definitions.
  template<typename _Res, typename... _ArgTypes>
    function<_Res(_ArgTypes...)>::
   d8160:	4604      	mov	r4, r0
   d8162:	460d      	mov	r5, r1
    function(const function& __x)
    : _Function_base()
    {
      if (static_cast<bool>(__x))
   d8164:	b12b      	cbz	r3, d8172 <_ZNSt8functionIFvRKbEEC1ERKS3_+0x1a>
	{
	  __x._M_manager(_M_functor, __x._M_functor, __clone_functor);
   d8166:	2202      	movs	r2, #2
   d8168:	4798      	blx	r3
	  _M_invoker = __x._M_invoker;
   d816a:	68eb      	ldr	r3, [r5, #12]
   d816c:	60e3      	str	r3, [r4, #12]
	  _M_manager = __x._M_manager;
   d816e:	68ab      	ldr	r3, [r5, #8]
   d8170:	60a3      	str	r3, [r4, #8]
	}
    }
   d8172:	4620      	mov	r0, r4
   d8174:	bd38      	pop	{r3, r4, r5, pc}

000d8176 <_ZNSt14_Function_base13_Base_managerISt5_BindIFSt8functionIFvRKbEEbEEE10_M_managerERSt9_Any_dataRKSA_St18_Manager_operation>:
      public:
	static bool
	_M_manager(_Any_data& __dest, const _Any_data& __source,
		   _Manager_operation __op)
	{
	  switch (__op)
   d8176:	2a02      	cmp	r2, #2
	  delete __victim._M_access<_Functor*>();
	}

      public:
	static bool
	_M_manager(_Any_data& __dest, const _Any_data& __source,
   d8178:	b570      	push	{r4, r5, r6, lr}
   d817a:	4604      	mov	r4, r0
		   _Manager_operation __op)
	{
	  switch (__op)
   d817c:	d006      	beq.n	d818c <_ZNSt14_Function_base13_Base_managerISt5_BindIFSt8functionIFvRKbEEbEEE10_M_managerERSt9_Any_dataRKSA_St18_Manager_operation+0x16>
   d817e:	2a03      	cmp	r2, #3
   d8180:	d011      	beq.n	d81a6 <_ZNSt14_Function_base13_Base_managerISt5_BindIFSt8functionIFvRKbEEbEEE10_M_managerERSt9_Any_dataRKSA_St18_Manager_operation+0x30>
   d8182:	2a01      	cmp	r2, #1
   d8184:	d118      	bne.n	d81b8 <_ZNSt14_Function_base13_Base_managerISt5_BindIFSt8functionIFvRKbEEbEEE10_M_managerERSt9_Any_dataRKSA_St18_Manager_operation+0x42>
	static _Functor*
	_M_get_pointer(const _Any_data& __source)
	{
	  const _Functor* __ptr =
	    __stored_locally? std::__addressof(__source._M_access<_Functor>())
	    /* have stored a pointer */ : __source._M_access<_Functor*>();
   d8186:	680b      	ldr	r3, [r1, #0]
	    case __get_type_info:
	      __dest._M_access<const type_info*>() = &typeid(_Functor);
	      break;
#endif
	    case __get_functor_ptr:
	      __dest._M_access<_Functor*>() = _M_get_pointer(__source);
   d8188:	6003      	str	r3, [r0, #0]
	      break;
   d818a:	e015      	b.n	d81b8 <_ZNSt14_Function_base13_Base_managerISt5_BindIFSt8functionIFvRKbEEbEEE10_M_managerERSt9_Any_dataRKSA_St18_Manager_operation+0x42>
	// Clone a function object that is not location-invariant or
	// that cannot fit into an _Any_data structure.
	static void
	_M_clone(_Any_data& __dest, const _Any_data& __source, false_type)
	{
	  __dest._M_access<_Functor*>() =
   d818c:	2014      	movs	r0, #20
   d818e:	680e      	ldr	r6, [r1, #0]
   d8190:	f7fb ff81 	bl	d4096 <_Znwj>
   d8194:	4605      	mov	r5, r0
   d8196:	b120      	cbz	r0, d81a2 <_ZNSt14_Function_base13_Base_managerISt5_BindIFSt8functionIFvRKbEEbEEE10_M_managerERSt9_Any_dataRKSA_St18_Manager_operation+0x2c>
      template<typename... _Args>
	explicit _Bind(_Functor&& __f, _Args&&... __args)
	: _M_f(std::move(__f)), _M_bound_args(std::forward<_Args>(__args)...)
	{ }

      _Bind(const _Bind&) = default;
   d8198:	4631      	mov	r1, r6
   d819a:	f7ff ffdd 	bl	d8158 <_ZNSt8functionIFvRKbEEC1ERKS3_>
   d819e:	7c33      	ldrb	r3, [r6, #16]
   d81a0:	742b      	strb	r3, [r5, #16]
	// Clone a function object that is not location-invariant or
	// that cannot fit into an _Any_data structure.
	static void
	_M_clone(_Any_data& __dest, const _Any_data& __source, false_type)
	{
	  __dest._M_access<_Functor*>() =
   d81a2:	6025      	str	r5, [r4, #0]
   d81a4:	e008      	b.n	d81b8 <_ZNSt14_Function_base13_Base_managerISt5_BindIFSt8functionIFvRKbEEbEEE10_M_managerERSt9_Any_dataRKSA_St18_Manager_operation+0x42>

	// Destroying an object located on the heap.
	static void
	_M_destroy(_Any_data& __victim, false_type)
	{
	  delete __victim._M_access<_Functor*>();
   d81a6:	6804      	ldr	r4, [r0, #0]
   d81a8:	b134      	cbz	r4, d81b8 <_ZNSt14_Function_base13_Base_managerISt5_BindIFSt8functionIFvRKbEEbEEE10_M_managerERSt9_Any_dataRKSA_St18_Manager_operation+0x42>
   *  @ingroup functors
   *
   *  Polymorphic function wrapper.
   */
  template<typename _Res, typename... _ArgTypes>
    class function<_Res(_ArgTypes...)>
   d81aa:	4620      	mov	r0, r4
   d81ac:	f7fb fff5 	bl	d419a <_ZNSt14_Function_baseD1Ev>

	// Destroying an object located on the heap.
	static void
	_M_destroy(_Any_data& __victim, false_type)
	{
	  delete __victim._M_access<_Functor*>();
   d81b0:	2114      	movs	r1, #20
   d81b2:	4620      	mov	r0, r4
   d81b4:	f001 fb63 	bl	d987e <_ZdlPvj>
	    case __destroy_functor:
	      _M_destroy(__dest, _Local_storage());
	      break;
	    }
	  return false;
	}
   d81b8:	2000      	movs	r0, #0
   d81ba:	bd70      	pop	{r4, r5, r6, pc}

000d81bc <_ZN8particle6detail14FutureImplBaseIbNS0_13FutureContextEE14invokeCallbackIFvRKbEIRbEEEvRSt6atomicIPSt8functionIT_EEDpOT0_>:
        delete callbackPtr; // Delete old callback
    }

    // Takes a callback from its atomic wrapper and invokes it
    template<typename FunctionT, typename... ArgsT>
    static void invokeCallback(std::atomic<std::function<FunctionT>*>& wrapper, ArgsT&&... args) {
   d81bc:	b5f0      	push	{r4, r5, r6, r7, lr}

      _GLIBCXX_ALWAYS_INLINE __pointer_type
      exchange(__pointer_type __p,
	       memory_order __m = memory_order_seq_cst) noexcept
      {
	return __atomic_exchange_n(&_M_p, __p, __m);
   d81be:	2300      	movs	r3, #0
   d81c0:	b087      	sub	sp, #28
   d81c2:	460c      	mov	r4, r1
   d81c4:	f3bf 8f5f 	dmb	sy
   d81c8:	e850 6f00 	ldrex	r6, [r0]
   d81cc:	e840 3200 	strex	r2, r3, [r0]
   d81d0:	2a00      	cmp	r2, #0
   d81d2:	d1f9      	bne.n	d81c8 <_ZN8particle6detail14FutureImplBaseIbNS0_13FutureContextEE14invokeCallbackIFvRKbEIRbEEEvRSt6atomicIPSt8functionIT_EEDpOT0_+0xc>
   d81d4:	f3bf 8f5f 	dmb	sy
        std::function<FunctionT>* callbackPtr = wrapper.exchange(nullptr, std::memory_order_acq_rel);
        if (callbackPtr) {
   d81d8:	2e00      	cmp	r6, #0
   d81da:	d03f      	beq.n	d825c <_ZN8particle6detail14FutureImplBaseIbNS0_13FutureContextEE14invokeCallbackIFvRKbEIRbEEEvRSt6atomicIPSt8functionIT_EEDpOT0_+0xa0>
        return (application_thread_invoke(callback, data, nullptr) == 0);
    }

    // Returns true if current thread is the application thread
    static bool isApplicationThreadCurrent() {
        return (application_thread_current(nullptr) != 0);
   d81dc:	4618      	mov	r0, r3
   d81de:	f7ff fcbd 	bl	d7b5c <application_thread_current>
    }

    // Invokes std::function in the application context
    template<typename FunctionT, typename... ArgsT>
    static void invokeCallback(const std::function<FunctionT>& callback, ArgsT&&... args) {
        if (ContextT::isApplicationThreadCurrent()) {
   d81e2:	4607      	mov	r7, r0
   d81e4:	b120      	cbz	r0, d81f0 <_ZN8particle6detail14FutureImplBaseIbNS0_13FutureContextEE14invokeCallbackIFvRKbEIRbEEEvRSt6atomicIPSt8functionIT_EEDpOT0_+0x34>
            callback(std::forward<ArgsT>(args)...); // Synchronous call
   d81e6:	4621      	mov	r1, r4
   d81e8:	4630      	mov	r0, r6
   d81ea:	f7ff fe61 	bl	d7eb0 <_ZNKSt8functionIFvRKbEEclES1_>
   d81ee:	e02e      	b.n	d824e <_ZN8particle6detail14FutureImplBaseIbNS0_13FutureContextEE14invokeCallbackIFvRKbEIRbEEEvRSt6atomicIPSt8functionIT_EEDpOT0_+0x92>
	}

     public:
      template<typename... _Args>
	explicit _Bind(const _Functor& __f, _Args&&... __args)
	: _M_f(__f), _M_bound_args(std::forward<_Args>(__args)...)
   d81f0:	4631      	mov	r1, r6
   d81f2:	a801      	add	r0, sp, #4
   d81f4:	f7ff ffb0 	bl	d8158 <_ZNSt8functionIFvRKbEEC1ERKS3_>
      constexpr _Head_base(const _Head_base&) = default;
      constexpr _Head_base(_Head_base&&) = default;

      template<typename _UHead>
        constexpr _Head_base(_UHead&& __h)
	: _M_head_impl(std::forward<_UHead>(__h)) { }
   d81f8:	7823      	ldrb	r3, [r4, #0]
   d81fa:	f88d 3014 	strb.w	r3, [sp, #20]
        } else {
            // Bind all arguments and wrap resulting function into a pointer
            auto callbackPtr = new std::function<void()>(std::bind(callback, std::forward<ArgsT>(args)...));
   d81fe:	2010      	movs	r0, #16
   d8200:	f7fb ff49 	bl	d4096 <_Znwj>
   d8204:	4605      	mov	r5, r0
   d8206:	b1d0      	cbz	r0, d823e <_ZN8particle6detail14FutureImplBaseIbNS0_13FutureContextEE14invokeCallbackIFvRKbEIRbEEEvRSt6atomicIPSt8functionIT_EEDpOT0_+0x82>
	{
	  _Base::_M_init_functor(__functor, std::__addressof(__f.get()));
	}
      };

    _Function_base() : _M_manager(nullptr) { }
   d8208:	6087      	str	r7, [r0, #8]
	_M_init_functor(_Any_data& __functor, _Functor&& __f, true_type)
	{ new (__functor._M_access()) _Functor(std::move(__f)); }

	static void
	_M_init_functor(_Any_data& __functor, _Functor&& __f, false_type)
	{ __functor._M_access<_Functor*>() = new _Functor(std::move(__f)); }
   d820a:	2014      	movs	r0, #20
   d820c:	f7fb ff43 	bl	d4096 <_Znwj>
   d8210:	4604      	mov	r4, r0
   d8212:	b178      	cbz	r0, d8234 <_ZN8particle6detail14FutureImplBaseIbNS0_13FutureContextEE14invokeCallbackIFvRKbEIRbEEEvRSt6atomicIPSt8functionIT_EEDpOT0_+0x78>
	{
	  _Base::_M_init_functor(__functor, std::__addressof(__f.get()));
	}
      };

    _Function_base() : _M_manager(nullptr) { }
   d8214:	6087      	str	r7, [r0, #8]
       *  Swap the targets of @c this function object and @a __f. This
       *  function will not throw an %exception.
       */
      void swap(function& __x)
      {
	std::swap(_M_functor, __x._M_functor);
   d8216:	4601      	mov	r1, r0
   d8218:	a801      	add	r0, sp, #4
   d821a:	f7ff fe29 	bl	d7e70 <_ZSt4swapISt9_Any_dataEvRT_S2_>
#endif
    {
      // concept requirements
      __glibcxx_function_requires(_SGIAssignableConcept<_Tp>)

      _Tp __tmp = _GLIBCXX_MOVE(__a);
   d821e:	9b03      	ldr	r3, [sp, #12]
      __a = _GLIBCXX_MOVE(__b);
   d8220:	68a2      	ldr	r2, [r4, #8]
      __b = _GLIBCXX_MOVE(__tmp);
   d8222:	60a3      	str	r3, [r4, #8]
#endif
    {
      // concept requirements
      __glibcxx_function_requires(_SGIAssignableConcept<_Tp>)

      _Tp __tmp = _GLIBCXX_MOVE(__a);
   d8224:	9b04      	ldr	r3, [sp, #16]
      __a = _GLIBCXX_MOVE(__b);
   d8226:	9203      	str	r2, [sp, #12]
   d8228:	68e2      	ldr	r2, [r4, #12]
      __b = _GLIBCXX_MOVE(__tmp);
   d822a:	60e3      	str	r3, [r4, #12]
   d822c:	f89d 3014 	ldrb.w	r3, [sp, #20]
    {
      // concept requirements
      __glibcxx_function_requires(_SGIAssignableConcept<_Tp>)

      _Tp __tmp = _GLIBCXX_MOVE(__a);
      __a = _GLIBCXX_MOVE(__b);
   d8230:	9204      	str	r2, [sp, #16]
   d8232:	7423      	strb	r3, [r4, #16]
	typedef _Function_handler<_Signature_type, _Functor> _My_handler;

	if (_My_handler::_M_not_empty_function(__f))
	  {
	    _My_handler::_M_init_functor(_M_functor, std::move(__f));
	    _M_invoker = &_My_handler::_M_invoke;
   d8234:	4b0a      	ldr	r3, [pc, #40]	; (d8260 <_ZN8particle6detail14FutureImplBaseIbNS0_13FutureContextEE14invokeCallbackIFvRKbEIRbEEEvRSt6atomicIPSt8functionIT_EEDpOT0_+0xa4>)
   d8236:	60eb      	str	r3, [r5, #12]
	    _M_manager = &_My_handler::_M_manager;
   d8238:	4b0a      	ldr	r3, [pc, #40]	; (d8264 <_ZN8particle6detail14FutureImplBaseIbNS0_13FutureContextEE14invokeCallbackIFvRKbEIRbEEEvRSt6atomicIPSt8functionIT_EEDpOT0_+0xa8>)
	_M_init_functor(_Any_data& __functor, _Functor&& __f, true_type)
	{ new (__functor._M_access()) _Functor(std::move(__f)); }

	static void
	_M_init_functor(_Any_data& __functor, _Functor&& __f, false_type)
	{ __functor._M_access<_Functor*>() = new _Functor(std::move(__f)); }
   d823a:	602c      	str	r4, [r5, #0]

	if (_My_handler::_M_not_empty_function(__f))
	  {
	    _My_handler::_M_init_functor(_M_functor, std::move(__f));
	    _M_invoker = &_My_handler::_M_invoke;
	    _M_manager = &_My_handler::_M_manager;
   d823c:	60ab      	str	r3, [r5, #8]
   *  @ingroup functors
   *
   *  Polymorphic function wrapper.
   */
  template<typename _Res, typename... _ArgTypes>
    class function<_Res(_ArgTypes...)>
   d823e:	a801      	add	r0, sp, #4
   d8240:	f7fb ffab 	bl	d419a <_ZNSt14_Function_baseD1Ev>
        spark_process();
    }

    // Asynchronously invokes a callback in the application context
    static bool invokeApplicationCallback(void (*callback)(void* data), void* data) {
        return (application_thread_invoke(callback, data, nullptr) == 0);
   d8244:	2200      	movs	r2, #0
   d8246:	4629      	mov	r1, r5
   d8248:	4807      	ldr	r0, [pc, #28]	; (d8268 <_ZN8particle6detail14FutureImplBaseIbNS0_13FutureContextEE14invokeCallbackIFvRKbEIRbEEEvRSt6atomicIPSt8functionIT_EEDpOT0_+0xac>)
   d824a:	f7ff fc8f 	bl	d7b6c <application_thread_invoke>
   d824e:	4630      	mov	r0, r6
   d8250:	f7fb ffa3 	bl	d419a <_ZNSt14_Function_baseD1Ev>
    template<typename FunctionT, typename... ArgsT>
    static void invokeCallback(std::atomic<std::function<FunctionT>*>& wrapper, ArgsT&&... args) {
        std::function<FunctionT>* callbackPtr = wrapper.exchange(nullptr, std::memory_order_acq_rel);
        if (callbackPtr) {
            invokeCallback(*callbackPtr, std::forward<ArgsT>(args)...);
            delete callbackPtr;
   d8254:	2110      	movs	r1, #16
   d8256:	4630      	mov	r0, r6
   d8258:	f001 fb11 	bl	d987e <_ZdlPvj>
        }
    }
   d825c:	b007      	add	sp, #28
   d825e:	bdf0      	pop	{r4, r5, r6, r7, pc}
   d8260:	000d7ec3 	.word	0x000d7ec3
   d8264:	000d8177 	.word	0x000d8177
   d8268:	000d7d6b 	.word	0x000d7d6b

000d826c <_ZN12_GLOBAL__N_125publishCompletionCallbackEiPKvPvS2_>:
namespace {

using namespace particle;

#ifndef SPARK_NO_CLOUD
void publishCompletionCallback(int error, const void* data, void* callbackData, void* reserved) {
   d826c:	b530      	push	{r4, r5, lr}
   d826e:	b085      	sub	sp, #20
   d8270:	4604      	mov	r4, r0
   d8272:	460d      	mov	r5, r1
    auto p = Promise<bool>::fromDataPtr(callbackData);
   d8274:	4668      	mov	r0, sp
   d8276:	4611      	mov	r1, r2
   d8278:	f7ff fddc 	bl	d7e34 <_ZN8particle11PromiseBaseIbNS_6detail13FutureContextEE11fromDataPtrEPv>
    if (error != Error::NONE) {
   d827c:	b17c      	cbz	r4, d829e <_ZN12_GLOBAL__N_125publishCompletionCallbackEiPKvPvS2_+0x32>
        p.setError(Error((Error::Type)error, (const char*)data));
   d827e:	b224      	sxth	r4, r4
        type_(type) {
}

inline particle::Error::Error(Type type, const char* msg) :
        msg_(msg ? (const char*)strdup(msg) : nullptr),
        type_(type) {
   d8280:	4628      	mov	r0, r5
   d8282:	b10d      	cbz	r5, d8288 <_ZN12_GLOBAL__N_125publishCompletionCallbackEiPKvPvS2_+0x1c>
   d8284:	f002 f9d6 	bl	da634 <strdup>
   d8288:	9002      	str	r0, [sp, #8]
   d828a:	a902      	add	r1, sp, #8
   d828c:	4668      	mov	r0, sp
   d828e:	f8ad 400c 	strh.w	r4, [sp, #12]
   d8292:	f7ff fe2d 	bl	d7ef0 <_ZN8particle11PromiseBaseIbNS_6detail13FutureContextEE8setErrorENS_5ErrorE>
        Error() {
    swap(*this, error);
}

inline particle::Error::~Error() {
    free((void*)msg_);
   d8296:	9802      	ldr	r0, [sp, #8]
   d8298:	f7ff fd14 	bl	d7cc4 <free>
   d829c:	e01d      	b.n	d82da <_ZN12_GLOBAL__N_125publishCompletionCallbackEiPKvPvS2_+0x6e>
   d829e:	9800      	ldr	r0, [sp, #0]
            onSuccess_(nullptr),
            onError_(nullptr) {
    }

    bool changeState(State state) {
        State s = State::RUNNING; // Expected state
   d82a0:	f88d 4008 	strb.w	r4, [sp, #8]

      bool
      compare_exchange_strong(_Tp& __e, _Tp __i, memory_order __s, 
			      memory_order __f) noexcept
      {
	return __atomic_compare_exchange(&_M_i, &__e, &__i, false, __s, __f);
   d82a4:	f04f 0201 	mov.w	r2, #1
   d82a8:	e8d0 3f4f 	ldrexb	r3, [r0]
   d82ac:	42a3      	cmp	r3, r4
   d82ae:	d103      	bne.n	d82b8 <_ZN12_GLOBAL__N_125publishCompletionCallbackEiPKvPvS2_+0x4c>
   d82b0:	e8c0 2f41 	strexb	r1, r2, [r0]
   d82b4:	2900      	cmp	r1, #0
   d82b6:	d1f7      	bne.n	d82a8 <_ZN12_GLOBAL__N_125publishCompletionCallbackEiPKvPvS2_+0x3c>
   d82b8:	d002      	beq.n	d82c0 <_ZN12_GLOBAL__N_125publishCompletionCallbackEiPKvPvS2_+0x54>
   d82ba:	f88d 3008 	strb.w	r3, [sp, #8]
   d82be:	e00c      	b.n	d82da <_ZN12_GLOBAL__N_125publishCompletionCallbackEiPKvPvS2_+0x6e>
        }
    }

    void setResult(ResultT result) {
        if (this->changeState(State::SUCCEEDED)) {
            new(&result_) ResultT(std::move(result));
   d82c0:	f110 010c 	adds.w	r1, r0, #12
   d82c4:	f04f 0301 	mov.w	r3, #1
   d82c8:	bf18      	it	ne
   d82ca:	7303      	strbne	r3, [r0, #12]
        memory_order __b = __m & __memory_order_mask;
	__glibcxx_assert(__b != memory_order_acquire);
	__glibcxx_assert(__b != memory_order_acq_rel);
	__glibcxx_assert(__b != memory_order_consume);

	__atomic_store_n(&_M_i, __i, __m);
   d82cc:	f3bf 8f5f 	dmb	sy
            this->releaseDone();
            this->invokeCallback(this->onSuccess_, result_);
   d82d0:	3004      	adds	r0, #4
   d82d2:	f800 3c03 	strb.w	r3, [r0, #-3]
   d82d6:	f7ff ff71 	bl	d81bc <_ZN8particle6detail14FutureImplBaseIbNS0_13FutureContextEE14invokeCallbackIFvRKbEIRbEEEvRSt6atomicIPSt8functionIT_EEDpOT0_>
   d82da:	a801      	add	r0, sp, #4
   d82dc:	f7fc fb36 	bl	d494c <_ZNSt14__shared_countILN9__gnu_cxx12_Lock_policyE0EED1Ev>
    } else {
        p.setResult(true);
    }
}
   d82e0:	b005      	add	sp, #20
   d82e2:	bd30      	pop	{r4, r5, pc}

000d82e4 <_ZN5spark13EthernetClass9listeningEv>:
    uint16_t getListenTimeout(void) {
        return network_get_listen_timeout(*this, 0, NULL);
    }

    bool listening(void) {
        return network_listening(*this, 0, NULL);
   d82e4:	2200      	movs	r2, #0
   d82e6:	4611      	mov	r1, r2
   d82e8:	6840      	ldr	r0, [r0, #4]
   d82ea:	f7ff bccb 	b.w	d7c84 <network_listening>

000d82ee <_ZN5spark13EthernetClass16getListenTimeoutEv>:
    void setListenTimeout(uint16_t timeout) {
        network_set_listen_timeout(*this, timeout, NULL);
    }

    uint16_t getListenTimeout(void) {
        return network_get_listen_timeout(*this, 0, NULL);
   d82ee:	2200      	movs	r2, #0
   d82f0:	4611      	mov	r1, r2
   d82f2:	6840      	ldr	r0, [r0, #4]
   d82f4:	f7ff bcd6 	b.w	d7ca4 <network_get_listen_timeout>

000d82f8 <_ZN5spark13EthernetClass16setListenTimeoutEt>:
    void listen(bool begin=true) {
        network_listen(*this, begin ? 0 : 1, NULL);
    }

    void setListenTimeout(uint16_t timeout) {
        network_set_listen_timeout(*this, timeout, NULL);
   d82f8:	2200      	movs	r2, #0
   d82fa:	6840      	ldr	r0, [r0, #4]
   d82fc:	f7ff bcca 	b.w	d7c94 <network_set_listen_timeout>

000d8300 <_ZN5spark13EthernetClass6listenEb>:
    void disconnect() {
        network_disconnect(*this, NETWORK_DISCONNECT_REASON_USER, NULL);
    }

    void listen(bool begin=true) {
        network_listen(*this, begin ? 0 : 1, NULL);
   d8300:	2200      	movs	r2, #0
   d8302:	f081 0101 	eor.w	r1, r1, #1
   d8306:	6840      	ldr	r0, [r0, #4]
   d8308:	f7ff bcb4 	b.w	d7c74 <network_listen>

000d830c <_ZN5spark13EthernetClass3offEv>:
    void on() {
        network_on(*this, 0, 0, NULL);
    }

    void off() {
        network_off(*this, 0, 0, NULL);
   d830c:	2300      	movs	r3, #0
   d830e:	461a      	mov	r2, r3
   d8310:	4619      	mov	r1, r3
   d8312:	6840      	ldr	r0, [r0, #4]
   d8314:	f7ff bca6 	b.w	d7c64 <network_off>

000d8318 <_ZN5spark13EthernetClass2onEv>:
    EthernetClass() :
            NetworkClass(NETWORK_INTERFACE_ETHERNET) {
    }

    void on() {
        network_on(*this, 0, 0, NULL);
   d8318:	2300      	movs	r3, #0
   d831a:	461a      	mov	r2, r3
   d831c:	4619      	mov	r1, r3
   d831e:	6840      	ldr	r0, [r0, #4]
   d8320:	f7ff bc98 	b.w	d7c54 <network_on>

000d8324 <_ZN5spark13EthernetClass5readyEv>:
    bool listening(void) {
        return network_listening(*this, 0, NULL);
    }

    bool ready() {
        return network_ready(*this, 0,  NULL);
   d8324:	2200      	movs	r2, #0
   d8326:	4611      	mov	r1, r2
   d8328:	6840      	ldr	r0, [r0, #4]
   d832a:	f7ff bc8b 	b.w	d7c44 <network_ready>

000d832e <_ZN5spark13EthernetClass10connectingEv>:
    void connect(unsigned flags=0) {
        network_connect(*this, flags, 0, NULL);
    }

    bool connecting(void) {
        return network_connecting(*this, 0, NULL);
   d832e:	2200      	movs	r2, #0
   d8330:	4611      	mov	r1, r2
   d8332:	6840      	ldr	r0, [r0, #4]
   d8334:	f7ff bc76 	b.w	d7c24 <network_connecting>

000d8338 <_ZN5spark13EthernetClass10disconnectEv>:
    }

    void disconnect() {
        network_disconnect(*this, NETWORK_DISCONNECT_REASON_USER, NULL);
   d8338:	2200      	movs	r2, #0
   d833a:	2102      	movs	r1, #2
   d833c:	6840      	ldr	r0, [r0, #4]
   d833e:	f7ff bc79 	b.w	d7c34 <network_disconnect>

000d8342 <_ZN5spark13EthernetClass7connectEj>:
    void off() {
        network_off(*this, 0, 0, NULL);
    }

    void connect(unsigned flags=0) {
        network_connect(*this, flags, 0, NULL);
   d8342:	2300      	movs	r3, #0
   d8344:	461a      	mov	r2, r3
   d8346:	6840      	ldr	r0, [r0, #4]
   d8348:	f7ff bc64 	b.w	d7c14 <network_connect>

000d834c <_GLOBAL__sub_I__ZN5spark8EthernetE>:
    static NetworkClass& from(network_interface_t nif);

    virtual IPAddress resolve(const char* name);

    explicit NetworkClass(network_interface_t iface)
            : iface_(iface) {
   d834c:	4b02      	ldr	r3, [pc, #8]	; (d8358 <_GLOBAL__sub_I__ZN5spark8EthernetE+0xc>)
   d834e:	2203      	movs	r2, #3
   d8350:	605a      	str	r2, [r3, #4]
    }

class EthernetClass : public NetworkClass {
public:
    EthernetClass() :
            NetworkClass(NETWORK_INTERFACE_ETHERNET) {
   d8352:	4a02      	ldr	r2, [pc, #8]	; (d835c <_GLOBAL__sub_I__ZN5spark8EthernetE+0x10>)
   d8354:	601a      	str	r2, [r3, #0]
   d8356:	4770      	bx	lr
   d8358:	2003e374 	.word	0x2003e374
   d835c:	000dbba4 	.word	0x000dbba4

000d8360 <_ZN7TwoWireD1Ev>:
private:
  HAL_I2C_Interface _i2c;

public:
  TwoWire(HAL_I2C_Interface i2c);
  virtual ~TwoWire() {};
   d8360:	4770      	bx	lr

000d8362 <_ZN7TwoWire5writeEPKhj>:

// must be called in:
// slave tx event callback
// or after beginTransmission(address)
size_t TwoWire::write(const uint8_t *data, size_t quantity)
{
   d8362:	b5f8      	push	{r3, r4, r5, r6, r7, lr}
   d8364:	4606      	mov	r6, r0
   d8366:	4615      	mov	r5, r2
   d8368:	460c      	mov	r4, r1
   d836a:	188f      	adds	r7, r1, r2
  // in master/slave transmitter mode
  for(size_t i = 0; i < quantity; ++i)
   d836c:	42bc      	cmp	r4, r7
   d836e:	d006      	beq.n	d837e <_ZN7TwoWire5writeEPKhj+0x1c>
  {
    write(data[i]);
   d8370:	6833      	ldr	r3, [r6, #0]
   d8372:	f814 1b01 	ldrb.w	r1, [r4], #1
   d8376:	689b      	ldr	r3, [r3, #8]
   d8378:	4630      	mov	r0, r6
   d837a:	4798      	blx	r3
// slave tx event callback
// or after beginTransmission(address)
size_t TwoWire::write(const uint8_t *data, size_t quantity)
{
  // in master/slave transmitter mode
  for(size_t i = 0; i < quantity; ++i)
   d837c:	e7f6      	b.n	d836c <_ZN7TwoWire5writeEPKhj+0xa>
  {
    write(data[i]);
  }

  return quantity;
}
   d837e:	4628      	mov	r0, r5
   d8380:	bdf8      	pop	{r3, r4, r5, r6, r7, pc}

000d8382 <_ZN7TwoWire5writeEh>:
// must be called in:
// slave tx event callback
// or after beginTransmission(address)
size_t TwoWire::write(uint8_t data)
{
  return HAL_I2C_Write_Data(_i2c, data, NULL);
   d8382:	2200      	movs	r2, #0
   d8384:	7c00      	ldrb	r0, [r0, #16]
   d8386:	f7ff ba91 	b.w	d78ac <HAL_I2C_Write_Data>

000d838a <_ZN7TwoWire9availableEv>:
// must be called in:
// slave rx event callback
// or after requestFrom(address, numBytes)
int TwoWire::available(void)
{
  return HAL_I2C_Available_Data(_i2c, NULL);
   d838a:	2100      	movs	r1, #0
   d838c:	7c00      	ldrb	r0, [r0, #16]
   d838e:	f7ff ba95 	b.w	d78bc <HAL_I2C_Available_Data>

000d8392 <_ZN7TwoWire4readEv>:
// must be called in:
// slave rx event callback
// or after requestFrom(address, numBytes)
int TwoWire::read(void)
{
  return HAL_I2C_Read_Data(_i2c, NULL);
   d8392:	2100      	movs	r1, #0
   d8394:	7c00      	ldrb	r0, [r0, #16]
   d8396:	f7ff ba99 	b.w	d78cc <HAL_I2C_Read_Data>

000d839a <_ZN7TwoWire4peekEv>:
// must be called in:
// slave rx event callback
// or after requestFrom(address, numBytes)
int TwoWire::peek(void)
{
  return HAL_I2C_Peek_Data(_i2c, NULL);
   d839a:	2100      	movs	r1, #0
   d839c:	7c00      	ldrb	r0, [r0, #16]
   d839e:	f7ff ba9d 	b.w	d78dc <HAL_I2C_Peek_Data>

000d83a2 <_ZN7TwoWire5flushEv>:
}

void TwoWire::flush(void)
{
  HAL_I2C_Flush_Data(_i2c, NULL);
   d83a2:	2100      	movs	r1, #0
   d83a4:	7c00      	ldrb	r0, [r0, #16]
   d83a6:	f7ff baa1 	b.w	d78ec <HAL_I2C_Flush_Data>

000d83aa <_ZN7TwoWireD0Ev>:
   d83aa:	b510      	push	{r4, lr}
   d83ac:	2114      	movs	r1, #20
   d83ae:	4604      	mov	r4, r0
   d83b0:	f001 fa65 	bl	d987e <_ZdlPvj>
   d83b4:	4620      	mov	r0, r4
   d83b6:	bd10      	pop	{r4, pc}

000d83b8 <_ZN7TwoWireC1E17HAL_I2C_Interface>:
#include "i2c_hal.h"
#include "spark_wiring_thread.h"

// Constructors ////////////////////////////////////////////////////////////////

TwoWire::TwoWire(HAL_I2C_Interface i2c)
   d83b8:	b510      	push	{r4, lr}
   d83ba:	4604      	mov	r4, r0
    virtual int available() = 0;
    virtual int read() = 0;
    virtual int peek() = 0;
    virtual void flush() = 0;

    Stream() {_timeout=1000;}
   d83bc:	f44f 737a 	mov.w	r3, #1000	; 0x3e8
   d83c0:	4608      	mov	r0, r1
   d83c2:	60a3      	str	r3, [r4, #8]
  protected:
    void setWriteError(int err = 1) { write_error = err; }
    size_t printf_impl(bool newline, const char* format, ...);

  public:
    Print() : write_error(0) {}
   d83c4:	2100      	movs	r1, #0
   d83c6:	4b04      	ldr	r3, [pc, #16]	; (d83d8 <_ZN7TwoWireC1E17HAL_I2C_Interface+0x20>)
{
  _i2c = i2c;
   d83c8:	7420      	strb	r0, [r4, #16]
   d83ca:	6061      	str	r1, [r4, #4]
#include "i2c_hal.h"
#include "spark_wiring_thread.h"

// Constructors ////////////////////////////////////////////////////////////////

TwoWire::TwoWire(HAL_I2C_Interface i2c)
   d83cc:	6023      	str	r3, [r4, #0]
{
  _i2c = i2c;
  HAL_I2C_Init(_i2c, NULL);
   d83ce:	f7ff fa9d 	bl	d790c <HAL_I2C_Init>

}
   d83d2:	4620      	mov	r0, r4
   d83d4:	bd10      	pop	{r4, pc}
   d83d6:	bf00      	nop
   d83d8:	000dbbd8 	.word	0x000dbbd8

000d83dc <_ZN7TwoWire5beginEv>:
  HAL_I2C_Stretch_Clock(_i2c, stretch, NULL);
}

void TwoWire::begin(void)
{
	HAL_I2C_Begin(_i2c, I2C_MODE_MASTER, 0x00, NULL);
   d83dc:	2300      	movs	r3, #0
   d83de:	461a      	mov	r2, r3
   d83e0:	4619      	mov	r1, r3
   d83e2:	7c00      	ldrb	r0, [r0, #16]
   d83e4:	f7ff ba42 	b.w	d786c <HAL_I2C_Begin>

000d83e8 <_ZN7TwoWire11requestFromEhhh>:
{
	HAL_I2C_End(_i2c, NULL);
}

uint8_t TwoWire::requestFrom(uint8_t address, uint8_t quantity, uint8_t sendStop)
{
   d83e8:	b513      	push	{r0, r1, r4, lr}
  uint8_t result = HAL_I2C_Request_Data(_i2c, address, quantity, sendStop, NULL);
   d83ea:	2400      	movs	r4, #0
   d83ec:	7c00      	ldrb	r0, [r0, #16]
   d83ee:	9400      	str	r4, [sp, #0]
   d83f0:	f7ff fa44 	bl	d787c <HAL_I2C_Request_Data>
  return result;
}
   d83f4:	b2c0      	uxtb	r0, r0
   d83f6:	b002      	add	sp, #8
   d83f8:	bd10      	pop	{r4, pc}

000d83fa <_ZN7TwoWire11requestFromEhh>:

uint8_t TwoWire::requestFrom(uint8_t address, uint8_t quantity)
{
  return requestFrom((uint8_t)address, (uint8_t)quantity, (uint8_t)true);
   d83fa:	2301      	movs	r3, #1
   d83fc:	f7ff bff4 	b.w	d83e8 <_ZN7TwoWire11requestFromEhhh>

000d8400 <_ZN7TwoWire17beginTransmissionEh>:
  return requestFrom((uint8_t)address, (uint8_t)quantity, (uint8_t)sendStop);
}

void TwoWire::beginTransmission(uint8_t address)
{
	HAL_I2C_Begin_Transmission(_i2c, address, NULL);
   d8400:	2200      	movs	r2, #0
   d8402:	7c00      	ldrb	r0, [r0, #16]
   d8404:	f7ff ba42 	b.w	d788c <HAL_I2C_Begin_Transmission>

000d8408 <_ZN7TwoWire15endTransmissionEh>:
//	no call to endTransmission(true) is made. Some I2C
//	devices will behave oddly if they do not see a STOP.
//
uint8_t TwoWire::endTransmission(uint8_t sendStop)
{
	return HAL_I2C_End_Transmission(_i2c, sendStop, NULL);
   d8408:	2200      	movs	r2, #0
   d840a:	7c00      	ldrb	r0, [r0, #16]
   d840c:	f7ff ba46 	b.w	d789c <HAL_I2C_End_Transmission>

000d8410 <_ZN7TwoWire15endTransmissionEv>:
//	This provides backwards compatibility with the original
//	definition, and expected behaviour, of endTransmission
//
uint8_t TwoWire::endTransmission(void)
{
  return endTransmission(true);
   d8410:	2101      	movs	r1, #1
   d8412:	f7ff bff9 	b.w	d8408 <_ZN7TwoWire15endTransmissionEh>

000d8416 <_ZN7TwoWire9isEnabledEv>:
  HAL_I2C_Set_Callback_On_Request(_i2c, function, NULL);
}

bool TwoWire::isEnabled()
{
  return HAL_I2C_Is_Enabled(_i2c, NULL);
   d8416:	2100      	movs	r1, #0
   d8418:	7c00      	ldrb	r0, [r0, #16]
   d841a:	f7ff ba6f 	b.w	d78fc <HAL_I2C_Is_Enabled>

000d841e <_ZN9IPAddressD1Ev>:
    IPAddress(uint8_t first_octet, uint8_t second_octet, uint8_t third_octet, uint8_t fourth_octet);
    IPAddress(uint32_t address);
    IPAddress(const uint8_t* address);
    IPAddress(const HAL_IPAddress& address);

    virtual ~IPAddress() {}
   d841e:	4770      	bx	lr

000d8420 <_ZN9IPAddressD0Ev>:
   d8420:	b510      	push	{r4, lr}
   d8422:	2118      	movs	r1, #24
   d8424:	4604      	mov	r4, r0
   d8426:	f001 fa2a 	bl	d987e <_ZdlPvj>
   d842a:	4620      	mov	r0, r4
   d842c:	bd10      	pop	{r4, pc}

000d842e <_ZNK9IPAddress7printToER5Print>:
#endif // Wiring_IPv6
	return address.ipv4==that.address.ipv4;
}

size_t IPAddress::printTo(Print& p) const
{
   d842e:	b5f0      	push	{r4, r5, r6, r7, lr}
#if Wiring_IPv6
#if HAL_USE_INET_HAL_POSIX
	if (address.v==6) {
   d8430:	7d03      	ldrb	r3, [r0, #20]
   d8432:	2b06      	cmp	r3, #6
#endif // Wiring_IPv6
	return address.ipv4==that.address.ipv4;
}

size_t IPAddress::printTo(Print& p) const
{
   d8434:	b08d      	sub	sp, #52	; 0x34
   d8436:	460e      	mov	r6, r1
   d8438:	f100 0704 	add.w	r7, r0, #4
   d843c:	f04f 0400 	mov.w	r4, #0
#if Wiring_IPv6
#if HAL_USE_INET_HAL_POSIX
	if (address.v==6) {
   d8440:	d002      	beq.n	d8448 <_ZNK9IPAddress7printToER5Print+0x1a>
   d8442:	f100 0508 	add.w	r5, r0, #8
   d8446:	e018      	b.n	d847a <_ZNK9IPAddress7printToER5Print+0x4c>
		char buf[INET6_ADDRSTRLEN+1];
		buf[0] = 0;
   d8448:	ad0c      	add	r5, sp, #48	; 0x30
		inet_inet_ntop(AF_INET6, address.ipv6, buf, sizeof(buf));
   d844a:	4639      	mov	r1, r7
{
#if Wiring_IPv6
#if HAL_USE_INET_HAL_POSIX
	if (address.v==6) {
		char buf[INET6_ADDRSTRLEN+1];
		buf[0] = 0;
   d844c:	f805 4d30 	strb.w	r4, [r5, #-48]!
		inet_inet_ntop(AF_INET6, address.ipv6, buf, sizeof(buf));
   d8450:	232f      	movs	r3, #47	; 0x2f
   d8452:	462a      	mov	r2, r5
   d8454:	200a      	movs	r0, #10
   d8456:	f7ff fa69 	bl	d792c <inet_inet_ntop>
    void clearWriteError() { setWriteError(0); }

    virtual size_t write(uint8_t) = 0;
    size_t write(const char *str) {
      if (str == NULL) return 0;
      return write((const uint8_t *)str, strlen(str));
   d845a:	4628      	mov	r0, r5
   d845c:	f002 f905 	bl	da66a <strlen>
   d8460:	6833      	ldr	r3, [r6, #0]
   d8462:	4602      	mov	r2, r0
   d8464:	68db      	ldr	r3, [r3, #12]
   d8466:	4629      	mov	r1, r5
   d8468:	4630      	mov	r0, r6
   d846a:	4798      	blx	r3
   d846c:	e00f      	b.n	d848e <_ZNK9IPAddress7printToER5Print+0x60>
#endif // HAL_USE_INET_HAL_POSIX
#endif // Wiring_IPv6
    size_t n = 0;
    for (int i = 0; i < 4; i++)
    {
        if (n)
   d846e:	b124      	cbz	r4, d847a <_ZNK9IPAddress7printToER5Print+0x4c>
            n += p.print('.');
   d8470:	212e      	movs	r1, #46	; 0x2e
   d8472:	4630      	mov	r0, r6
   d8474:	f000 f9ac 	bl	d87d0 <_ZN5Print5printEc>
   d8478:	4404      	add	r4, r0
        n += p.print((*this)[i], DEC);
   d847a:	f815 1d01 	ldrb.w	r1, [r5, #-1]!
   d847e:	220a      	movs	r2, #10
   d8480:	4630      	mov	r0, r6
   d8482:	f000 f9ef 	bl	d8864 <_ZN5Print5printEhi>
#else
#pragma message "HAL_USE_INET_HAL_POSIX is required for IPv6 support in IPAddress::printTo()"
#endif // HAL_USE_INET_HAL_POSIX
#endif // Wiring_IPv6
    size_t n = 0;
    for (int i = 0; i < 4; i++)
   d8486:	42bd      	cmp	r5, r7
    {
        if (n)
            n += p.print('.');
        n += p.print((*this)[i], DEC);
   d8488:	4404      	add	r4, r0
#else
#pragma message "HAL_USE_INET_HAL_POSIX is required for IPv6 support in IPAddress::printTo()"
#endif // HAL_USE_INET_HAL_POSIX
#endif // Wiring_IPv6
    size_t n = 0;
    for (int i = 0; i < 4; i++)
   d848a:	d1f0      	bne.n	d846e <_ZNK9IPAddress7printToER5Print+0x40>
    {
        if (n)
            n += p.print('.');
        n += p.print((*this)[i], DEC);
   d848c:	4620      	mov	r0, r4
    }
    return n;
}
   d848e:	b00d      	add	sp, #52	; 0x34
   d8490:	bdf0      	pop	{r4, r5, r6, r7, pc}
	...

000d8494 <_ZN9IPAddressC1Ev>:

#if HAL_USE_INET_HAL_POSIX
#include <arpa/inet.h>
#endif // HAL_USE_INET_HAL_POSIX

IPAddress::IPAddress()
   d8494:	b510      	push	{r4, lr}
   d8496:	4b05      	ldr	r3, [pc, #20]	; (d84ac <_ZN9IPAddressC1Ev+0x18>)
   d8498:	4604      	mov	r4, r0
        return address;
    }

    virtual size_t printTo(Print& p) const;

    void clear() { memset(&address, 0, sizeof (address)); }
   d849a:	2211      	movs	r2, #17
   d849c:	f840 3b04 	str.w	r3, [r0], #4
   d84a0:	2100      	movs	r1, #0
   d84a2:	f002 f884 	bl	da5ae <memset>
{
    clear();
}
   d84a6:	4620      	mov	r0, r4
   d84a8:	bd10      	pop	{r4, pc}
   d84aa:	bf00      	nop
   d84ac:	000dbc00 	.word	0x000dbc00

000d84b0 <_ZN9IPAddressC1ERK16_HAL_IPAddress_t>:

IPAddress::IPAddress(const HAL_IPAddress& address)
   d84b0:	4603      	mov	r3, r0
   d84b2:	4a07      	ldr	r2, [pc, #28]	; (d84d0 <_ZN9IPAddressC1ERK16_HAL_IPAddress_t+0x20>)
   d84b4:	b510      	push	{r4, lr}
   d84b6:	f843 2b04 	str.w	r2, [r3], #4
{
    memcpy(&this->address, &address, sizeof(address));
   d84ba:	f101 0210 	add.w	r2, r1, #16
   d84be:	f851 4b04 	ldr.w	r4, [r1], #4
   d84c2:	f843 4b04 	str.w	r4, [r3], #4
   d84c6:	4291      	cmp	r1, r2
   d84c8:	d1f9      	bne.n	d84be <_ZN9IPAddressC1ERK16_HAL_IPAddress_t+0xe>
   d84ca:	780a      	ldrb	r2, [r1, #0]
   d84cc:	701a      	strb	r2, [r3, #0]
}
   d84ce:	bd10      	pop	{r4, pc}
   d84d0:	000dbc00 	.word	0x000dbc00

000d84d4 <_ZNK9IPAddresscvbEv>:
{
    *this = address;
}

IPAddress::operator bool() const
{
   d84d4:	7d03      	ldrb	r3, [r0, #20]
#if Wiring_IPv6
    if (version() == 4) {
   d84d6:	2b04      	cmp	r3, #4
   d84d8:	d101      	bne.n	d84de <_ZNK9IPAddresscvbEv+0xa>
        return address.ipv4 != 0;
   d84da:	6840      	ldr	r0, [r0, #4]
   d84dc:	e008      	b.n	d84f0 <_ZNK9IPAddresscvbEv+0x1c>
    } else if (version() == 6) {
   d84de:	2b06      	cmp	r3, #6
   d84e0:	d10a      	bne.n	d84f8 <_ZNK9IPAddresscvbEv+0x24>
        return address.ipv6[0] != 0 && address.ipv6[1] != 0 && address.ipv6[2] != 0 && address.ipv6[3] != 0;
   d84e2:	6843      	ldr	r3, [r0, #4]
   d84e4:	b153      	cbz	r3, d84fc <_ZNK9IPAddresscvbEv+0x28>
   d84e6:	6883      	ldr	r3, [r0, #8]
   d84e8:	b143      	cbz	r3, d84fc <_ZNK9IPAddresscvbEv+0x28>
   d84ea:	68c3      	ldr	r3, [r0, #12]
   d84ec:	b133      	cbz	r3, d84fc <_ZNK9IPAddresscvbEv+0x28>
   d84ee:	6900      	ldr	r0, [r0, #16]
   d84f0:	3000      	adds	r0, #0
   d84f2:	bf18      	it	ne
   d84f4:	2001      	movne	r0, #1
   d84f6:	4770      	bx	lr
   d84f8:	2000      	movs	r0, #0
   d84fa:	4770      	bx	lr
   d84fc:	4618      	mov	r0, r3
        return false;
    }
#else
    return address.ipv4!=0;
#endif
}
   d84fe:	4770      	bx	lr

000d8500 <_ZN9IPAddress8set_ipv4Ehhhh>:

void IPAddress::set_ipv4(uint8_t b0, uint8_t b1, uint8_t b2, uint8_t b3)
{
   d8500:	b510      	push	{r4, lr}
    address.ipv4 = b0<<24 | b1 << 16 | b2 << 8 | b3;
   d8502:	f89d 4008 	ldrb.w	r4, [sp, #8]
   d8506:	ea44 2303 	orr.w	r3, r4, r3, lsl #8
   d850a:	ea43 4202 	orr.w	r2, r3, r2, lsl #16
   d850e:	ea42 6101 	orr.w	r1, r2, r1, lsl #24
        return &address;
    }

    inline void setVersion(uint8_t version) {
#if HAL_IPv6
        address.v = version;
   d8512:	2304      	movs	r3, #4
   d8514:	6041      	str	r1, [r0, #4]
   d8516:	7503      	strb	r3, [r0, #20]
   d8518:	bd10      	pop	{r4, pc}
	...

000d851c <_ZN9IPAddressC1Ehhhh>:
{
    memcpy(&this->address, &address, sizeof(address));
}


IPAddress::IPAddress(uint8_t first_octet, uint8_t second_octet, uint8_t third_octet, uint8_t fourth_octet)
   d851c:	b537      	push	{r0, r1, r2, r4, r5, lr}
   d851e:	4d04      	ldr	r5, [pc, #16]	; (d8530 <_ZN9IPAddressC1Ehhhh+0x14>)
   d8520:	6005      	str	r5, [r0, #0]
{
    set_ipv4(first_octet, second_octet, third_octet, fourth_octet);
   d8522:	f89d 5018 	ldrb.w	r5, [sp, #24]
   d8526:	9500      	str	r5, [sp, #0]
   d8528:	f7ff ffea 	bl	d8500 <_ZN9IPAddress8set_ipv4Ehhhh>
}
   d852c:	b003      	add	sp, #12
   d852e:	bd30      	pop	{r4, r5, pc}
   d8530:	000dbc00 	.word	0x000dbc00

000d8534 <_ZN9IPAddressaSEPKh>:
    address.ipv4 = b0<<24 | b1 << 16 | b2 << 8 | b3;
    setVersion(4);
}

IPAddress& IPAddress::operator=(const uint8_t* address)
{
   d8534:	b537      	push	{r0, r1, r2, r4, r5, lr}
    set_ipv4(address[0], address[1], address[2], address[3]);
   d8536:	780d      	ldrb	r5, [r1, #0]
   d8538:	788b      	ldrb	r3, [r1, #2]
   d853a:	784a      	ldrb	r2, [r1, #1]
   d853c:	78c9      	ldrb	r1, [r1, #3]
   d853e:	9100      	str	r1, [sp, #0]
   d8540:	4629      	mov	r1, r5
   d8542:	f7ff ffdd 	bl	d8500 <_ZN9IPAddress8set_ipv4Ehhhh>
    return *this;
}
   d8546:	b003      	add	sp, #12
   d8548:	bd30      	pop	{r4, r5, pc}
	...

000d854c <_GLOBAL__sub_I__ZN5spark3LogE>:
    // This handler doesn't support direct logging
}

// spark::Logger
inline spark::Logger::Logger(const char *name) :
        name_(name) {
   d854c:	4b01      	ldr	r3, [pc, #4]	; (d8554 <_GLOBAL__sub_I__ZN5spark3LogE+0x8>)
   d854e:	4a02      	ldr	r2, [pc, #8]	; (d8558 <_GLOBAL__sub_I__ZN5spark3LogE+0xc>)
   d8550:	601a      	str	r2, [r3, #0]
   d8552:	4770      	bx	lr
   d8554:	2003e37c 	.word	0x2003e37c
   d8558:	000dbcbc 	.word	0x000dbcbc

000d855c <_ZN5spark9MeshClass9listeningEv>:
    uint16_t getListenTimeout(void) {
        return network_get_listen_timeout(*this, 0, NULL);
    }

    bool listening(void) {
        return network_listening(*this, 0, NULL);
   d855c:	2200      	movs	r2, #0
   d855e:	4611      	mov	r1, r2
   d8560:	6840      	ldr	r0, [r0, #4]
   d8562:	f7ff bb8f 	b.w	d7c84 <network_listening>

000d8566 <_ZN5spark9MeshClass16getListenTimeoutEv>:
    void setListenTimeout(uint16_t timeout) {
        network_set_listen_timeout(*this, timeout, NULL);
    }

    uint16_t getListenTimeout(void) {
        return network_get_listen_timeout(*this, 0, NULL);
   d8566:	2200      	movs	r2, #0
   d8568:	4611      	mov	r1, r2
   d856a:	6840      	ldr	r0, [r0, #4]
   d856c:	f7ff bb9a 	b.w	d7ca4 <network_get_listen_timeout>

000d8570 <_ZN5spark9MeshClass16setListenTimeoutEt>:
    void listen(bool begin=true) {
        network_listen(*this, begin ? 0 : 1, NULL);
    }

    void setListenTimeout(uint16_t timeout) {
        network_set_listen_timeout(*this, timeout, NULL);
   d8570:	2200      	movs	r2, #0
   d8572:	6840      	ldr	r0, [r0, #4]
   d8574:	f7ff bb8e 	b.w	d7c94 <network_set_listen_timeout>

000d8578 <_ZN5spark9MeshClass6listenEb>:
    void disconnect() {
        network_disconnect(*this, NETWORK_DISCONNECT_REASON_USER, NULL);
    }

    void listen(bool begin=true) {
        network_listen(*this, begin ? 0 : 1, NULL);
   d8578:	2200      	movs	r2, #0
   d857a:	f081 0101 	eor.w	r1, r1, #1
   d857e:	6840      	ldr	r0, [r0, #4]
   d8580:	f7ff bb78 	b.w	d7c74 <network_listen>

000d8584 <_ZN5spark9MeshClass3offEv>:
    void on() {
        network_on(*this, 0, 0, NULL);
    }

    void off() {
        network_off(*this, 0, 0, NULL);
   d8584:	2300      	movs	r3, #0
   d8586:	461a      	mov	r2, r3
   d8588:	4619      	mov	r1, r3
   d858a:	6840      	ldr	r0, [r0, #4]
   d858c:	f7ff bb6a 	b.w	d7c64 <network_off>

000d8590 <_ZN5spark9MeshClass2onEv>:
    MeshClass() :
            NetworkClass(NETWORK_INTERFACE_MESH) {
    }

    void on() {
        network_on(*this, 0, 0, NULL);
   d8590:	2300      	movs	r3, #0
   d8592:	461a      	mov	r2, r3
   d8594:	4619      	mov	r1, r3
   d8596:	6840      	ldr	r0, [r0, #4]
   d8598:	f7ff bb5c 	b.w	d7c54 <network_on>

000d859c <_ZN5spark9MeshClass5readyEv>:
    bool listening(void) {
        return network_listening(*this, 0, NULL);
    }

    bool ready() {
        return network_ready(*this, 0,  NULL);
   d859c:	2200      	movs	r2, #0
   d859e:	4611      	mov	r1, r2
   d85a0:	6840      	ldr	r0, [r0, #4]
   d85a2:	f7ff bb4f 	b.w	d7c44 <network_ready>

000d85a6 <_ZN5spark9MeshClass10connectingEv>:
    void connect(unsigned flags=0) {
        network_connect(*this, flags, 0, NULL);
    }

    bool connecting(void) {
        return network_connecting(*this, 0, NULL);
   d85a6:	2200      	movs	r2, #0
   d85a8:	4611      	mov	r1, r2
   d85aa:	6840      	ldr	r0, [r0, #4]
   d85ac:	f7ff bb3a 	b.w	d7c24 <network_connecting>

000d85b0 <_ZN5spark9MeshClass10disconnectEv>:
    }

    void disconnect() {
        network_disconnect(*this, NETWORK_DISCONNECT_REASON_USER, NULL);
   d85b0:	2200      	movs	r2, #0
   d85b2:	2102      	movs	r1, #2
   d85b4:	6840      	ldr	r0, [r0, #4]
   d85b6:	f7ff bb3d 	b.w	d7c34 <network_disconnect>

000d85ba <_ZN5spark9MeshClass7connectEj>:
    void off() {
        network_off(*this, 0, 0, NULL);
    }

    void connect(unsigned flags=0) {
        network_connect(*this, flags, 0, NULL);
   d85ba:	2300      	movs	r3, #0
   d85bc:	461a      	mov	r2, r3
   d85be:	6840      	ldr	r0, [r0, #4]
   d85c0:	f7ff bb28 	b.w	d7c14 <network_connect>

000d85c4 <_ZNKSt14default_deleteI3UDPEclEPS0_.isra.10.constprop.15>:
      {
	static_assert(!is_void<_Tp>::value,
		      "can't delete pointer to incomplete type");
	static_assert(sizeof(_Tp)>0,
		      "can't delete pointer to incomplete type");
	delete __ptr;
   d85c4:	b110      	cbz	r0, d85cc <_ZNKSt14default_deleteI3UDPEclEPS0_.isra.10.constprop.15+0x8>
   d85c6:	6803      	ldr	r3, [r0, #0]
   d85c8:	685b      	ldr	r3, [r3, #4]
   d85ca:	4718      	bx	r3
   d85cc:	4770      	bx	lr
	...

000d85d0 <_ZN5spark9MeshClassD1Ev>:
     * Pull data from the socket and handle as required.
     */
    int poll();
};

class MeshClass : public NetworkClass, public MeshPublish {
   d85d0:	b538      	push	{r3, r4, r5, lr}
   d85d2:	4b0c      	ldr	r3, [pc, #48]	; (d8604 <_ZN5spark9MeshClassD1Ev+0x34>)
   d85d4:	6003      	str	r3, [r0, #0]
   d85d6:	4604      	mov	r4, r0

      /// Destructor, invokes the deleter if the stored pointer is not null.
      ~unique_ptr()
      {
	auto& __ptr = std::get<0>(_M_t);
	if (__ptr != nullptr)
   d85d8:	f8d0 01cc 	ldr.w	r0, [r0, #460]	; 0x1cc
   d85dc:	b108      	cbz	r0, d85e2 <_ZN5spark9MeshClassD1Ev+0x12>
      void
      operator()(_Tp* __ptr) const
      {
	static_assert(sizeof(_Tp)>0,
		      "can't delete pointer to incomplete type");
	delete [] __ptr;
   d85de:	f7fb fd5e 	bl	d409e <_ZdaPv>

      /// Destructor, invokes the deleter if the stored pointer is not null.
      ~unique_ptr() noexcept
      {
	auto& __ptr = std::get<0>(_M_t);
	if (__ptr != nullptr)
   d85e2:	f8d4 51c4 	ldr.w	r5, [r4, #452]	; 0x1c4
   d85e6:	b135      	cbz	r5, d85f6 <_ZN5spark9MeshClassD1Ev+0x26>
      {
	static_assert(!is_void<_Tp>::value,
		      "can't delete pointer to incomplete type");
	static_assert(sizeof(_Tp)>0,
		      "can't delete pointer to incomplete type");
	delete __ptr;
   d85e8:	4628      	mov	r0, r5
   d85ea:	f7fb fdf2 	bl	d41d2 <_ZN6ThreadD1Ev>
   d85ee:	2104      	movs	r1, #4
   d85f0:	4628      	mov	r0, r5
   d85f2:	f001 f944 	bl	d987e <_ZdlPvj>

      /// Destructor, invokes the deleter if the stored pointer is not null.
      ~unique_ptr() noexcept
      {
	auto& __ptr = std::get<0>(_M_t);
	if (__ptr != nullptr)
   d85f6:	68a0      	ldr	r0, [r4, #8]
   d85f8:	b108      	cbz	r0, d85fe <_ZN5spark9MeshClassD1Ev+0x2e>
	  get_deleter()(__ptr);
   d85fa:	f7ff ffe3 	bl	d85c4 <_ZNKSt14default_deleteI3UDPEclEPS0_.isra.10.constprop.15>
   d85fe:	4620      	mov	r0, r4
   d8600:	bd38      	pop	{r3, r4, r5, pc}
   d8602:	bf00      	nop
   d8604:	000dbcf0 	.word	0x000dbcf0

000d8608 <_GLOBAL__sub_I__ZN5spark9mesh_loopEv>:

    return addr;
}

MeshClass Mesh;
} // namespace spark
   d8608:	b538      	push	{r3, r4, r5, lr}
   d860a:	4c0d      	ldr	r4, [pc, #52]	; (d8640 <_GLOBAL__sub_I__ZN5spark9mesh_loopEv+0x38>)
   d860c:	4b0d      	ldr	r3, [pc, #52]	; (d8644 <_GLOBAL__sub_I__ZN5spark9mesh_loopEv+0x3c>)
   d860e:	6023      	str	r3, [r4, #0]

  template<std::size_t _Idx, typename _Head>
    struct _Head_base<_Idx, _Head, false>
    {
      constexpr _Head_base()
      : _M_head_impl() { }
   d8610:	2500      	movs	r5, #0
   d8612:	2302      	movs	r3, #2
   d8614:	f504 70e4 	add.w	r0, r4, #456	; 0x1c8
   d8618:	6063      	str	r3, [r4, #4]
   d861a:	60a5      	str	r5, [r4, #8]
   d861c:	f8c4 51c4 	str.w	r5, [r4, #452]	; 0x1c4
    /**
     * Creates a shared mutex.
     */
    RecursiveMutex(os_mutex_recursive_t handle) : handle_(handle) {}

    RecursiveMutex() : handle_(nullptr)
   d8620:	f8c4 51c8 	str.w	r5, [r4, #456]	; 0x1c8
    {
        os_mutex_recursive_create(&handle_);
   d8624:	f7ff f89a 	bl	d775c <os_mutex_recursive_create>
public:
    MeshClass() :
            NetworkClass(NETWORK_INTERFACE_MESH) {
   d8628:	4b07      	ldr	r3, [pc, #28]	; (d8648 <_GLOBAL__sub_I__ZN5spark9mesh_loopEv+0x40>)
   d862a:	f8c4 51cc 	str.w	r5, [r4, #460]	; 0x1cc
   d862e:	6023      	str	r3, [r4, #0]
    }

    return addr;
}

MeshClass Mesh;
   d8630:	4620      	mov	r0, r4
   d8632:	4a06      	ldr	r2, [pc, #24]	; (d864c <_GLOBAL__sub_I__ZN5spark9mesh_loopEv+0x44>)
   d8634:	4906      	ldr	r1, [pc, #24]	; (d8650 <_GLOBAL__sub_I__ZN5spark9mesh_loopEv+0x48>)
} // namespace spark
   d8636:	e8bd 4038 	ldmia.w	sp!, {r3, r4, r5, lr}
    }

    return addr;
}

MeshClass Mesh;
   d863a:	f001 b91b 	b.w	d9874 <__aeabi_atexit>
   d863e:	bf00      	nop
   d8640:	2003e380 	.word	0x2003e380
   d8644:	000dbd24 	.word	0x000dbd24
   d8648:	000dbcf0 	.word	0x000dbcf0
   d864c:	2003dc3c 	.word	0x2003dc3c
   d8650:	000d85d1 	.word	0x000d85d1

000d8654 <_ZN5spark12NetworkClass7connectEj>:
        return Network;
    }
}

void NetworkClass::connect(unsigned flags) {
    network_connect(*this, flags, 0, nullptr);
   d8654:	2300      	movs	r3, #0
   d8656:	461a      	mov	r2, r3
   d8658:	6840      	ldr	r0, [r0, #4]
   d865a:	f7ff badb 	b.w	d7c14 <network_connect>

000d865e <_ZN5spark12NetworkClass10disconnectEv>:
}

void NetworkClass::disconnect() {
    network_disconnect(*this, NETWORK_DISCONNECT_REASON_USER, nullptr);
   d865e:	2200      	movs	r2, #0
   d8660:	2102      	movs	r1, #2
   d8662:	6840      	ldr	r0, [r0, #4]
   d8664:	f7ff bae6 	b.w	d7c34 <network_disconnect>

000d8668 <_ZN5spark12NetworkClass10connectingEv>:
}

bool NetworkClass::connecting() {
    return network_connecting(*this, 0, nullptr);
   d8668:	2200      	movs	r2, #0
   d866a:	4611      	mov	r1, r2
   d866c:	6840      	ldr	r0, [r0, #4]
   d866e:	f7ff bad9 	b.w	d7c24 <network_connecting>

000d8672 <_ZN5spark12NetworkClass5readyEv>:
}

bool NetworkClass::ready() {
    return network_ready(*this, 0, nullptr);
   d8672:	2200      	movs	r2, #0
   d8674:	4611      	mov	r1, r2
   d8676:	6840      	ldr	r0, [r0, #4]
   d8678:	f7ff bae4 	b.w	d7c44 <network_ready>

000d867c <_ZN5spark12NetworkClass2onEv>:
}

void NetworkClass::on() {
    network_on(*this, 0, 0, nullptr);
   d867c:	2300      	movs	r3, #0
   d867e:	461a      	mov	r2, r3
   d8680:	4619      	mov	r1, r3
   d8682:	6840      	ldr	r0, [r0, #4]
   d8684:	f7ff bae6 	b.w	d7c54 <network_on>

000d8688 <_ZN5spark12NetworkClass3offEv>:
}

void NetworkClass::off() {
    network_off(*this, 0, 0, nullptr);
   d8688:	2300      	movs	r3, #0
   d868a:	461a      	mov	r2, r3
   d868c:	4619      	mov	r1, r3
   d868e:	6840      	ldr	r0, [r0, #4]
   d8690:	f7ff bae8 	b.w	d7c64 <network_off>

000d8694 <_ZN5spark12NetworkClass6listenEb>:
}

void NetworkClass::listen(bool begin) {
    network_listen(*this, begin ? 0 : 1, nullptr);
   d8694:	2200      	movs	r2, #0
   d8696:	f081 0101 	eor.w	r1, r1, #1
   d869a:	6840      	ldr	r0, [r0, #4]
   d869c:	f7ff baea 	b.w	d7c74 <network_listen>

000d86a0 <_ZN5spark12NetworkClass16setListenTimeoutEt>:
}

void NetworkClass::setListenTimeout(uint16_t timeout) {
    network_set_listen_timeout(*this, timeout, nullptr);
   d86a0:	2200      	movs	r2, #0
   d86a2:	6840      	ldr	r0, [r0, #4]
   d86a4:	f7ff baf6 	b.w	d7c94 <network_set_listen_timeout>

000d86a8 <_ZN5spark12NetworkClass16getListenTimeoutEv>:
}

uint16_t NetworkClass::getListenTimeout() {
    return network_get_listen_timeout(*this, 0, nullptr);
   d86a8:	2200      	movs	r2, #0
   d86aa:	4611      	mov	r1, r2
   d86ac:	6840      	ldr	r0, [r0, #4]
   d86ae:	f7ff baf9 	b.w	d7ca4 <network_get_listen_timeout>

000d86b2 <_ZN5spark12NetworkClass9listeningEv>:
}

bool NetworkClass::listening() {
    return network_listening(*this, 0, nullptr);
   d86b2:	2200      	movs	r2, #0
   d86b4:	4611      	mov	r1, r2
   d86b6:	6840      	ldr	r0, [r0, #4]
   d86b8:	f7ff bae4 	b.w	d7c84 <network_listening>

000d86bc <_ZN5spark12NetworkClass7resolveEPKc>:
}

IPAddress NetworkClass::resolve(const char* name) {
   d86bc:	e92d 43f0 	stmdb	sp!, {r4, r5, r6, r7, r8, r9, lr}
    IPAddress addr;
#if HAL_USE_INET_HAL_POSIX
    struct addrinfo *ai = nullptr;
   d86c0:	2400      	movs	r4, #0

bool NetworkClass::listening() {
    return network_listening(*this, 0, nullptr);
}

IPAddress NetworkClass::resolve(const char* name) {
   d86c2:	b095      	sub	sp, #84	; 0x54
   d86c4:	4616      	mov	r6, r2
   d86c6:	460d      	mov	r5, r1
   d86c8:	4607      	mov	r7, r0
    IPAddress addr;
   d86ca:	f7ff fee3 	bl	d8494 <_ZN9IPAddressC1Ev>
#if HAL_USE_INET_HAL_POSIX
    struct addrinfo *ai = nullptr;
    struct addrinfo hints = {};
   d86ce:	4621      	mov	r1, r4
   d86d0:	2220      	movs	r2, #32
   d86d2:	a80c      	add	r0, sp, #48	; 0x30
}

IPAddress NetworkClass::resolve(const char* name) {
    IPAddress addr;
#if HAL_USE_INET_HAL_POSIX
    struct addrinfo *ai = nullptr;
   d86d4:	9400      	str	r4, [sp, #0]
    struct addrinfo hints = {};
   d86d6:	f001 ff6a 	bl	da5ae <memset>
    hints.ai_flags = AI_ADDRCONFIG;
   d86da:	2340      	movs	r3, #64	; 0x40
   d86dc:	930c      	str	r3, [sp, #48]	; 0x30
    hints.ai_family = AF_UNSPEC;
    const int r = getaddrinfo(name, nullptr, &hints, &ai);
   d86de:	4621      	mov	r1, r4
   d86e0:	466b      	mov	r3, sp
   d86e2:	aa0c      	add	r2, sp, #48	; 0x30
   d86e4:	4630      	mov	r0, r6
   d86e6:	f7ff f941 	bl	d796c <netdb_getaddrinfo>
    if (!r) {
   d86ea:	4604      	mov	r4, r0
   d86ec:	2800      	cmp	r0, #0
   d86ee:	d144      	bne.n	d877a <_ZN5spark12NetworkClass7resolveEPKc+0xbe>
        bool ok = false;
        // This is not really needed if AI_ADDRCONFIG is properly supported
        bool ipv4 = network_ready(*this, NETWORK_READY_TYPE_IPV4, nullptr);
   d86f0:	4602      	mov	r2, r0
   d86f2:	2101      	movs	r1, #1
   d86f4:	6868      	ldr	r0, [r5, #4]
   d86f6:	f7ff faa5 	bl	d7c44 <network_ready>
        bool ipv6 = network_ready(*this, NETWORK_READY_TYPE_IPV6, nullptr);
   d86fa:	2102      	movs	r1, #2
    hints.ai_family = AF_UNSPEC;
    const int r = getaddrinfo(name, nullptr, &hints, &ai);
    if (!r) {
        bool ok = false;
        // This is not really needed if AI_ADDRCONFIG is properly supported
        bool ipv4 = network_ready(*this, NETWORK_READY_TYPE_IPV4, nullptr);
   d86fc:	4680      	mov	r8, r0
        bool ipv6 = network_ready(*this, NETWORK_READY_TYPE_IPV6, nullptr);
   d86fe:	4622      	mov	r2, r4
   d8700:	6868      	ldr	r0, [r5, #4]
   d8702:	f7ff fa9f 	bl	d7c44 <network_ready>
        for (auto cur = ai; cur != nullptr && !ok; cur = cur->ai_next) {
   d8706:	9e00      	ldr	r6, [sp, #0]
    const int r = getaddrinfo(name, nullptr, &hints, &ai);
    if (!r) {
        bool ok = false;
        // This is not really needed if AI_ADDRCONFIG is properly supported
        bool ipv4 = network_ready(*this, NETWORK_READY_TYPE_IPV4, nullptr);
        bool ipv6 = network_ready(*this, NETWORK_READY_TYPE_IPV6, nullptr);
   d8708:	4681      	mov	r9, r0
    struct addrinfo hints = {};
    hints.ai_flags = AI_ADDRCONFIG;
    hints.ai_family = AF_UNSPEC;
    const int r = getaddrinfo(name, nullptr, &hints, &ai);
    if (!r) {
        bool ok = false;
   d870a:	4621      	mov	r1, r4
        // This is not really needed if AI_ADDRCONFIG is properly supported
        bool ipv4 = network_ready(*this, NETWORK_READY_TYPE_IPV4, nullptr);
        bool ipv6 = network_ready(*this, NETWORK_READY_TYPE_IPV6, nullptr);
        for (auto cur = ai; cur != nullptr && !ok; cur = cur->ai_next) {
   d870c:	2e00      	cmp	r6, #0
   d870e:	d034      	beq.n	d877a <_ZN5spark12NetworkClass7resolveEPKc+0xbe>
   d8710:	2900      	cmp	r1, #0
   d8712:	d132      	bne.n	d877a <_ZN5spark12NetworkClass7resolveEPKc+0xbe>
            // NOTE: using only the first entry that matches the current state of IPv4/IPv6 connectivity
            switch (cur->ai_family) {
   d8714:	6873      	ldr	r3, [r6, #4]
   d8716:	2b02      	cmp	r3, #2
   d8718:	d002      	beq.n	d8720 <_ZN5spark12NetworkClass7resolveEPKc+0x64>
   d871a:	2b0a      	cmp	r3, #10
   d871c:	d009      	beq.n	d8732 <_ZN5spark12NetworkClass7resolveEPKc+0x76>
   d871e:	e02a      	b.n	d8776 <_ZN5spark12NetworkClass7resolveEPKc+0xba>
                case AF_INET: {
                    if (!ipv4) {
   d8720:	f1b8 0f00 	cmp.w	r8, #0
   d8724:	d027      	beq.n	d8776 <_ZN5spark12NetworkClass7resolveEPKc+0xba>
                        continue;
                    }
                    // NOTE: HAL_IPAddress is little-endian
                    auto in = (struct sockaddr_in*)cur->ai_addr;
                    addr = (const uint8_t*)(&in->sin_addr.s_addr);
   d8726:	6971      	ldr	r1, [r6, #20]
   d8728:	4638      	mov	r0, r7
   d872a:	3104      	adds	r1, #4
   d872c:	f7ff ff02 	bl	d8534 <_ZN9IPAddressaSEPKh>
   d8730:	e020      	b.n	d8774 <_ZN5spark12NetworkClass7resolveEPKc+0xb8>
                    ok = true;
                    break;
                }
                case AF_INET6: {
                    if (!ipv6) {
   d8732:	f1b9 0f00 	cmp.w	r9, #0
   d8736:	d01e      	beq.n	d8776 <_ZN5spark12NetworkClass7resolveEPKc+0xba>
                        continue;
                    }
                    auto in6 = (struct sockaddr_in6*)cur->ai_addr;
   d8738:	6974      	ldr	r4, [r6, #20]
                    HAL_IPAddress a = {};
   d873a:	2211      	movs	r2, #17
   d873c:	a801      	add	r0, sp, #4
   d873e:	f001 ff36 	bl	da5ae <memset>
                    a.v = 6;
   d8742:	2306      	movs	r3, #6
   d8744:	f88d 3014 	strb.w	r3, [sp, #20]
                    memcpy(a.ipv6, in6->sin6_addr.s6_addr, sizeof(a.ipv6));
   d8748:	ad01      	add	r5, sp, #4
   d874a:	f104 0308 	add.w	r3, r4, #8
   d874e:	3418      	adds	r4, #24
   d8750:	6818      	ldr	r0, [r3, #0]
   d8752:	6859      	ldr	r1, [r3, #4]
   d8754:	462a      	mov	r2, r5
   d8756:	c203      	stmia	r2!, {r0, r1}
   d8758:	3308      	adds	r3, #8
   d875a:	42a3      	cmp	r3, r4
   d875c:	4615      	mov	r5, r2
   d875e:	d1f7      	bne.n	d8750 <_ZN5spark12NetworkClass7resolveEPKc+0x94>
                    addr = IPAddress(a);
   d8760:	a901      	add	r1, sp, #4
   d8762:	a806      	add	r0, sp, #24

/**
 * The IP address stored in host order.
 *
 */
class IPAddress : public Printable {
   d8764:	ad07      	add	r5, sp, #28
   d8766:	f7ff fea3 	bl	d84b0 <_ZN9IPAddressC1ERK16_HAL_IPAddress_t>
   d876a:	cd0f      	ldmia	r5!, {r0, r1, r2, r3}
   d876c:	1d3c      	adds	r4, r7, #4
   d876e:	c40f      	stmia	r4!, {r0, r1, r2, r3}
   d8770:	682b      	ldr	r3, [r5, #0]
   d8772:	7023      	strb	r3, [r4, #0]
                    ok = true;
   d8774:	2101      	movs	r1, #1
    if (!r) {
        bool ok = false;
        // This is not really needed if AI_ADDRCONFIG is properly supported
        bool ipv4 = network_ready(*this, NETWORK_READY_TYPE_IPV4, nullptr);
        bool ipv6 = network_ready(*this, NETWORK_READY_TYPE_IPV6, nullptr);
        for (auto cur = ai; cur != nullptr && !ok; cur = cur->ai_next) {
   d8776:	69f6      	ldr	r6, [r6, #28]
   d8778:	e7c8      	b.n	d870c <_ZN5spark12NetworkClass7resolveEPKc+0x50>
                    break;
                }
            }
        }
    }
    freeaddrinfo(ai);
   d877a:	9800      	ldr	r0, [sp, #0]
   d877c:	f7ff f8ee 	bl	d795c <netdb_freeaddrinfo>
    return Cellular.resolve(name);
#endif // Wiring_Cellular

#endif // HAL_USE_INET_HAL_POSIX
    return addr;
}
   d8780:	4638      	mov	r0, r7
   d8782:	b015      	add	sp, #84	; 0x54
   d8784:	e8bd 83f0 	ldmia.w	sp!, {r4, r5, r6, r7, r8, r9, pc}

000d8788 <_GLOBAL__sub_I__ZN5spark7NetworkE>:
   d8788:	4b02      	ldr	r3, [pc, #8]	; (d8794 <_GLOBAL__sub_I__ZN5spark7NetworkE+0xc>)
   d878a:	4a03      	ldr	r2, [pc, #12]	; (d8798 <_GLOBAL__sub_I__ZN5spark7NetworkE+0x10>)
   d878c:	601a      	str	r2, [r3, #0]
   d878e:	2200      	movs	r2, #0
   d8790:	605a      	str	r2, [r3, #4]
   d8792:	4770      	bx	lr
   d8794:	2003e550 	.word	0x2003e550
   d8798:	000dbd24 	.word	0x000dbd24

000d879c <_ZN5Print5writeEPKhj>:

// Public Methods //////////////////////////////////////////////////////////////

/* default implementation: may be overridden */
size_t Print::write(const uint8_t *buffer, size_t size)
{
   d879c:	b5f8      	push	{r3, r4, r5, r6, r7, lr}
   d879e:	4606      	mov	r6, r0
   d87a0:	460d      	mov	r5, r1
   d87a2:	188f      	adds	r7, r1, r2
  size_t n = 0;
   d87a4:	2400      	movs	r4, #0
  while (size--) {
   d87a6:	42bd      	cmp	r5, r7
   d87a8:	d00c      	beq.n	d87c4 <_ZN5Print5writeEPKhj+0x28>
     int chunk = write(*buffer++);
   d87aa:	6833      	ldr	r3, [r6, #0]
   d87ac:	f815 1b01 	ldrb.w	r1, [r5], #1
   d87b0:	689b      	ldr	r3, [r3, #8]
   d87b2:	4630      	mov	r0, r6
   d87b4:	4798      	blx	r3
     if (chunk>=0)
   d87b6:	2800      	cmp	r0, #0
   d87b8:	db01      	blt.n	d87be <_ZN5Print5writeEPKhj+0x22>
         n += chunk;
   d87ba:	4404      	add	r4, r0

/* default implementation: may be overridden */
size_t Print::write(const uint8_t *buffer, size_t size)
{
  size_t n = 0;
  while (size--) {
   d87bc:	e7f3      	b.n	d87a6 <_ZN5Print5writeEPKhj+0xa>
     int chunk = write(*buffer++);
   d87be:	2c00      	cmp	r4, #0
   d87c0:	bf08      	it	eq
   d87c2:	4604      	moveq	r4, r0
             n = chunk;
         break;
     }
  }
  return n;
}
   d87c4:	4620      	mov	r0, r4
   d87c6:	bdf8      	pop	{r3, r4, r5, r6, r7, pc}

000d87c8 <_ZN5Print5printEPKc>:
   d87c8:	b508      	push	{r3, lr}
   d87ca:	f7fe fb37 	bl	d6e3c <_ZN5Print5writeEPKc>
   d87ce:	bd08      	pop	{r3, pc}

000d87d0 <_ZN5Print5printEc>:
  return write(str);
}

size_t Print::print(char c)
{
  return write(c);
   d87d0:	6803      	ldr	r3, [r0, #0]
   d87d2:	689b      	ldr	r3, [r3, #8]
   d87d4:	4718      	bx	r3

000d87d6 <_ZN5Print5printEPK19__FlashStringHelper>:
 {
   return x.printTo(*this);
 }

size_t Print::print(const __FlashStringHelper* str)
{
   d87d6:	b508      	push	{r3, lr}
  return n;
}

size_t Print::print(const char str[])
{
  return write(str);
   d87d8:	f7fe fb30 	bl	d6e3c <_ZN5Print5writeEPKc>
 }

size_t Print::print(const __FlashStringHelper* str)
{
  return print(reinterpret_cast<const char*>(str));
}
   d87dc:	bd08      	pop	{r3, pc}

000d87de <_ZN5Print7printlnEv>:

size_t Print::println(void)
{
   d87de:	b538      	push	{r3, r4, r5, lr}
  size_t n = print('\r');
   d87e0:	210d      	movs	r1, #13
{
  return print(reinterpret_cast<const char*>(str));
}

size_t Print::println(void)
{
   d87e2:	4605      	mov	r5, r0
  size_t n = print('\r');
   d87e4:	f7ff fff4 	bl	d87d0 <_ZN5Print5printEc>
  n += print('\n');
   d87e8:	210a      	movs	r1, #10
  return print(reinterpret_cast<const char*>(str));
}

size_t Print::println(void)
{
  size_t n = print('\r');
   d87ea:	4604      	mov	r4, r0
  n += print('\n');
   d87ec:	4628      	mov	r0, r5
   d87ee:	f7ff ffef 	bl	d87d0 <_ZN5Print5printEc>
  return n;
}
   d87f2:	4420      	add	r0, r4
   d87f4:	bd38      	pop	{r3, r4, r5, pc}

000d87f6 <_ZN5Print7printlnEPKc>:

size_t Print::println(const char c[])
{
   d87f6:	b538      	push	{r3, r4, r5, lr}
   d87f8:	4605      	mov	r5, r0
  return n;
}

size_t Print::print(const char str[])
{
  return write(str);
   d87fa:	f7fe fb1f 	bl	d6e3c <_ZN5Print5writeEPKc>
   d87fe:	4604      	mov	r4, r0
}

size_t Print::println(const char c[])
{
  size_t n = print(c);
  n += println();
   d8800:	4628      	mov	r0, r5
   d8802:	f7ff ffec 	bl	d87de <_ZN5Print7printlnEv>
  return n;
}
   d8806:	4420      	add	r0, r4
   d8808:	bd38      	pop	{r3, r4, r5, pc}

000d880a <_ZN5Print11printNumberEmh>:
  return println(reinterpret_cast<const char*>(str));
}

// Private Methods /////////////////////////////////////////////////////////////

size_t Print::printNumber(unsigned long n, uint8_t base) {
   d880a:	b530      	push	{r4, r5, lr}
   d880c:	b08b      	sub	sp, #44	; 0x2c
   d880e:	460b      	mov	r3, r1
  char buf[8 * sizeof(long) + 1]; // Assumes 8-bit chars plus zero byte.
  char *str = &buf[sizeof(buf) - 1];

  *str = '\0';
   d8810:	2100      	movs	r1, #0
   d8812:	f88d 1024 	strb.w	r1, [sp, #36]	; 0x24

  // prevent crash if called with base == 1
  if (base < 2) base = 10;
   d8816:	2a01      	cmp	r2, #1
   d8818:	bf98      	it	ls
   d881a:	220a      	movls	r2, #10
   d881c:	f10d 0423 	add.w	r4, sp, #35	; 0x23

  do {
    unsigned long m = n;
    n /= base;
   d8820:	fbb3 f5f2 	udiv	r5, r3, r2
    char c = m - base * n;
   d8824:	fb05 3312 	mls	r3, r5, r2, r3
   d8828:	f003 03ff 	and.w	r3, r3, #255	; 0xff
    *--str = c < 10 ? c + '0' : c + 'A' - 10;
   d882c:	2b09      	cmp	r3, #9
   d882e:	bf94      	ite	ls
   d8830:	3330      	addls	r3, #48	; 0x30
   d8832:	3337      	addhi	r3, #55	; 0x37
   d8834:	b2db      	uxtb	r3, r3
   d8836:	4621      	mov	r1, r4
   d8838:	f804 3901 	strb.w	r3, [r4], #-1
   d883c:	462b      	mov	r3, r5
  *str = '\0';

  // prevent crash if called with base == 1
  if (base < 2) base = 10;

  do {
   d883e:	2d00      	cmp	r5, #0
   d8840:	d1ee      	bne.n	d8820 <_ZN5Print11printNumberEmh+0x16>
    n /= base;
    char c = m - base * n;
    *--str = c < 10 ? c + '0' : c + 'A' - 10;
  } while(n);

  return write(str);
   d8842:	f7fe fafb 	bl	d6e3c <_ZN5Print5writeEPKc>
}
   d8846:	b00b      	add	sp, #44	; 0x2c
   d8848:	bd30      	pop	{r4, r5, pc}

000d884a <_ZN5Print5printEmi>:
    return printNumber(n, base);
  }
}

size_t Print::print(unsigned long n, int base)
{
   d884a:	b410      	push	{r4}
  if (base == 0) return write(n);
   d884c:	b92a      	cbnz	r2, d885a <_ZN5Print5printEmi+0x10>
   d884e:	6803      	ldr	r3, [r0, #0]
  else return printNumber(n, base);
}
   d8850:	f85d 4b04 	ldr.w	r4, [sp], #4
  }
}

size_t Print::print(unsigned long n, int base)
{
  if (base == 0) return write(n);
   d8854:	689b      	ldr	r3, [r3, #8]
   d8856:	b2c9      	uxtb	r1, r1
   d8858:	4718      	bx	r3
  else return printNumber(n, base);
   d885a:	b2d2      	uxtb	r2, r2
}
   d885c:	f85d 4b04 	ldr.w	r4, [sp], #4
}

size_t Print::print(unsigned long n, int base)
{
  if (base == 0) return write(n);
  else return printNumber(n, base);
   d8860:	f7ff bfd3 	b.w	d880a <_ZN5Print11printNumberEmh>

000d8864 <_ZN5Print5printEhi>:
  return write(c);
}

size_t Print::print(unsigned char b, int base)
{
  return print((unsigned long) b, base);
   d8864:	f7ff bff1 	b.w	d884a <_ZN5Print5printEmi>

000d8868 <_ZN5Print5printEli>:
{
  return print((unsigned long) n, base);
}

size_t Print::print(long n, int base)
{
   d8868:	e92d 41f0 	stmdb	sp!, {r4, r5, r6, r7, r8, lr}
   d886c:	4607      	mov	r7, r0
   d886e:	460e      	mov	r6, r1
  if (base == 0) {
   d8870:	4615      	mov	r5, r2
   d8872:	b92a      	cbnz	r2, d8880 <_ZN5Print5printEli+0x18>
    return write(n);
   d8874:	6803      	ldr	r3, [r0, #0]
   d8876:	b2c9      	uxtb	r1, r1
   d8878:	689b      	ldr	r3, [r3, #8]
    }
    return printNumber(n, 10);
  } else {
    return printNumber(n, base);
  }
}
   d887a:	e8bd 41f0 	ldmia.w	sp!, {r4, r5, r6, r7, r8, lr}
}

size_t Print::print(long n, int base)
{
  if (base == 0) {
    return write(n);
   d887e:	4718      	bx	r3
  } else if (base == 10) {
   d8880:	2a0a      	cmp	r2, #10
   d8882:	d102      	bne.n	d888a <_ZN5Print5printEli+0x22>
    if (n < 0) {
   d8884:	2900      	cmp	r1, #0
   d8886:	da01      	bge.n	d888c <_ZN5Print5printEli+0x24>
   d8888:	e004      	b.n	d8894 <_ZN5Print5printEli+0x2c>
      n = -n;
      return printNumber(n, 10) + t;
    }
    return printNumber(n, 10);
  } else {
    return printNumber(n, base);
   d888a:	b2d2      	uxtb	r2, r2
  }
}
   d888c:	e8bd 41f0 	ldmia.w	sp!, {r4, r5, r6, r7, r8, lr}
      n = -n;
      return printNumber(n, 10) + t;
    }
    return printNumber(n, 10);
  } else {
    return printNumber(n, base);
   d8890:	f7ff bfbb 	b.w	d880a <_ZN5Print11printNumberEmh>
{
  if (base == 0) {
    return write(n);
  } else if (base == 10) {
    if (n < 0) {
      int t = print('-');
   d8894:	212d      	movs	r1, #45	; 0x2d
   d8896:	f7ff ff9b 	bl	d87d0 <_ZN5Print5printEc>
      n = -n;
      return printNumber(n, 10) + t;
   d889a:	462a      	mov	r2, r5
{
  if (base == 0) {
    return write(n);
  } else if (base == 10) {
    if (n < 0) {
      int t = print('-');
   d889c:	4604      	mov	r4, r0
      n = -n;
      return printNumber(n, 10) + t;
   d889e:	4271      	negs	r1, r6
   d88a0:	4638      	mov	r0, r7
   d88a2:	f7ff ffb2 	bl	d880a <_ZN5Print11printNumberEmh>
   d88a6:	4420      	add	r0, r4
    }
    return printNumber(n, 10);
  } else {
    return printNumber(n, base);
  }
}
   d88a8:	e8bd 81f0 	ldmia.w	sp!, {r4, r5, r6, r7, r8, pc}

000d88ac <_ZN5Print5printEii>:
  return print((unsigned long) b, base);
}

size_t Print::print(int n, int base)
{
  return print((long) n, base);
   d88ac:	f7ff bfdc 	b.w	d8868 <_ZN5Print5printEli>

000d88b0 <_ZN5Print7printlnEii>:
  n += println();
  return n;
}

size_t Print::println(int num, int base)
{
   d88b0:	b538      	push	{r3, r4, r5, lr}
   d88b2:	4605      	mov	r5, r0
  return print((unsigned long) b, base);
}

size_t Print::print(int n, int base)
{
  return print((long) n, base);
   d88b4:	f7ff ffd8 	bl	d8868 <_ZN5Print5printEli>
   d88b8:	4604      	mov	r4, r0
}

size_t Print::println(int num, int base)
{
  size_t n = print(num, base);
  n += println();
   d88ba:	4628      	mov	r0, r5
   d88bc:	f7ff ff8f 	bl	d87de <_ZN5Print7printlnEv>
  return n;
}
   d88c0:	4420      	add	r0, r4
   d88c2:	bd38      	pop	{r3, r4, r5, pc}

000d88c4 <_ZN5Print11printf_implEbPKcz>:

  return n;
}

size_t Print::printf_impl(bool newline, const char* format, ...)
{
   d88c4:	b40c      	push	{r2, r3}
   d88c6:	e92d 43f0 	stmdb	sp!, {r4, r5, r6, r7, r8, r9, lr}
   d88ca:	b087      	sub	sp, #28
   d88cc:	af00      	add	r7, sp, #0
   d88ce:	f107 0438 	add.w	r4, r7, #56	; 0x38
   d88d2:	4605      	mov	r5, r0
   d88d4:	f854 9b04 	ldr.w	r9, [r4], #4
    const int bufsize = 20;
    char test[bufsize];
    va_list marker;
    va_start(marker, format);
   d88d8:	603c      	str	r4, [r7, #0]

  return n;
}

size_t Print::printf_impl(bool newline, const char* format, ...)
{
   d88da:	460e      	mov	r6, r1
    const int bufsize = 20;
    char test[bufsize];
    va_list marker;
    va_start(marker, format);
    size_t n = vsnprintf(test, bufsize, format, marker);
   d88dc:	4623      	mov	r3, r4
   d88de:	464a      	mov	r2, r9
   d88e0:	2114      	movs	r1, #20
   d88e2:	1d38      	adds	r0, r7, #4
   d88e4:	f7ff fa1e 	bl	d7d24 <vsnprintf>
    va_end(marker);

    if (n<bufsize)
   d88e8:	2813      	cmp	r0, #19
   d88ea:	d805      	bhi.n	d88f8 <_ZN5Print11printf_implEbPKcz+0x34>
  return n;
}

size_t Print::print(const char str[])
{
  return write(str);
   d88ec:	1d39      	adds	r1, r7, #4
   d88ee:	4628      	mov	r0, r5
   d88f0:	f7fe faa4 	bl	d6e3c <_ZN5Print5writeEPKc>
   d88f4:	4604      	mov	r4, r0
   d88f6:	e013      	b.n	d8920 <_ZN5Print11printf_implEbPKcz+0x5c>
    {
        n = print(test);
    }
    else
    {
        char bigger[n+1];
   d88f8:	f100 0308 	add.w	r3, r0, #8
   d88fc:	f023 0307 	bic.w	r3, r3, #7
        va_start(marker, format);
        n = vsnprintf(bigger, n+1, format, marker);
        va_end(marker);
        n = print(bigger);
   d8900:	46e8      	mov	r8, sp
    {
        n = print(test);
    }
    else
    {
        char bigger[n+1];
   d8902:	ebad 0d03 	sub.w	sp, sp, r3
        va_start(marker, format);
        n = vsnprintf(bigger, n+1, format, marker);
   d8906:	1c41      	adds	r1, r0, #1
   d8908:	4623      	mov	r3, r4
   d890a:	464a      	mov	r2, r9
   d890c:	4668      	mov	r0, sp
        n = print(test);
    }
    else
    {
        char bigger[n+1];
        va_start(marker, format);
   d890e:	603c      	str	r4, [r7, #0]
        n = vsnprintf(bigger, n+1, format, marker);
   d8910:	f7ff fa08 	bl	d7d24 <vsnprintf>
  return n;
}

size_t Print::print(const char str[])
{
  return write(str);
   d8914:	4669      	mov	r1, sp
   d8916:	4628      	mov	r0, r5
   d8918:	f7fe fa90 	bl	d6e3c <_ZN5Print5writeEPKc>
   d891c:	4604      	mov	r4, r0
   d891e:	46c5      	mov	sp, r8
        va_start(marker, format);
        n = vsnprintf(bigger, n+1, format, marker);
        va_end(marker);
        n = print(bigger);
    }
    if (newline)
   d8920:	b11e      	cbz	r6, d892a <_ZN5Print11printf_implEbPKcz+0x66>
        n += println();
   d8922:	4628      	mov	r0, r5
   d8924:	f7ff ff5b 	bl	d87de <_ZN5Print7printlnEv>
   d8928:	4404      	add	r4, r0
    return n;
}
   d892a:	4620      	mov	r0, r4
   d892c:	371c      	adds	r7, #28
   d892e:	46bd      	mov	sp, r7
   d8930:	e8bd 43f0 	ldmia.w	sp!, {r4, r5, r6, r7, r8, r9, lr}
   d8934:	b002      	add	sp, #8
   d8936:	4770      	bx	lr

000d8938 <_ZN8RGBClassD1Ev>:
#include "rgbled.h"

typedef void (raw_rgb_change_handler_t)(uint8_t, uint8_t, uint8_t);
typedef std::function<raw_rgb_change_handler_t> wiring_rgb_change_handler_t;

class RGBClass {
   d8938:	b510      	push	{r4, lr}
   d893a:	4604      	mov	r4, r0
   d893c:	f7fb fc2d 	bl	d419a <_ZNSt14_Function_baseD1Ev>
   d8940:	4620      	mov	r0, r4
   d8942:	bd10      	pop	{r4, pc}

000d8944 <_GLOBAL__sub_I_RGB>:
	{
	  _Base::_M_init_functor(__functor, std::__addressof(__f.get()));
	}
      };

    _Function_base() : _M_manager(nullptr) { }
   d8944:	4803      	ldr	r0, [pc, #12]	; (d8954 <_GLOBAL__sub_I_RGB+0x10>)
#include "spark_wiring_rgb.h"
#include "spark_wiring_interrupts.h"

#include "core_hal.h"

RGBClass RGB;
   d8946:	4a04      	ldr	r2, [pc, #16]	; (d8958 <_GLOBAL__sub_I_RGB+0x14>)
   d8948:	4904      	ldr	r1, [pc, #16]	; (d895c <_GLOBAL__sub_I_RGB+0x18>)
   d894a:	2300      	movs	r3, #0
   d894c:	6083      	str	r3, [r0, #8]
   d894e:	f000 bf91 	b.w	d9874 <__aeabi_atexit>
   d8952:	bf00      	nop
   d8954:	2003e558 	.word	0x2003e558
   d8958:	2003dc3c 	.word	0x2003dc3c
   d895c:	000d8939 	.word	0x000d8939

000d8960 <_ZN8SPIClassD1Ev>:
  Mutex mutex_;
#endif

public:
  SPIClass(HAL_SPI_Interface spi);
  virtual ~SPIClass() {};
   d8960:	4770      	bx	lr

000d8962 <_ZN8SPIClassD0Ev>:
   d8962:	b510      	push	{r4, lr}
   d8964:	2110      	movs	r1, #16
   d8966:	4604      	mov	r4, r0
   d8968:	f000 ff89 	bl	d987e <_ZdlPvj>
   d896c:	4620      	mov	r0, r4
   d896e:	bd10      	pop	{r4, pc}

000d8970 <_ZN8SPIClassC1E17HAL_SPI_Interface>:
  if (!info->enabled || info->default_settings)
    return particle::__SPISettings();
  return particle::__SPISettings(info->clock, info->bit_order, info->data_mode);
}

SPIClass::SPIClass(HAL_SPI_Interface spi)
   d8970:	b570      	push	{r4, r5, r6, lr}
   d8972:	4b08      	ldr	r3, [pc, #32]	; (d8994 <_ZN8SPIClassC1E17HAL_SPI_Interface+0x24>)
   d8974:	6003      	str	r3, [r0, #0]
   d8976:	4604      	mov	r4, r0
    Mutex(os_mutex_t handle) : handle_(handle) {}

    /**
     * Creates a new mutex.
     */
    Mutex() : handle_(nullptr)
   d8978:	2500      	movs	r5, #0
   d897a:	460e      	mov	r6, r1
   d897c:	f840 5f0c 	str.w	r5, [r0, #12]!
    {
        os_mutex_create(&handle_);
   d8980:	f7fe fee4 	bl	d774c <os_mutex_create>
{
  _spi = spi;
  HAL_SPI_Init(_spi);
   d8984:	4630      	mov	r0, r6
  return particle::__SPISettings(info->clock, info->bit_order, info->data_mode);
}

SPIClass::SPIClass(HAL_SPI_Interface spi)
{
  _spi = spi;
   d8986:	7126      	strb	r6, [r4, #4]
  HAL_SPI_Init(_spi);
   d8988:	f7ff f830 	bl	d79ec <HAL_SPI_Init>
  dividerReference = SPI_CLK_SYSTEM;     // 0 indicates the system clock
   d898c:	60a5      	str	r5, [r4, #8]
}
   d898e:	4620      	mov	r0, r4
   d8990:	bd70      	pop	{r4, r5, r6, pc}
   d8992:	bf00      	nop
   d8994:	000dbd58 	.word	0x000dbd58

000d8998 <_ZN8SPIClass9isEnabledEv>:
  //To Do
}

bool SPIClass::isEnabled()
{
  return HAL_SPI_Is_Enabled(_spi);
   d8998:	7900      	ldrb	r0, [r0, #4]
   d899a:	f7ff b82f 	b.w	d79fc <HAL_SPI_Is_Enabled>

000d899e <_ZN6Stream9timedReadEv>:
#define PARSE_TIMEOUT 1000  // default number of milli-seconds to wait
#define NO_SKIP_CHAR  1  // a magic char not found in a valid ASCII numeric field

// private method to read stream with timeout
int Stream::timedRead()
{
   d899e:	b510      	push	{r4, lr}
   d89a0:	4604      	mov	r4, r0
#endif

#include "timer_hal.h"
#include "delay_hal.h"

inline system_tick_t millis(void) { return HAL_Timer_Get_Milli_Seconds(); }
   d89a2:	f7fe ff03 	bl	d77ac <HAL_Timer_Get_Milli_Seconds>
  int c;
  _startMillis = millis();
   d89a6:	60e0      	str	r0, [r4, #12]
  do {
    c = read();
   d89a8:	6823      	ldr	r3, [r4, #0]
   d89aa:	4620      	mov	r0, r4
   d89ac:	695b      	ldr	r3, [r3, #20]
   d89ae:	4798      	blx	r3
    if (c >= 0) return c;
   d89b0:	2800      	cmp	r0, #0
   d89b2:	da08      	bge.n	d89c6 <_ZN6Stream9timedReadEv+0x28>
   d89b4:	f7fe fefa 	bl	d77ac <HAL_Timer_Get_Milli_Seconds>
// private method to read stream with timeout
int Stream::timedRead()
{
  int c;
  _startMillis = millis();
  do {
   d89b8:	68e3      	ldr	r3, [r4, #12]
   d89ba:	1ac0      	subs	r0, r0, r3
   d89bc:	68a3      	ldr	r3, [r4, #8]
   d89be:	4298      	cmp	r0, r3
   d89c0:	d3f2      	bcc.n	d89a8 <_ZN6Stream9timedReadEv+0xa>
    c = read();
    if (c >= 0) return c;
  } while(millis() - _startMillis < _timeout);
  return -1;     // -1 indicates timeout
   d89c2:	f04f 30ff 	mov.w	r0, #4294967295	; 0xffffffff
}
   d89c6:	bd10      	pop	{r4, pc}

000d89c8 <_ZN6Stream9readBytesEPcj>:
// terminates if length characters have been read, or timeout (see setTimeout)
// returns the number of characters placed in the buffer
// the buffer is NOT null terminated.
//
size_t Stream::readBytes(char *buffer, size_t length)
{
   d89c8:	e92d 41f0 	stmdb	sp!, {r4, r5, r6, r7, r8, lr}
   d89cc:	4680      	mov	r8, r0
   d89ce:	460d      	mov	r5, r1
   d89d0:	188f      	adds	r7, r1, r2
   d89d2:	460c      	mov	r4, r1
  size_t count = 0;
  while (count < length) {
   d89d4:	42bc      	cmp	r4, r7
   d89d6:	eba4 0605 	sub.w	r6, r4, r5
   d89da:	d007      	beq.n	d89ec <_ZN6Stream9readBytesEPcj+0x24>
    int c = timedRead();
   d89dc:	4640      	mov	r0, r8
   d89de:	f7ff ffde 	bl	d899e <_ZN6Stream9timedReadEv>
    if (c < 0) break;
   d89e2:	2800      	cmp	r0, #0
   d89e4:	db02      	blt.n	d89ec <_ZN6Stream9readBytesEPcj+0x24>
    *buffer++ = (char)c;
   d89e6:	f804 0b01 	strb.w	r0, [r4], #1
// the buffer is NOT null terminated.
//
size_t Stream::readBytes(char *buffer, size_t length)
{
  size_t count = 0;
  while (count < length) {
   d89ea:	e7f3      	b.n	d89d4 <_ZN6Stream9readBytesEPcj+0xc>
    if (c < 0) break;
    *buffer++ = (char)c;
    count++;
  }
  return count;
}
   d89ec:	4630      	mov	r0, r6
   d89ee:	e8bd 81f0 	ldmia.w	sp!, {r4, r5, r6, r7, r8, pc}

000d89f2 <_ZN6StringD1Ev>:
	init();
	char buf[33];
	dtoa(value, decimalPlaces, buf);
        *this = buf;
}
String::~String()
   d89f2:	b510      	push	{r4, lr}
   d89f4:	4604      	mov	r4, r0
{
	free(buffer);
   d89f6:	6800      	ldr	r0, [r0, #0]
   d89f8:	f7ff f964 	bl	d7cc4 <free>
}
   d89fc:	4620      	mov	r0, r4
   d89fe:	bd10      	pop	{r4, pc}

000d8a00 <_ZN6String10invalidateEv>:
	len = 0;
	flags = 0;
}

void String::invalidate(void)
{
   d8a00:	b510      	push	{r4, lr}
   d8a02:	4604      	mov	r4, r0
	if (buffer) free(buffer);
   d8a04:	6800      	ldr	r0, [r0, #0]
   d8a06:	b108      	cbz	r0, d8a0c <_ZN6String10invalidateEv+0xc>
   d8a08:	f7ff f95c 	bl	d7cc4 <free>
	buffer = NULL;
   d8a0c:	2300      	movs	r3, #0
   d8a0e:	6023      	str	r3, [r4, #0]
	capacity = len = 0;
   d8a10:	60a3      	str	r3, [r4, #8]
   d8a12:	6063      	str	r3, [r4, #4]
   d8a14:	bd10      	pop	{r4, pc}

000d8a16 <_ZN6String12changeBufferEj>:
	}
	return 0;
}

unsigned char String::changeBuffer(unsigned int maxStrLen)
{
   d8a16:	b538      	push	{r3, r4, r5, lr}
   d8a18:	4604      	mov	r4, r0
   d8a1a:	460d      	mov	r5, r1
	char *newbuffer = (char *)realloc(buffer, maxStrLen + 1);
   d8a1c:	6800      	ldr	r0, [r0, #0]
   d8a1e:	3101      	adds	r1, #1
   d8a20:	f7ff f958 	bl	d7cd4 <realloc>
	if (newbuffer) {
   d8a24:	b110      	cbz	r0, d8a2c <_ZN6String12changeBufferEj+0x16>
		buffer = newbuffer;
		capacity = maxStrLen;
   d8a26:	e884 0021 	stmia.w	r4, {r0, r5}
		return 1;
   d8a2a:	2001      	movs	r0, #1
	}
	return 0;
}
   d8a2c:	bd38      	pop	{r3, r4, r5, pc}

000d8a2e <_ZN6String7reserveEj>:
	buffer = NULL;
	capacity = len = 0;
}

unsigned char String::reserve(unsigned int size)
{
   d8a2e:	b510      	push	{r4, lr}
	if (buffer && capacity >= size) return 1;
   d8a30:	6803      	ldr	r3, [r0, #0]
	buffer = NULL;
	capacity = len = 0;
}

unsigned char String::reserve(unsigned int size)
{
   d8a32:	4604      	mov	r4, r0
	if (buffer && capacity >= size) return 1;
   d8a34:	b113      	cbz	r3, d8a3c <_ZN6String7reserveEj+0xe>
   d8a36:	6843      	ldr	r3, [r0, #4]
   d8a38:	428b      	cmp	r3, r1
   d8a3a:	d207      	bcs.n	d8a4c <_ZN6String7reserveEj+0x1e>
	if (changeBuffer(size)) {
   d8a3c:	4620      	mov	r0, r4
   d8a3e:	f7ff ffea 	bl	d8a16 <_ZN6String12changeBufferEj>
   d8a42:	b120      	cbz	r0, d8a4e <_ZN6String7reserveEj+0x20>
		if (len == 0) buffer[0] = 0;
   d8a44:	68a3      	ldr	r3, [r4, #8]
   d8a46:	b90b      	cbnz	r3, d8a4c <_ZN6String7reserveEj+0x1e>
   d8a48:	6822      	ldr	r2, [r4, #0]
   d8a4a:	7013      	strb	r3, [r2, #0]
   d8a4c:	2001      	movs	r0, #1
		return 1;
	}
	return 0;
}
   d8a4e:	bd10      	pop	{r4, pc}

000d8a50 <_ZN6String4copyEPKcj>:
/*********************************************/
/*  Copy and Move                            */
/*********************************************/

String & String::copy(const char *cstr, unsigned int length)
{
   d8a50:	b570      	push	{r4, r5, r6, lr}
   d8a52:	460e      	mov	r6, r1
	if (!reserve(length)) {
   d8a54:	4611      	mov	r1, r2
/*********************************************/
/*  Copy and Move                            */
/*********************************************/

String & String::copy(const char *cstr, unsigned int length)
{
   d8a56:	4604      	mov	r4, r0
   d8a58:	4615      	mov	r5, r2
	if (!reserve(length)) {
   d8a5a:	f7ff ffe8 	bl	d8a2e <_ZN6String7reserveEj>
   d8a5e:	b918      	cbnz	r0, d8a68 <_ZN6String4copyEPKcj+0x18>
		invalidate();
   d8a60:	4620      	mov	r0, r4
   d8a62:	f7ff ffcd 	bl	d8a00 <_ZN6String10invalidateEv>
		return *this;
   d8a66:	e009      	b.n	d8a7c <_ZN6String4copyEPKcj+0x2c>
	}
	len = length;
	memcpy(buffer, cstr, length);
   d8a68:	462a      	mov	r2, r5
   d8a6a:	4631      	mov	r1, r6
{
	if (!reserve(length)) {
		invalidate();
		return *this;
	}
	len = length;
   d8a6c:	60a5      	str	r5, [r4, #8]
	memcpy(buffer, cstr, length);
   d8a6e:	6820      	ldr	r0, [r4, #0]
   d8a70:	f001 fd92 	bl	da598 <memcpy>
	buffer[len] = 0;
   d8a74:	6822      	ldr	r2, [r4, #0]
   d8a76:	68a3      	ldr	r3, [r4, #8]
   d8a78:	2100      	movs	r1, #0
   d8a7a:	54d1      	strb	r1, [r2, r3]
	return *this;
}
   d8a7c:	4620      	mov	r0, r4
   d8a7e:	bd70      	pop	{r4, r5, r6, pc}

000d8a80 <_ZN6StringC1EPK19__FlashStringHelper>:
{
	init();
	*this = value;
}

String::String(const __FlashStringHelper *pstr)
   d8a80:	b538      	push	{r3, r4, r5, lr}
/*  Memory Management                        */
/*********************************************/

inline void String::init(void)
{
	buffer = NULL;
   d8a82:	2300      	movs	r3, #0
{
	init();
	*this = value;
}

String::String(const __FlashStringHelper *pstr)
   d8a84:	4604      	mov	r4, r0
/*  Memory Management                        */
/*********************************************/

inline void String::init(void)
{
	buffer = NULL;
   d8a86:	6003      	str	r3, [r0, #0]
	capacity = 0;
   d8a88:	6043      	str	r3, [r0, #4]
	len = 0;
   d8a8a:	6083      	str	r3, [r0, #8]
	flags = 0;
   d8a8c:	7303      	strb	r3, [r0, #12]

String::String(const __FlashStringHelper *pstr)
{
	init();
	const char* cstr = reinterpret_cast<const char*>(pstr);
	if (cstr) copy(cstr, strlen(cstr));
   d8a8e:	460d      	mov	r5, r1
   d8a90:	b139      	cbz	r1, d8aa2 <_ZN6StringC1EPK19__FlashStringHelper+0x22>
   d8a92:	4608      	mov	r0, r1
   d8a94:	f001 fde9 	bl	da66a <strlen>
   d8a98:	4629      	mov	r1, r5
   d8a9a:	4602      	mov	r2, r0
   d8a9c:	4620      	mov	r0, r4
   d8a9e:	f7ff ffd7 	bl	d8a50 <_ZN6String4copyEPKcj>
}
   d8aa2:	4620      	mov	r0, r4
   d8aa4:	bd38      	pop	{r3, r4, r5, pc}

000d8aa6 <_ZN6String4moveERS_>:
    return copy(reinterpret_cast<const char*>(pstr), length);
}

#ifdef __GXX_EXPERIMENTAL_CXX0X__
void String::move(String &rhs)
{
   d8aa6:	b538      	push	{r3, r4, r5, lr}
   d8aa8:	4605      	mov	r5, r0
	if (buffer) {
   d8aaa:	6800      	ldr	r0, [r0, #0]
    return copy(reinterpret_cast<const char*>(pstr), length);
}

#ifdef __GXX_EXPERIMENTAL_CXX0X__
void String::move(String &rhs)
{
   d8aac:	460c      	mov	r4, r1
	if (buffer) {
   d8aae:	b160      	cbz	r0, d8aca <_ZN6String4moveERS_+0x24>
		if (capacity >= rhs.len) {
   d8ab0:	686a      	ldr	r2, [r5, #4]
   d8ab2:	688b      	ldr	r3, [r1, #8]
   d8ab4:	429a      	cmp	r2, r3
   d8ab6:	d306      	bcc.n	d8ac6 <_ZN6String4moveERS_+0x20>
			strcpy(buffer, rhs.buffer);
   d8ab8:	6809      	ldr	r1, [r1, #0]
   d8aba:	f001 fdb3 	bl	da624 <strcpy>
			len = rhs.len;
   d8abe:	68a3      	ldr	r3, [r4, #8]
   d8ac0:	60ab      	str	r3, [r5, #8]
			rhs.len = 0;
   d8ac2:	2300      	movs	r3, #0
   d8ac4:	e00a      	b.n	d8adc <_ZN6String4moveERS_+0x36>
			return;
		} else {
			free(buffer);
   d8ac6:	f7ff f8fd 	bl	d7cc4 <free>
		}
	}
	buffer = rhs.buffer;
   d8aca:	6823      	ldr	r3, [r4, #0]
   d8acc:	602b      	str	r3, [r5, #0]
	capacity = rhs.capacity;
   d8ace:	6863      	ldr	r3, [r4, #4]
   d8ad0:	606b      	str	r3, [r5, #4]
	len = rhs.len;
   d8ad2:	68a3      	ldr	r3, [r4, #8]
   d8ad4:	60ab      	str	r3, [r5, #8]
	rhs.buffer = NULL;
   d8ad6:	2300      	movs	r3, #0
   d8ad8:	6023      	str	r3, [r4, #0]
	rhs.capacity = 0;
   d8ada:	6063      	str	r3, [r4, #4]
	rhs.len = 0;
   d8adc:	60a3      	str	r3, [r4, #8]
   d8ade:	bd38      	pop	{r3, r4, r5, pc}

000d8ae0 <_ZN6StringaSERKS_>:
}
#endif

String & String::operator = (const String &rhs)
{
	if (this == &rhs) return *this;
   d8ae0:	4288      	cmp	r0, r1
	rhs.len = 0;
}
#endif

String & String::operator = (const String &rhs)
{
   d8ae2:	b510      	push	{r4, lr}
   d8ae4:	460b      	mov	r3, r1
   d8ae6:	4604      	mov	r4, r0
	if (this == &rhs) return *this;
   d8ae8:	d007      	beq.n	d8afa <_ZN6StringaSERKS_+0x1a>

	if (rhs.buffer) copy(rhs.buffer, rhs.len);
   d8aea:	6809      	ldr	r1, [r1, #0]
   d8aec:	b119      	cbz	r1, d8af6 <_ZN6StringaSERKS_+0x16>
   d8aee:	689a      	ldr	r2, [r3, #8]
   d8af0:	f7ff ffae 	bl	d8a50 <_ZN6String4copyEPKcj>
   d8af4:	e001      	b.n	d8afa <_ZN6StringaSERKS_+0x1a>
	else invalidate();
   d8af6:	f7ff ff83 	bl	d8a00 <_ZN6String10invalidateEv>

	return *this;
}
   d8afa:	4620      	mov	r0, r4
   d8afc:	bd10      	pop	{r4, pc}

000d8afe <_ZN6StringC1ERKS_>:
{
	init();
	if (cstr) copy(cstr, length);
}

String::String(const String &value)
   d8afe:	b510      	push	{r4, lr}
/*  Memory Management                        */
/*********************************************/

inline void String::init(void)
{
	buffer = NULL;
   d8b00:	2300      	movs	r3, #0
{
	init();
	if (cstr) copy(cstr, length);
}

String::String(const String &value)
   d8b02:	4604      	mov	r4, r0
/*  Memory Management                        */
/*********************************************/

inline void String::init(void)
{
	buffer = NULL;
   d8b04:	6003      	str	r3, [r0, #0]
	capacity = 0;
   d8b06:	6043      	str	r3, [r0, #4]
	len = 0;
   d8b08:	6083      	str	r3, [r0, #8]
	flags = 0;
   d8b0a:	7303      	strb	r3, [r0, #12]
}

String::String(const String &value)
{
	init();
	*this = value;
   d8b0c:	f7ff ffe8 	bl	d8ae0 <_ZN6StringaSERKS_>
}
   d8b10:	4620      	mov	r0, r4
   d8b12:	bd10      	pop	{r4, pc}

000d8b14 <_ZN6StringaSEOS_>:
}

#ifdef __GXX_EXPERIMENTAL_CXX0X__
String & String::operator = (String &&rval)
{
	if (this != &rval) move(rval);
   d8b14:	4288      	cmp	r0, r1
    return *this;
}

#ifdef __GXX_EXPERIMENTAL_CXX0X__
String & String::operator = (String &&rval)
{
   d8b16:	b510      	push	{r4, lr}
   d8b18:	4604      	mov	r4, r0
	if (this != &rval) move(rval);
   d8b1a:	d001      	beq.n	d8b20 <_ZN6StringaSEOS_+0xc>
   d8b1c:	f7ff ffc3 	bl	d8aa6 <_ZN6String4moveERS_>
	return *this;
}
   d8b20:	4620      	mov	r0, r4
   d8b22:	bd10      	pop	{r4, pc}

000d8b24 <_ZN6StringaSEPKc>:
	return *this;
}
#endif

String & String::operator = (const char *cstr)
{
   d8b24:	b538      	push	{r3, r4, r5, lr}
   d8b26:	4605      	mov	r5, r0
	if (cstr) copy(cstr, strlen(cstr));
   d8b28:	460c      	mov	r4, r1
   d8b2a:	b141      	cbz	r1, d8b3e <_ZN6StringaSEPKc+0x1a>
   d8b2c:	4608      	mov	r0, r1
   d8b2e:	f001 fd9c 	bl	da66a <strlen>
   d8b32:	4621      	mov	r1, r4
   d8b34:	4602      	mov	r2, r0
   d8b36:	4628      	mov	r0, r5
   d8b38:	f7ff ff8a 	bl	d8a50 <_ZN6String4copyEPKcj>
   d8b3c:	e001      	b.n	d8b42 <_ZN6StringaSEPKc+0x1e>
	else invalidate();
   d8b3e:	f7ff ff5f 	bl	d8a00 <_ZN6String10invalidateEv>

	return *this;
}
   d8b42:	4628      	mov	r0, r5
   d8b44:	bd38      	pop	{r3, r4, r5, pc}

000d8b46 <_ZN6String6concatEPKcj>:
{
	return concat(s.buffer, s.len);
}

unsigned char String::concat(const char *cstr, unsigned int length)
{
   d8b46:	b570      	push	{r4, r5, r6, lr}
   d8b48:	4604      	mov	r4, r0
	unsigned int newlen = len + length;
	if (!cstr) return 0;
   d8b4a:	460e      	mov	r6, r1
   d8b4c:	b909      	cbnz	r1, d8b52 <_ZN6String6concatEPKcj+0xc>
   d8b4e:	2000      	movs	r0, #0
   d8b50:	bd70      	pop	{r4, r5, r6, pc}
	if (length == 0) return 1;
   d8b52:	b16a      	cbz	r2, d8b70 <_ZN6String6concatEPKcj+0x2a>
	return concat(s.buffer, s.len);
}

unsigned char String::concat(const char *cstr, unsigned int length)
{
	unsigned int newlen = len + length;
   d8b54:	6883      	ldr	r3, [r0, #8]
   d8b56:	18d5      	adds	r5, r2, r3
	if (!cstr) return 0;
	if (length == 0) return 1;
	if (!reserve(newlen)) return 0;
   d8b58:	4629      	mov	r1, r5
   d8b5a:	f7ff ff68 	bl	d8a2e <_ZN6String7reserveEj>
   d8b5e:	2800      	cmp	r0, #0
   d8b60:	d0f5      	beq.n	d8b4e <_ZN6String6concatEPKcj+0x8>
	strcpy(buffer + len, cstr);
   d8b62:	6820      	ldr	r0, [r4, #0]
   d8b64:	68a3      	ldr	r3, [r4, #8]
   d8b66:	4631      	mov	r1, r6
   d8b68:	4418      	add	r0, r3
   d8b6a:	f001 fd5b 	bl	da624 <strcpy>
	len = newlen;
   d8b6e:	60a5      	str	r5, [r4, #8]

unsigned char String::concat(const char *cstr, unsigned int length)
{
	unsigned int newlen = len + length;
	if (!cstr) return 0;
	if (length == 0) return 1;
   d8b70:	2001      	movs	r0, #1
	if (!reserve(newlen)) return 0;
	strcpy(buffer + len, cstr);
	len = newlen;
	return 1;
}
   d8b72:	bd70      	pop	{r4, r5, r6, pc}

000d8b74 <_ZN6String6concatEc>:
unsigned char String::concat(const __FlashStringHelper * str) {
	return concat(reinterpret_cast<const char*>(str));
}

unsigned char String::concat(char c)
{
   d8b74:	b507      	push	{r0, r1, r2, lr}
	char buf[2];
	buf[0] = c;
	buf[1] = 0;
   d8b76:	2300      	movs	r3, #0
}

unsigned char String::concat(char c)
{
	char buf[2];
	buf[0] = c;
   d8b78:	f88d 1004 	strb.w	r1, [sp, #4]
	buf[1] = 0;
	return concat(buf, 1);
   d8b7c:	2201      	movs	r2, #1
   d8b7e:	a901      	add	r1, sp, #4

unsigned char String::concat(char c)
{
	char buf[2];
	buf[0] = c;
	buf[1] = 0;
   d8b80:	f88d 3005 	strb.w	r3, [sp, #5]
	return concat(buf, 1);
   d8b84:	f7ff ffdf 	bl	d8b46 <_ZN6String6concatEPKcj>
}
   d8b88:	b003      	add	sp, #12
   d8b8a:	f85d fb04 	ldr.w	pc, [sp], #4

000d8b8e <_ZplRK15StringSumHelperRK6String>:
/*********************************************/
/*  Concatenate                              */
/*********************************************/

StringSumHelper & operator + (const StringSumHelper &lhs, const String &rhs)
{
   d8b8e:	b510      	push	{r4, lr}
	StringSumHelper &a = const_cast<StringSumHelper&>(lhs);
	if (!a.concat(rhs.buffer, rhs.len)) a.invalidate();
   d8b90:	688a      	ldr	r2, [r1, #8]
   d8b92:	6809      	ldr	r1, [r1, #0]
/*********************************************/
/*  Concatenate                              */
/*********************************************/

StringSumHelper & operator + (const StringSumHelper &lhs, const String &rhs)
{
   d8b94:	4604      	mov	r4, r0
	StringSumHelper &a = const_cast<StringSumHelper&>(lhs);
	if (!a.concat(rhs.buffer, rhs.len)) a.invalidate();
   d8b96:	f7ff ffd6 	bl	d8b46 <_ZN6String6concatEPKcj>
   d8b9a:	b910      	cbnz	r0, d8ba2 <_ZplRK15StringSumHelperRK6String+0x14>
   d8b9c:	4620      	mov	r0, r4
   d8b9e:	f7ff ff2f 	bl	d8a00 <_ZN6String10invalidateEv>
	return a;
}
   d8ba2:	4620      	mov	r0, r4
   d8ba4:	bd10      	pop	{r4, pc}

000d8ba6 <_ZplRK15StringSumHelperPKc>:

StringSumHelper & operator + (const StringSumHelper &lhs, const char *cstr)
{
   d8ba6:	b538      	push	{r3, r4, r5, lr}
   d8ba8:	4604      	mov	r4, r0
	StringSumHelper &a = const_cast<StringSumHelper&>(lhs);
	if (!cstr || !a.concat(cstr, strlen(cstr))) a.invalidate();
   d8baa:	460d      	mov	r5, r1
   d8bac:	b141      	cbz	r1, d8bc0 <_ZplRK15StringSumHelperPKc+0x1a>
   d8bae:	4608      	mov	r0, r1
   d8bb0:	f001 fd5b 	bl	da66a <strlen>
   d8bb4:	4629      	mov	r1, r5
   d8bb6:	4602      	mov	r2, r0
   d8bb8:	4620      	mov	r0, r4
   d8bba:	f7ff ffc4 	bl	d8b46 <_ZN6String6concatEPKcj>
   d8bbe:	b910      	cbnz	r0, d8bc6 <_ZplRK15StringSumHelperPKc+0x20>
   d8bc0:	4620      	mov	r0, r4
   d8bc2:	f7ff ff1d 	bl	d8a00 <_ZN6String10invalidateEv>
	return a;
}
   d8bc6:	4620      	mov	r0, r4
   d8bc8:	bd38      	pop	{r3, r4, r5, pc}

000d8bca <_ZNK6String6equalsEPKc>:
{
	return (len == s2.len && compareTo(s2) == 0);
}

unsigned char String::equals(const char *cstr) const
{
   d8bca:	b508      	push	{r3, lr}
	if (len == 0) return (cstr == NULL || *cstr == 0);
   d8bcc:	6882      	ldr	r2, [r0, #8]
{
	return (len == s2.len && compareTo(s2) == 0);
}

unsigned char String::equals(const char *cstr) const
{
   d8bce:	460b      	mov	r3, r1
	if (len == 0) return (cstr == NULL || *cstr == 0);
   d8bd0:	b912      	cbnz	r2, d8bd8 <_ZNK6String6equalsEPKc+0xe>
   d8bd2:	b919      	cbnz	r1, d8bdc <_ZNK6String6equalsEPKc+0x12>
   d8bd4:	2001      	movs	r0, #1
   d8bd6:	bd08      	pop	{r3, pc}
	if (cstr == NULL) return buffer[0] == 0;
   d8bd8:	b911      	cbnz	r1, d8be0 <_ZNK6String6equalsEPKc+0x16>
   d8bda:	6803      	ldr	r3, [r0, #0]
   d8bdc:	7818      	ldrb	r0, [r3, #0]
   d8bde:	e002      	b.n	d8be6 <_ZNK6String6equalsEPKc+0x1c>
	return strcmp(buffer, cstr) == 0;
   d8be0:	6800      	ldr	r0, [r0, #0]
   d8be2:	f001 fd15 	bl	da610 <strcmp>
   d8be6:	fab0 f080 	clz	r0, r0
   d8bea:	0940      	lsrs	r0, r0, #5
}
   d8bec:	bd08      	pop	{r3, pc}
	...

000d8bf0 <_ZN6String6formatEPKcz>:
    StringPrintableHelper help(*this);
    printable.printTo(help);
}

String String::format(const char* fmt, ...)
{
   d8bf0:	b40e      	push	{r1, r2, r3}
   d8bf2:	b5ff      	push	{r0, r1, r2, r3, r4, r5, r6, r7, lr}
   d8bf4:	ac09      	add	r4, sp, #36	; 0x24
   d8bf6:	4605      	mov	r5, r0
   d8bf8:	f854 7b04 	ldr.w	r7, [r4], #4
    va_list marker;
    va_start(marker, fmt);
   d8bfc:	9401      	str	r4, [sp, #4]
    const int bufsize = 5;
    char test[bufsize];
    size_t n = vsnprintf(test, bufsize, fmt, marker);
   d8bfe:	4623      	mov	r3, r4
   d8c00:	463a      	mov	r2, r7
   d8c02:	2105      	movs	r1, #5
   d8c04:	a802      	add	r0, sp, #8
   d8c06:	f7ff f88d 	bl	d7d24 <vsnprintf>
    va_end(marker);

    String result;
   d8c0a:	490c      	ldr	r1, [pc, #48]	; (d8c3c <_ZN6String6formatEPKcz+0x4c>)
{
    va_list marker;
    va_start(marker, fmt);
    const int bufsize = 5;
    char test[bufsize];
    size_t n = vsnprintf(test, bufsize, fmt, marker);
   d8c0c:	4606      	mov	r6, r0
    va_end(marker);

    String result;
   d8c0e:	4628      	mov	r0, r5
   d8c10:	f7ff ff36 	bl	d8a80 <_ZN6StringC1EPK19__FlashStringHelper>
    result.reserve(n);  // internally adds +1 for null terminator
   d8c14:	4631      	mov	r1, r6
   d8c16:	4628      	mov	r0, r5
   d8c18:	f7ff ff09 	bl	d8a2e <_ZN6String7reserveEj>
    if (result.buffer) {
   d8c1c:	6828      	ldr	r0, [r5, #0]
   d8c1e:	b130      	cbz	r0, d8c2e <_ZN6String6formatEPKcz+0x3e>
        va_start(marker, fmt);
        n = vsnprintf(result.buffer, n+1, fmt, marker);
   d8c20:	4623      	mov	r3, r4
   d8c22:	463a      	mov	r2, r7
   d8c24:	1c71      	adds	r1, r6, #1
    va_end(marker);

    String result;
    result.reserve(n);  // internally adds +1 for null terminator
    if (result.buffer) {
        va_start(marker, fmt);
   d8c26:	9401      	str	r4, [sp, #4]
        n = vsnprintf(result.buffer, n+1, fmt, marker);
   d8c28:	f7ff f87c 	bl	d7d24 <vsnprintf>
        va_end(marker);
        result.len = n;
   d8c2c:	60a8      	str	r0, [r5, #8]
    }
    return result;
}
   d8c2e:	4628      	mov	r0, r5
   d8c30:	b004      	add	sp, #16
   d8c32:	e8bd 40f0 	ldmia.w	sp!, {r4, r5, r6, r7, lr}
   d8c36:	b003      	add	sp, #12
   d8c38:	4770      	bx	lr
   d8c3a:	bf00      	nop
   d8c3c:	000dbc20 	.word	0x000dbc20

000d8c40 <_GLOBAL__sub_I_System>:
    WAKEUP_REASON_RTC = 2,
    WAKEUP_REASON_PIN_OR_RTC = 3
};

struct SleepResult {
    SleepResult() {}
   d8c40:	4b04      	ldr	r3, [pc, #16]	; (d8c54 <_GLOBAL__sub_I_System+0x14>)
   d8c42:	2000      	movs	r0, #0
   d8c44:	f64f 72ff 	movw	r2, #65535	; 0xffff
   d8c48:	7018      	strb	r0, [r3, #0]
   d8c4a:	8058      	strh	r0, [r3, #2]
   d8c4c:	809a      	strh	r2, [r3, #4]

class SystemClass {
public:

    SystemClass(System_Mode_TypeDef mode = DEFAULT) {
        set_system_mode(mode);
   d8c4e:	f7fe bf6d 	b.w	d7b2c <set_system_mode>
   d8c52:	bf00      	nop
   d8c54:	2003e568 	.word	0x2003e568

000d8c58 <_ZN9TCPClient5writeEh>:
    done.dismiss();
    // Why not 0?
    return 1;
}

size_t TCPClient::write(uint8_t b) {
   d8c58:	b537      	push	{r0, r1, r2, r4, r5, lr}
   d8c5a:	ac02      	add	r4, sp, #8
    return write(&b, 1, SOCKET_WAIT_FOREVER);
   d8c5c:	6803      	ldr	r3, [r0, #0]
    done.dismiss();
    // Why not 0?
    return 1;
}

size_t TCPClient::write(uint8_t b) {
   d8c5e:	f804 1d01 	strb.w	r1, [r4, #-1]!
    return write(&b, 1, SOCKET_WAIT_FOREVER);
   d8c62:	6bdd      	ldr	r5, [r3, #60]	; 0x3c
   d8c64:	2201      	movs	r2, #1
   d8c66:	f04f 33ff 	mov.w	r3, #4294967295	; 0xffffffff
   d8c6a:	4621      	mov	r1, r4
   d8c6c:	47a8      	blx	r5
}
   d8c6e:	b003      	add	sp, #12
   d8c70:	bd30      	pop	{r4, r5, pc}

000d8c72 <_ZN9TCPClient5writeEPKhj>:

size_t TCPClient::write(const uint8_t *buffer, size_t size) {
   d8c72:	b410      	push	{r4}
    return write(buffer, size, SOCKET_WAIT_FOREVER);
   d8c74:	6803      	ldr	r3, [r0, #0]
   d8c76:	6bdc      	ldr	r4, [r3, #60]	; 0x3c
   d8c78:	f04f 33ff 	mov.w	r3, #4294967295	; 0xffffffff
   d8c7c:	46a4      	mov	ip, r4
}
   d8c7e:	f85d 4b04 	ldr.w	r4, [sp], #4
size_t TCPClient::write(uint8_t b) {
    return write(&b, 1, SOCKET_WAIT_FOREVER);
}

size_t TCPClient::write(const uint8_t *buffer, size_t size) {
    return write(buffer, size, SOCKET_WAIT_FOREVER);
   d8c82:	4760      	bx	ip

000d8c84 <_ZN9TCPClient5writeEhm>:
}

size_t TCPClient::write(uint8_t b, system_tick_t timeout) {
   d8c84:	b537      	push	{r0, r1, r2, r4, r5, lr}
   d8c86:	ac02      	add	r4, sp, #8
    return write(&b, 1, timeout);
   d8c88:	6803      	ldr	r3, [r0, #0]

size_t TCPClient::write(const uint8_t *buffer, size_t size) {
    return write(buffer, size, SOCKET_WAIT_FOREVER);
}

size_t TCPClient::write(uint8_t b, system_tick_t timeout) {
   d8c8a:	f804 1d01 	strb.w	r1, [r4, #-1]!
    return write(&b, 1, timeout);
   d8c8e:	6bdd      	ldr	r5, [r3, #60]	; 0x3c
   d8c90:	4621      	mov	r1, r4
   d8c92:	4613      	mov	r3, r2
   d8c94:	2201      	movs	r2, #1
   d8c96:	47a8      	blx	r5
}
   d8c98:	b003      	add	sp, #12
   d8c9a:	bd30      	pop	{r4, r5, pc}

000d8c9c <_ZN9TCPClient5flushEv>:
void TCPClient::flush_buffer() {
    d_->offset = 0;
    d_->total = 0;
}

void TCPClient::flush() {
   d8c9c:	4770      	bx	lr

000d8c9e <_ZN9TCPClient9connectedEv>:
    d_->sock = -1;
    d_->remoteIP.clear();
    flush_buffer();
}

uint8_t TCPClient::connected() {
   d8c9e:	b538      	push	{r3, r4, r5, lr}
   d8ca0:	6943      	ldr	r3, [r0, #20]
    bool rv = (status() || bufferCount());
   d8ca2:	681a      	ldr	r2, [r3, #0]
   d8ca4:	2a00      	cmp	r2, #0
    d_->sock = -1;
    d_->remoteIP.clear();
    flush_buffer();
}

uint8_t TCPClient::connected() {
   d8ca6:	4604      	mov	r4, r0
    bool rv = (status() || bufferCount());
   d8ca8:	da05      	bge.n	d8cb6 <_ZN9TCPClient9connectedEv+0x18>
   d8caa:	f8b3 2086 	ldrh.w	r2, [r3, #134]	; 0x86
   d8cae:	f8b3 3084 	ldrh.w	r3, [r3, #132]	; 0x84
   d8cb2:	429a      	cmp	r2, r3
   d8cb4:	d001      	beq.n	d8cba <_ZN9TCPClient9connectedEv+0x1c>
   d8cb6:	2501      	movs	r5, #1
   d8cb8:	e00b      	b.n	d8cd2 <_ZN9TCPClient9connectedEv+0x34>
    if (!rv) {
        rv = available();
   d8cba:	6803      	ldr	r3, [r0, #0]
   d8cbc:	691b      	ldr	r3, [r3, #16]
   d8cbe:	4798      	blx	r3
   d8cc0:	2800      	cmp	r0, #0
   d8cc2:	bf14      	ite	ne
   d8cc4:	2501      	movne	r5, #1
   d8cc6:	2500      	moveq	r5, #0
        if (!rv) {
   d8cc8:	d103      	bne.n	d8cd2 <_ZN9TCPClient9connectedEv+0x34>
            stop();
   d8cca:	6823      	ldr	r3, [r4, #0]
   d8ccc:	4620      	mov	r0, r4
   d8cce:	6adb      	ldr	r3, [r3, #44]	; 0x2c
   d8cd0:	4798      	blx	r3
        }
    }
    return rv;
}
   d8cd2:	4628      	mov	r0, r5
   d8cd4:	bd38      	pop	{r3, r4, r5, pc}

000d8cd6 <_ZN9TCPClientcvbEv>:

uint8_t TCPClient::status() {
    return (isOpen(d_->sock));
   d8cd6:	6943      	ldr	r3, [r0, #20]
}

TCPClient::operator bool() {
   return (status() != 0);
   d8cd8:	6818      	ldr	r0, [r3, #0]
}
   d8cda:	43c0      	mvns	r0, r0
   d8cdc:	0fc0      	lsrs	r0, r0, #31
   d8cde:	4770      	bx	lr

000d8ce0 <_ZNSt19_Sp_counted_deleterIPN9TCPClient4DataENSt12__shared_ptrIS1_LN9__gnu_cxx12_Lock_policyE0EE8_DeleterISaIS1_EEES8_LS5_0EED1Ev>:

      // __d(__p) must not throw.
      _Sp_counted_deleter(_Ptr __p, _Deleter __d, const _Alloc& __a) noexcept
      : _M_impl(__p, __d, __a) { }

      ~_Sp_counted_deleter() noexcept { }
   d8ce0:	4770      	bx	lr

000d8ce2 <_ZNSt19_Sp_counted_deleterIPN9TCPClient4DataENSt12__shared_ptrIS1_LN9__gnu_cxx12_Lock_policyE0EE8_DeleterISaIS1_EEES8_LS5_0EE14_M_get_deleterERKSt9type_info>:
	  ? std::__addressof(_M_impl._M_del())
	  : nullptr;
#else
        return nullptr;
#endif
      }
   d8ce2:	2000      	movs	r0, #0
   d8ce4:	4770      	bx	lr

000d8ce6 <_ZNSt19_Sp_counted_deleterIPN9TCPClient4DataENSt12__shared_ptrIS1_LN9__gnu_cxx12_Lock_policyE0EE8_DeleterISaIS1_EEES8_LS5_0EED0Ev>:

      // __d(__p) must not throw.
      _Sp_counted_deleter(_Ptr __p, _Deleter __d, const _Alloc& __a) noexcept
      : _M_impl(__p, __d, __a) { }

      ~_Sp_counted_deleter() noexcept { }
   d8ce6:	b510      	push	{r4, lr}
   d8ce8:	2114      	movs	r1, #20
   d8cea:	4604      	mov	r4, r0
   d8cec:	f000 fdc7 	bl	d987e <_ZdlPvj>
   d8cf0:	4620      	mov	r0, r4
   d8cf2:	bd10      	pop	{r4, pc}

000d8cf4 <_ZNSt19_Sp_counted_deleterIPN9TCPClient4DataENSt12__shared_ptrIS1_LN9__gnu_cxx12_Lock_policyE0EE8_DeleterISaIS1_EEES8_LS5_0EE10_M_destroyEv>:
      }

      // __p is not permitted to be a null pointer.
      void
      deallocate(pointer __p, size_type)
      { ::operator delete(__p); }
   d8cf4:	f7fb b9d1 	b.w	d409a <_ZdlPv>

000d8cf8 <_ZN9TCPClient7connectEPKctm>:
TCPClient::TCPClient(sock_handle_t sock)
        : d_(std::make_shared<Data>(sock)) {
    flush_buffer();
}

int TCPClient::connect(const char* host, uint16_t port, network_interface_t nif) {
   d8cf8:	e92d 43f0 	stmdb	sp!, {r4, r5, r6, r7, r8, r9, lr}
   d8cfc:	4698      	mov	r8, r3
    stop();
   d8cfe:	6803      	ldr	r3, [r0, #0]
TCPClient::TCPClient(sock_handle_t sock)
        : d_(std::make_shared<Data>(sock)) {
    flush_buffer();
}

int TCPClient::connect(const char* host, uint16_t port, network_interface_t nif) {
   d8d00:	b093      	sub	sp, #76	; 0x4c
    stop();
   d8d02:	6adb      	ldr	r3, [r3, #44]	; 0x2c
TCPClient::TCPClient(sock_handle_t sock)
        : d_(std::make_shared<Data>(sock)) {
    flush_buffer();
}

int TCPClient::connect(const char* host, uint16_t port, network_interface_t nif) {
   d8d04:	460c      	mov	r4, r1
   d8d06:	4606      	mov	r6, r0
   d8d08:	4617      	mov	r7, r2
    stop();
   d8d0a:	4798      	blx	r3

    struct addrinfo* ais = nullptr;
   d8d0c:	ab12      	add	r3, sp, #72	; 0x48
   d8d0e:	2500      	movs	r5, #0
   d8d10:	f843 5d48 	str.w	r5, [r3, #-72]!
    SCOPE_GUARD({
        netdb_freeaddrinfo(ais);
    });
    CHECK(netdb_getaddrinfo(host, nullptr, nullptr, &ais));
   d8d14:	462a      	mov	r2, r5
   d8d16:	4629      	mov	r1, r5
   d8d18:	4620      	mov	r0, r4
   d8d1a:	f7fe fe27 	bl	d796c <netdb_getaddrinfo>
   d8d1e:	2800      	cmp	r0, #0
   d8d20:	db3a      	blt.n	d8d98 <_ZN9TCPClient7connectEPKctm+0xa0>

    // FIXME: for now using only the first entry
    if (ais && ais->ai_addr) {
   d8d22:	9b00      	ldr	r3, [sp, #0]
   d8d24:	2b00      	cmp	r3, #0
   d8d26:	d039      	beq.n	d8d9c <_ZN9TCPClient7connectEPKctm+0xa4>
   d8d28:	695b      	ldr	r3, [r3, #20]
   d8d2a:	2b00      	cmp	r3, #0
   d8d2c:	d036      	beq.n	d8d9c <_ZN9TCPClient7connectEPKctm+0xa4>
        IPAddress addr;
   d8d2e:	a806      	add	r0, sp, #24
   d8d30:	f7ff fbb0 	bl	d8494 <_ZN9IPAddressC1Ev>
        detail::sockaddrToIpAddressPort(ais->ai_addr, addr, nullptr);
   d8d34:	9b00      	ldr	r3, [sp, #0]
   d8d36:	695c      	ldr	r4, [r3, #20]
namespace spark {

namespace detail {

inline void sockaddrToIpAddressPort(const struct sockaddr* saddr, IPAddress& addr, uint16_t* port) {
    if (saddr->sa_family == AF_INET) {
   d8d38:	7863      	ldrb	r3, [r4, #1]
   d8d3a:	2b02      	cmp	r3, #2
   d8d3c:	d101      	bne.n	d8d42 <_ZN9TCPClient7connectEPKctm+0x4a>
        const struct sockaddr_in* inaddr = (const struct sockaddr_in*)saddr;
        addr = (const uint8_t*)(&inaddr->sin_addr.s_addr);
   d8d3e:	1d21      	adds	r1, r4, #4
   d8d40:	e013      	b.n	d8d6a <_ZN9TCPClient7connectEPKctm+0x72>
        if (port) {
            *port = ntohs(inaddr->sin_port);
        }
    }
#if HAL_IPv6
    else if (saddr->sa_family == AF_INET6) {
   d8d42:	2b0a      	cmp	r3, #10
   d8d44:	d114      	bne.n	d8d70 <_ZN9TCPClient7connectEPKctm+0x78>
        const struct sockaddr_in6* in6addr = (const struct sockaddr_in6*)saddr;
        HAL_IPAddress a = {};
   d8d46:	2211      	movs	r2, #17
   d8d48:	4629      	mov	r1, r5
   d8d4a:	a801      	add	r0, sp, #4
   d8d4c:	f001 fc2f 	bl	da5ae <memset>
        if (!IN6_IS_ADDR_V4MAPPED(&in6addr->sin6_addr)) {
   d8d50:	68a3      	ldr	r3, [r4, #8]
   d8d52:	bb33      	cbnz	r3, d8da2 <_ZN9TCPClient7connectEPKctm+0xaa>
   d8d54:	68e3      	ldr	r3, [r4, #12]
   d8d56:	bb23      	cbnz	r3, d8da2 <_ZN9TCPClient7connectEPKctm+0xaa>
   d8d58:	f64f 70ff 	movw	r0, #65535	; 0xffff
   d8d5c:	6925      	ldr	r5, [r4, #16]
   d8d5e:	f7fe fded 	bl	d793c <inet_htonl>
   d8d62:	4285      	cmp	r5, r0
   d8d64:	d11d      	bne.n	d8da2 <_ZN9TCPClient7connectEPKctm+0xaa>
            memcpy(a.ipv6, in6addr->sin6_addr.s6_addr, sizeof(a.ipv6));
            a.v = 6;
            addr = IPAddress(a);
        } else {
            auto ptr = (const uint32_t*)(in6addr->sin6_addr.s6_addr);
            addr = (const uint8_t*)(&ptr[3]);
   d8d66:	f104 0114 	add.w	r1, r4, #20
   d8d6a:	a806      	add	r0, sp, #24
   d8d6c:	f7ff fbe2 	bl	d8534 <_ZN9IPAddressaSEPKh>
    operator bool() const;

    // For some reason, without this non-const overload GCC struggles to pick right operator
    // for bool conversion of a non-const object
    operator bool() {
        return static_cast<const IPAddress*>(this)->operator bool();
   d8d70:	a806      	add	r0, sp, #24
   d8d72:	f7ff fbaf 	bl	d84d4 <_ZNK9IPAddresscvbEv>
        if (addr) {
   d8d76:	b188      	cbz	r0, d8d9c <_ZN9TCPClient7connectEPKctm+0xa4>
            return connect(addr, port, nif);
   d8d78:	6833      	ldr	r3, [r6, #0]

/**
 * The IP address stored in host order.
 *
 */
class IPAddress : public Printable {
   d8d7a:	ad07      	add	r5, sp, #28
   d8d7c:	f8d3 9020 	ldr.w	r9, [r3, #32]
   d8d80:	4b18      	ldr	r3, [pc, #96]	; (d8de4 <_ZN9TCPClient7connectEPKctm+0xec>)
   d8d82:	930c      	str	r3, [sp, #48]	; 0x30
   d8d84:	cd0f      	ldmia	r5!, {r0, r1, r2, r3}
   d8d86:	ac0d      	add	r4, sp, #52	; 0x34
   d8d88:	c40f      	stmia	r4!, {r0, r1, r2, r3}
   d8d8a:	682b      	ldr	r3, [r5, #0]
   d8d8c:	7023      	strb	r3, [r4, #0]
   d8d8e:	463a      	mov	r2, r7
   d8d90:	4643      	mov	r3, r8
   d8d92:	a90c      	add	r1, sp, #48	; 0x30
   d8d94:	4630      	mov	r0, r6
   d8d96:	47c8      	blx	r9
   d8d98:	4604      	mov	r4, r0
   d8d9a:	e01c      	b.n	d8dd6 <_ZN9TCPClient7connectEPKctm+0xde>
        }
    }

    return -1;
   d8d9c:	f04f 34ff 	mov.w	r4, #4294967295	; 0xffffffff
   d8da0:	e019      	b.n	d8dd6 <_ZN9TCPClient7connectEPKctm+0xde>
#if HAL_IPv6
    else if (saddr->sa_family == AF_INET6) {
        const struct sockaddr_in6* in6addr = (const struct sockaddr_in6*)saddr;
        HAL_IPAddress a = {};
        if (!IN6_IS_ADDR_V4MAPPED(&in6addr->sin6_addr)) {
            memcpy(a.ipv6, in6addr->sin6_addr.s6_addr, sizeof(a.ipv6));
   d8da2:	f104 0308 	add.w	r3, r4, #8
   d8da6:	ad01      	add	r5, sp, #4
   d8da8:	3418      	adds	r4, #24
   d8daa:	6818      	ldr	r0, [r3, #0]
   d8dac:	6859      	ldr	r1, [r3, #4]
   d8dae:	462a      	mov	r2, r5
   d8db0:	c203      	stmia	r2!, {r0, r1}
   d8db2:	3308      	adds	r3, #8
   d8db4:	42a3      	cmp	r3, r4
   d8db6:	4615      	mov	r5, r2
   d8db8:	d1f7      	bne.n	d8daa <_ZN9TCPClient7connectEPKctm+0xb2>
            a.v = 6;
   d8dba:	2306      	movs	r3, #6
            addr = IPAddress(a);
   d8dbc:	a901      	add	r1, sp, #4
   d8dbe:	a80c      	add	r0, sp, #48	; 0x30
   d8dc0:	ad0d      	add	r5, sp, #52	; 0x34
    else if (saddr->sa_family == AF_INET6) {
        const struct sockaddr_in6* in6addr = (const struct sockaddr_in6*)saddr;
        HAL_IPAddress a = {};
        if (!IN6_IS_ADDR_V4MAPPED(&in6addr->sin6_addr)) {
            memcpy(a.ipv6, in6addr->sin6_addr.s6_addr, sizeof(a.ipv6));
            a.v = 6;
   d8dc2:	f88d 3014 	strb.w	r3, [sp, #20]
            addr = IPAddress(a);
   d8dc6:	f7ff fb73 	bl	d84b0 <_ZN9IPAddressC1ERK16_HAL_IPAddress_t>
   d8dca:	cd0f      	ldmia	r5!, {r0, r1, r2, r3}
   d8dcc:	ac07      	add	r4, sp, #28
   d8dce:	c40f      	stmia	r4!, {r0, r1, r2, r3}
   d8dd0:	682b      	ldr	r3, [r5, #0]
   d8dd2:	7023      	strb	r3, [r4, #0]
   d8dd4:	e7cc      	b.n	d8d70 <_ZN9TCPClient7connectEPKctm+0x78>

int TCPClient::connect(const char* host, uint16_t port, network_interface_t nif) {
    stop();

    struct addrinfo* ais = nullptr;
    SCOPE_GUARD({
   d8dd6:	9800      	ldr	r0, [sp, #0]
   d8dd8:	f7fe fdc0 	bl	d795c <netdb_freeaddrinfo>
            return connect(addr, port, nif);
        }
    }

    return -1;
}
   d8ddc:	4620      	mov	r0, r4
   d8dde:	b013      	add	sp, #76	; 0x4c
   d8de0:	e8bd 83f0 	ldmia.w	sp!, {r4, r5, r6, r7, r8, r9, pc}
   d8de4:	000dbc00 	.word	0x000dbc00

000d8de8 <_ZN9TCPClient5writeEPKhjm>:

size_t TCPClient::write(uint8_t b, system_tick_t timeout) {
    return write(&b, 1, timeout);
}

size_t TCPClient::write(const uint8_t *buffer, size_t size, system_tick_t timeout) {
   d8de8:	b57f      	push	{r0, r1, r2, r3, r4, r5, r6, lr}
   d8dea:	4616      	mov	r6, r2
  private:
    int write_error;
    size_t printNumber(unsigned long, uint8_t);
    size_t printFloat(double, uint8_t);
  protected:
    void setWriteError(int err = 1) { write_error = err; }
   d8dec:	2200      	movs	r2, #0
   d8dee:	6042      	str	r2, [r0, #4]
    clearWriteError();
    struct timeval tv = {};
   d8df0:	9202      	str	r2, [sp, #8]
   d8df2:	9203      	str	r2, [sp, #12]
    if (timeout != SOCKET_WAIT_FOREVER) {
   d8df4:	1c5a      	adds	r2, r3, #1

size_t TCPClient::write(uint8_t b, system_tick_t timeout) {
    return write(&b, 1, timeout);
}

size_t TCPClient::write(const uint8_t *buffer, size_t size, system_tick_t timeout) {
   d8df6:	4604      	mov	r4, r0
   d8df8:	460d      	mov	r5, r1
    clearWriteError();
    struct timeval tv = {};
    if (timeout != SOCKET_WAIT_FOREVER) {
   d8dfa:	d008      	beq.n	d8e0e <_ZN9TCPClient5writeEPKhjm+0x26>
        tv.tv_sec = timeout / 1000;
   d8dfc:	f44f 727a 	mov.w	r2, #1000	; 0x3e8
   d8e00:	fbb3 f1f2 	udiv	r1, r3, r2
   d8e04:	9102      	str	r1, [sp, #8]
        tv.tv_usec = (timeout % 1000) * 1000;
   d8e06:	fb02 3111 	mls	r1, r2, r1, r3
   d8e0a:	434a      	muls	r2, r1
   d8e0c:	9203      	str	r2, [sp, #12]
    }
    int ret = sock_setsockopt(d_->sock, SOL_SOCKET, SO_SNDTIMEO, &tv, sizeof(tv));
   d8e0e:	6960      	ldr	r0, [r4, #20]
   d8e10:	2308      	movs	r3, #8
   d8e12:	9300      	str	r3, [sp, #0]
   d8e14:	f241 0205 	movw	r2, #4101	; 0x1005
   d8e18:	446b      	add	r3, sp
   d8e1a:	f640 71ff 	movw	r1, #4095	; 0xfff
   d8e1e:	6800      	ldr	r0, [r0, #0]
   d8e20:	f7fe fdb4 	bl	d798c <sock_setsockopt>
    if (ret < 0) {
   d8e24:	2800      	cmp	r0, #0
   d8e26:	db08      	blt.n	d8e3a <_ZN9TCPClient5writeEPKhjm+0x52>
        setWriteError(errno);
        return 0;
    }

    ret = sock_send(d_->sock, buffer, size, 0);
   d8e28:	6960      	ldr	r0, [r4, #20]
   d8e2a:	2300      	movs	r3, #0
   d8e2c:	4632      	mov	r2, r6
   d8e2e:	4629      	mov	r1, r5
   d8e30:	6800      	ldr	r0, [r0, #0]
   d8e32:	f7fe fdcb 	bl	d79cc <sock_send>
    if (ret < 0) {
   d8e36:	2800      	cmp	r0, #0
   d8e38:	da04      	bge.n	d8e44 <_ZN9TCPClient5writeEPKhjm+0x5c>
        setWriteError(errno);
   d8e3a:	f7fe ff8b 	bl	d7d54 <__errno>
   d8e3e:	6803      	ldr	r3, [r0, #0]
   d8e40:	6063      	str	r3, [r4, #4]
   d8e42:	2000      	movs	r0, #0
        return 0;
    }

    return ret;
}
   d8e44:	b004      	add	sp, #16
   d8e46:	bd70      	pop	{r4, r5, r6, pc}

000d8e48 <_ZNSt16_Sp_counted_baseILN9__gnu_cxx12_Lock_policyE0EE10_M_releaseEv.part.4.constprop.31>:
    _Sp_counted_base<_S_single>::_M_add_ref_copy()
    { ++_M_use_count; }

  template<>
    inline void
    _Sp_counted_base<_S_single>::_M_release() noexcept
   d8e48:	b510      	push	{r4, lr}
    {
      if (--_M_use_count == 0)
        {
          _M_dispose();
   d8e4a:	6803      	ldr	r3, [r0, #0]
    _Sp_counted_base<_S_single>::_M_add_ref_copy()
    { ++_M_use_count; }

  template<>
    inline void
    _Sp_counted_base<_S_single>::_M_release() noexcept
   d8e4c:	4604      	mov	r4, r0
    {
      if (--_M_use_count == 0)
        {
          _M_dispose();
   d8e4e:	689b      	ldr	r3, [r3, #8]
   d8e50:	4798      	blx	r3
          if (--_M_weak_count == 0)
   d8e52:	68a3      	ldr	r3, [r4, #8]
   d8e54:	3b01      	subs	r3, #1
   d8e56:	60a3      	str	r3, [r4, #8]
   d8e58:	b92b      	cbnz	r3, d8e66 <_ZNSt16_Sp_counted_baseILN9__gnu_cxx12_Lock_policyE0EE10_M_releaseEv.part.4.constprop.31+0x1e>
            _M_destroy();
   d8e5a:	6823      	ldr	r3, [r4, #0]
   d8e5c:	4620      	mov	r0, r4
   d8e5e:	68db      	ldr	r3, [r3, #12]
        }
    }
   d8e60:	e8bd 4010 	ldmia.w	sp!, {r4, lr}
    {
      if (--_M_use_count == 0)
        {
          _M_dispose();
          if (--_M_weak_count == 0)
            _M_destroy();
   d8e64:	4718      	bx	r3
   d8e66:	bd10      	pop	{r4, pc}

000d8e68 <_ZN9TCPClient8remoteIPEv>:

TCPClient::operator bool() {
   return (status() != 0);
}

IPAddress TCPClient::remoteIP() {
   d8e68:	b570      	push	{r4, r5, r6, lr}
   d8e6a:	4604      	mov	r4, r0
   d8e6c:	694d      	ldr	r5, [r1, #20]
   d8e6e:	4b05      	ldr	r3, [pc, #20]	; (d8e84 <_ZN9TCPClient8remoteIPEv+0x1c>)
   d8e70:	f844 3b04 	str.w	r3, [r4], #4
   d8e74:	358c      	adds	r5, #140	; 0x8c
   d8e76:	4606      	mov	r6, r0
   d8e78:	cd0f      	ldmia	r5!, {r0, r1, r2, r3}
   d8e7a:	c40f      	stmia	r4!, {r0, r1, r2, r3}
   d8e7c:	682b      	ldr	r3, [r5, #0]
   d8e7e:	7023      	strb	r3, [r4, #0]
    return d_->remoteIP;
}
   d8e80:	4630      	mov	r0, r6
   d8e82:	bd70      	pop	{r4, r5, r6, pc}
   d8e84:	000dbc00 	.word	0x000dbc00

000d8e88 <_ZN9TCPClient4peekEv>:
        d_->offset += read;
    }
    return read;
}

int TCPClient::peek() {
   d8e88:	b510      	push	{r4, lr}
   d8e8a:	6943      	ldr	r3, [r0, #20]
    return (bufferCount() || available()) ? d_->buffer[d_->offset] : -1;
   d8e8c:	f8b3 2086 	ldrh.w	r2, [r3, #134]	; 0x86
   d8e90:	f8b3 3084 	ldrh.w	r3, [r3, #132]	; 0x84
   d8e94:	429a      	cmp	r2, r3
        d_->offset += read;
    }
    return read;
}

int TCPClient::peek() {
   d8e96:	4604      	mov	r4, r0
    return (bufferCount() || available()) ? d_->buffer[d_->offset] : -1;
   d8e98:	d005      	beq.n	d8ea6 <_ZN9TCPClient4peekEv+0x1e>
   d8e9a:	6962      	ldr	r2, [r4, #20]
   d8e9c:	f8b2 3084 	ldrh.w	r3, [r2, #132]	; 0x84
   d8ea0:	4413      	add	r3, r2
   d8ea2:	7918      	ldrb	r0, [r3, #4]
   d8ea4:	bd10      	pop	{r4, pc}
   d8ea6:	6803      	ldr	r3, [r0, #0]
   d8ea8:	691b      	ldr	r3, [r3, #16]
   d8eaa:	4798      	blx	r3
   d8eac:	2800      	cmp	r0, #0
   d8eae:	d1f4      	bne.n	d8e9a <_ZN9TCPClient4peekEv+0x12>
   d8eb0:	f04f 30ff 	mov.w	r0, #4294967295	; 0xffffffff
}
   d8eb4:	bd10      	pop	{r4, pc}

000d8eb6 <_ZN9TCPClient4readEv>:
    } // isOpen(d_->sock)
    avail = bufferCount();
    return avail;
}

int TCPClient::read() {
   d8eb6:	b510      	push	{r4, lr}
   d8eb8:	6943      	ldr	r3, [r0, #20]
    return (bufferCount() || available()) ? d_->buffer[d_->offset++] : -1;
   d8eba:	f8b3 2086 	ldrh.w	r2, [r3, #134]	; 0x86
   d8ebe:	f8b3 3084 	ldrh.w	r3, [r3, #132]	; 0x84
   d8ec2:	429a      	cmp	r2, r3
    } // isOpen(d_->sock)
    avail = bufferCount();
    return avail;
}

int TCPClient::read() {
   d8ec4:	4604      	mov	r4, r0
    return (bufferCount() || available()) ? d_->buffer[d_->offset++] : -1;
   d8ec6:	d008      	beq.n	d8eda <_ZN9TCPClient4readEv+0x24>
   d8ec8:	6962      	ldr	r2, [r4, #20]
   d8eca:	f8b2 3084 	ldrh.w	r3, [r2, #132]	; 0x84
   d8ece:	1c59      	adds	r1, r3, #1
   d8ed0:	4413      	add	r3, r2
   d8ed2:	f8a2 1084 	strh.w	r1, [r2, #132]	; 0x84
   d8ed6:	7918      	ldrb	r0, [r3, #4]
   d8ed8:	bd10      	pop	{r4, pc}
   d8eda:	6803      	ldr	r3, [r0, #0]
   d8edc:	691b      	ldr	r3, [r3, #16]
   d8ede:	4798      	blx	r3
   d8ee0:	2800      	cmp	r0, #0
   d8ee2:	d1f1      	bne.n	d8ec8 <_ZN9TCPClient4readEv+0x12>
   d8ee4:	f04f 30ff 	mov.w	r0, #4294967295	; 0xffffffff
}
   d8ee8:	bd10      	pop	{r4, pc}
	...

000d8eec <_ZN9TCPClientD1Ev>:
class TCPClient : public Client {

public:
    TCPClient();
    TCPClient(sock_handle_t sock);
    virtual ~TCPClient() {};
   d8eec:	b510      	push	{r4, lr}
   d8eee:	4b06      	ldr	r3, [pc, #24]	; (d8f08 <_ZN9TCPClientD1Ev+0x1c>)
   d8ef0:	6003      	str	r3, [r0, #0]
   d8ef2:	4604      	mov	r4, r0
      // Does not throw if __r._M_get_use_count() == 0, caller must check.
      explicit __shared_count(const __weak_count<_Lp>& __r, std::nothrow_t);

      ~__shared_count() noexcept
      {
	if (_M_pi != nullptr)
   d8ef4:	6980      	ldr	r0, [r0, #24]
   d8ef6:	b128      	cbz	r0, d8f04 <_ZN9TCPClientD1Ev+0x18>

  template<>
    inline void
    _Sp_counted_base<_S_single>::_M_release() noexcept
    {
      if (--_M_use_count == 0)
   d8ef8:	6843      	ldr	r3, [r0, #4]
   d8efa:	3b01      	subs	r3, #1
   d8efc:	6043      	str	r3, [r0, #4]
   d8efe:	b90b      	cbnz	r3, d8f04 <_ZN9TCPClientD1Ev+0x18>
   d8f00:	f7ff ffa2 	bl	d8e48 <_ZNSt16_Sp_counted_baseILN9__gnu_cxx12_Lock_policyE0EE10_M_releaseEv.part.4.constprop.31>
   d8f04:	4620      	mov	r0, r4
   d8f06:	bd10      	pop	{r4, pc}
   d8f08:	000dbd84 	.word	0x000dbd84

000d8f0c <_ZN9TCPClientD0Ev>:
   d8f0c:	b510      	push	{r4, lr}
   d8f0e:	4604      	mov	r4, r0
   d8f10:	f7ff ffec 	bl	d8eec <_ZN9TCPClientD1Ev>
   d8f14:	4620      	mov	r0, r4
   d8f16:	211c      	movs	r1, #28
   d8f18:	f000 fcb1 	bl	d987e <_ZdlPvj>
   d8f1c:	4620      	mov	r0, r4
   d8f1e:	bd10      	pop	{r4, pc}

000d8f20 <_ZN9TCPClient4readEPhj>:

int TCPClient::read(uint8_t *buffer, size_t size) {
   d8f20:	b5f8      	push	{r3, r4, r5, r6, r7, lr}
   d8f22:	6943      	ldr	r3, [r0, #20]
   d8f24:	4617      	mov	r7, r2
    int read = -1;
    if (bufferCount() || available()) {
   d8f26:	f8b3 2086 	ldrh.w	r2, [r3, #134]	; 0x86
   d8f2a:	f8b3 3084 	ldrh.w	r3, [r3, #132]	; 0x84
   d8f2e:	429a      	cmp	r2, r3

int TCPClient::read() {
    return (bufferCount() || available()) ? d_->buffer[d_->offset++] : -1;
}

int TCPClient::read(uint8_t *buffer, size_t size) {
   d8f30:	4605      	mov	r5, r0
   d8f32:	460e      	mov	r6, r1
    int read = -1;
    if (bufferCount() || available()) {
   d8f34:	d106      	bne.n	d8f44 <_ZN9TCPClient4readEPhj+0x24>
   d8f36:	6803      	ldr	r3, [r0, #0]
   d8f38:	691b      	ldr	r3, [r3, #16]
   d8f3a:	4798      	blx	r3
   d8f3c:	b910      	cbnz	r0, d8f44 <_ZN9TCPClient4readEPhj+0x24>
int TCPClient::read() {
    return (bufferCount() || available()) ? d_->buffer[d_->offset++] : -1;
}

int TCPClient::read(uint8_t *buffer, size_t size) {
    int read = -1;
   d8f3e:	f04f 34ff 	mov.w	r4, #4294967295	; 0xffffffff
   d8f42:	e014      	b.n	d8f6e <_ZN9TCPClient4readEPhj+0x4e>
   d8f44:	6969      	ldr	r1, [r5, #20]

    return ret;
}

int TCPClient::bufferCount() {
    return d_->total - d_->offset;
   d8f46:	f8b1 3084 	ldrh.w	r3, [r1, #132]	; 0x84
   d8f4a:	f8b1 4086 	ldrh.w	r4, [r1, #134]	; 0x86
   d8f4e:	1ae4      	subs	r4, r4, r3
}

int TCPClient::read(uint8_t *buffer, size_t size) {
    int read = -1;
    if (bufferCount() || available()) {
        read = (size > (size_t) bufferCount()) ? bufferCount() : size;
   d8f50:	42bc      	cmp	r4, r7
   d8f52:	bf28      	it	cs
   d8f54:	463c      	movcs	r4, r7
        memcpy(buffer, &d_->buffer[d_->offset], read);
   d8f56:	4419      	add	r1, r3
   d8f58:	4622      	mov	r2, r4
   d8f5a:	3104      	adds	r1, #4
   d8f5c:	4630      	mov	r0, r6
   d8f5e:	f001 fb1b 	bl	da598 <memcpy>
   d8f62:	696a      	ldr	r2, [r5, #20]
        d_->offset += read;
   d8f64:	f8b2 3084 	ldrh.w	r3, [r2, #132]	; 0x84
   d8f68:	4423      	add	r3, r4
   d8f6a:	f8a2 3084 	strh.w	r3, [r2, #132]	; 0x84
    }
    return read;
}
   d8f6e:	4620      	mov	r0, r4
   d8f70:	bdf8      	pop	{r3, r4, r5, r6, r7, pc}

000d8f72 <_ZN9TCPClient12flush_bufferEv>:

int TCPClient::peek() {
    return (bufferCount() || available()) ? d_->buffer[d_->offset] : -1;
}

void TCPClient::flush_buffer() {
   d8f72:	6942      	ldr	r2, [r0, #20]
    d_->offset = 0;
   d8f74:	2300      	movs	r3, #0
   d8f76:	f8a2 3084 	strh.w	r3, [r2, #132]	; 0x84
   d8f7a:	6942      	ldr	r2, [r0, #20]
    d_->total = 0;
   d8f7c:	f8a2 3086 	strh.w	r3, [r2, #134]	; 0x86
   d8f80:	4770      	bx	lr

000d8f82 <_ZN9TCPClient7connectE9IPAddresstm>:
    }

    return -1;
}

int TCPClient::connect(IPAddress ip, uint16_t port, network_interface_t nif) {
   d8f82:	e92d 41f0 	stmdb	sp!, {r4, r5, r6, r7, r8, lr}
   d8f86:	4698      	mov	r8, r3
    stop();
   d8f88:	6803      	ldr	r3, [r0, #0]
    }

    return -1;
}

int TCPClient::connect(IPAddress ip, uint16_t port, network_interface_t nif) {
   d8f8a:	460d      	mov	r5, r1
   d8f8c:	b08a      	sub	sp, #40	; 0x28
    stop();
   d8f8e:	6adb      	ldr	r3, [r3, #44]	; 0x2c
    }

    return -1;
}

int TCPClient::connect(IPAddress ip, uint16_t port, network_interface_t nif) {
   d8f90:	4606      	mov	r6, r0
   d8f92:	4617      	mov	r7, r2
    stop();
   d8f94:	4798      	blx	r3

    NAMED_SCOPE_GUARD(done, {
        stop();
    });

    d_->sock = sock_socket(ip.version() == 4 ? AF_INET : AF_INET6, SOCK_STREAM, IPPROTO_TCP);
   d8f96:	7d2b      	ldrb	r3, [r5, #20]
   d8f98:	6974      	ldr	r4, [r6, #20]
   d8f9a:	2b04      	cmp	r3, #4
   d8f9c:	bf0c      	ite	eq
   d8f9e:	2002      	moveq	r0, #2
   d8fa0:	200a      	movne	r0, #10
   d8fa2:	2206      	movs	r2, #6
   d8fa4:	2101      	movs	r1, #1
   d8fa6:	f7fe fd19 	bl	d79dc <sock_socket>
   d8faa:	6020      	str	r0, [r4, #0]
    CHECK(d_->sock);
   d8fac:	6973      	ldr	r3, [r6, #20]
   d8fae:	681c      	ldr	r4, [r3, #0]
   d8fb0:	2c00      	cmp	r4, #0
   d8fb2:	db5b      	blt.n	d906c <_ZN9TCPClient7connectE9IPAddresstm+0xea>

    flush_buffer();
   d8fb4:	4630      	mov	r0, r6
   d8fb6:	f7ff ffdc 	bl	d8f72 <_ZN9TCPClient12flush_bufferEv>

#if HAL_PLATFORM_IFAPI
    // TODO: provide compatibility headers and use if_indextoname()
    if (nif != 0) {
   d8fba:	f1b8 0f00 	cmp.w	r8, #0
   d8fbe:	d017      	beq.n	d8ff0 <_ZN9TCPClient7connectE9IPAddresstm+0x6e>
        struct ifreq ifr = {};
   d8fc0:	2300      	movs	r3, #0
        CHECK(if_index_to_name(nif, ifr.ifr_name));
   d8fc2:	a903      	add	r1, sp, #12
   d8fc4:	fa5f f088 	uxtb.w	r0, r8
    flush_buffer();

#if HAL_PLATFORM_IFAPI
    // TODO: provide compatibility headers and use if_indextoname()
    if (nif != 0) {
        struct ifreq ifr = {};
   d8fc8:	9303      	str	r3, [sp, #12]
   d8fca:	f8ad 3010 	strh.w	r3, [sp, #16]
        CHECK(if_index_to_name(nif, ifr.ifr_name));
   d8fce:	f7fe fca5 	bl	d791c <if_index_to_name>
   d8fd2:	2800      	cmp	r0, #0
   d8fd4:	db49      	blt.n	d906a <_ZN9TCPClient7connectE9IPAddresstm+0xe8>
        CHECK(sock_setsockopt(d_->sock, SOL_SOCKET, SO_BINDTODEVICE, &ifr, sizeof(ifr)));
   d8fd6:	6970      	ldr	r0, [r6, #20]
   d8fd8:	2306      	movs	r3, #6
   d8fda:	9300      	str	r3, [sp, #0]
   d8fdc:	f241 020b 	movw	r2, #4107	; 0x100b
   d8fe0:	ab03      	add	r3, sp, #12
   d8fe2:	f640 71ff 	movw	r1, #4095	; 0xfff
   d8fe6:	6800      	ldr	r0, [r0, #0]
   d8fe8:	f7fe fcd0 	bl	d798c <sock_setsockopt>
   d8fec:	2800      	cmp	r0, #0
   d8fee:	db3c      	blt.n	d906a <_ZN9TCPClient7connectE9IPAddresstm+0xe8>
    }
#endif // HAL_PLATFORM_IFAPI

    sockaddr_storage saddr = {};
   d8ff0:	241c      	movs	r4, #28
   d8ff2:	4622      	mov	r2, r4
   d8ff4:	2100      	movs	r1, #0
   d8ff6:	a803      	add	r0, sp, #12
   d8ff8:	f001 fad9 	bl	da5ae <memset>
    if (ip.version() == 4) {
   d8ffc:	7d2b      	ldrb	r3, [r5, #20]
        auto s = (sockaddr_in*)&saddr;
        s->sin_len = sizeof(saddr);
   d8ffe:	f88d 400c 	strb.w	r4, [sp, #12]
        CHECK(sock_setsockopt(d_->sock, SOL_SOCKET, SO_BINDTODEVICE, &ifr, sizeof(ifr)));
    }
#endif // HAL_PLATFORM_IFAPI

    sockaddr_storage saddr = {};
    if (ip.version() == 4) {
   d9002:	2b04      	cmp	r3, #4
   d9004:	d10c      	bne.n	d9020 <_ZN9TCPClient7connectE9IPAddresstm+0x9e>
        auto s = (sockaddr_in*)&saddr;
        s->sin_len = sizeof(saddr);
        s->sin_family = AF_INET;
   d9006:	2302      	movs	r3, #2
        s->sin_port = htons(port);
   d9008:	4638      	mov	r0, r7

    sockaddr_storage saddr = {};
    if (ip.version() == 4) {
        auto s = (sockaddr_in*)&saddr;
        s->sin_len = sizeof(saddr);
        s->sin_family = AF_INET;
   d900a:	f88d 300d 	strb.w	r3, [sp, #13]
        s->sin_port = htons(port);
   d900e:	f7fe fc9d 	bl	d794c <inet_htons>
   d9012:	f8ad 000e 	strh.w	r0, [sp, #14]
        s->sin_addr.s_addr = htonl(ip.raw().ipv4);
   d9016:	6868      	ldr	r0, [r5, #4]
   d9018:	f7fe fc90 	bl	d793c <inet_htonl>
   d901c:	9004      	str	r0, [sp, #16]
   d901e:	e013      	b.n	d9048 <_ZN9TCPClient7connectE9IPAddresstm+0xc6>
    } else {
        auto s = (sockaddr_in6*)&saddr;
        s->sin6_len = sizeof(saddr);
        s->sin6_family = AF_INET6;
   d9020:	230a      	movs	r3, #10
        s->sin6_port = htons(port);
   d9022:	4638      	mov	r0, r7
        s->sin_port = htons(port);
        s->sin_addr.s_addr = htonl(ip.raw().ipv4);
    } else {
        auto s = (sockaddr_in6*)&saddr;
        s->sin6_len = sizeof(saddr);
        s->sin6_family = AF_INET6;
   d9024:	f88d 300d 	strb.w	r3, [sp, #13]
        s->sin6_port = htons(port);
   d9028:	f7fe fc90 	bl	d794c <inet_htons>
        memcpy(s->sin6_addr.s6_addr, ip.raw().ipv6, sizeof(s->sin6_addr.s6_addr));
   d902c:	ac05      	add	r4, sp, #20
        s->sin_addr.s_addr = htonl(ip.raw().ipv4);
    } else {
        auto s = (sockaddr_in6*)&saddr;
        s->sin6_len = sizeof(saddr);
        s->sin6_family = AF_INET6;
        s->sin6_port = htons(port);
   d902e:	f8ad 000e 	strh.w	r0, [sp, #14]
        memcpy(s->sin6_addr.s6_addr, ip.raw().ipv6, sizeof(s->sin6_addr.s6_addr));
   d9032:	1d2b      	adds	r3, r5, #4
   d9034:	f105 0714 	add.w	r7, r5, #20
   d9038:	6818      	ldr	r0, [r3, #0]
   d903a:	6859      	ldr	r1, [r3, #4]
   d903c:	4622      	mov	r2, r4
   d903e:	c203      	stmia	r2!, {r0, r1}
   d9040:	3308      	adds	r3, #8
   d9042:	42bb      	cmp	r3, r7
   d9044:	4614      	mov	r4, r2
   d9046:	d1f7      	bne.n	d9038 <_ZN9TCPClient7connectE9IPAddresstm+0xb6>
    }

    // FIXME: timeout?
    CHECK(sock_connect(d_->sock, (const sockaddr*)&saddr, sizeof(saddr)));
   d9048:	6973      	ldr	r3, [r6, #20]
   d904a:	221c      	movs	r2, #28
   d904c:	a903      	add	r1, sp, #12
   d904e:	6818      	ldr	r0, [r3, #0]
   d9050:	f7fe fcac 	bl	d79ac <sock_connect>
   d9054:	2800      	cmp	r0, #0
   d9056:	db08      	blt.n	d906a <_ZN9TCPClient7connectE9IPAddresstm+0xe8>
   d9058:	1d2c      	adds	r4, r5, #4
   d905a:	cc0f      	ldmia	r4!, {r0, r1, r2, r3}
   d905c:	6976      	ldr	r6, [r6, #20]
   d905e:	368c      	adds	r6, #140	; 0x8c
   d9060:	c60f      	stmia	r6!, {r0, r1, r2, r3}
   d9062:	6823      	ldr	r3, [r4, #0]
   d9064:	7033      	strb	r3, [r6, #0]

    d_->remoteIP = ip;

    done.dismiss();
    // Why not 0?
    return 1;
   d9066:	2401      	movs	r4, #1
   d9068:	e004      	b.n	d9074 <_ZN9TCPClient7connectE9IPAddresstm+0xf2>
   d906a:	4604      	mov	r4, r0
}

int TCPClient::connect(IPAddress ip, uint16_t port, network_interface_t nif) {
    stop();

    NAMED_SCOPE_GUARD(done, {
   d906c:	6833      	ldr	r3, [r6, #0]
   d906e:	4630      	mov	r0, r6
   d9070:	6adb      	ldr	r3, [r3, #44]	; 0x2c
   d9072:	4798      	blx	r3
    d_->remoteIP = ip;

    done.dismiss();
    // Why not 0?
    return 1;
}
   d9074:	4620      	mov	r0, r4
   d9076:	b00a      	add	sp, #40	; 0x28
   d9078:	e8bd 81f0 	ldmia.w	sp!, {r4, r5, r6, r7, r8, pc}

000d907c <_ZN9TCPClient4stopEv>:
}

void TCPClient::flush() {
}

void TCPClient::stop() {
   d907c:	b510      	push	{r4, lr}
    if (isOpen(d_->sock)) {
   d907e:	6943      	ldr	r3, [r0, #20]
}

void TCPClient::flush() {
}

void TCPClient::stop() {
   d9080:	4604      	mov	r4, r0
    if (isOpen(d_->sock)) {
   d9082:	6818      	ldr	r0, [r3, #0]
   d9084:	2800      	cmp	r0, #0
   d9086:	db01      	blt.n	d908c <_ZN9TCPClient4stopEv+0x10>
        sock_close(d_->sock);
   d9088:	f7fe fc88 	bl	d799c <sock_close>
   d908c:	6963      	ldr	r3, [r4, #20]
    }
    d_->sock = -1;
   d908e:	f04f 32ff 	mov.w	r2, #4294967295	; 0xffffffff
   d9092:	601a      	str	r2, [r3, #0]
        return address;
    }

    virtual size_t printTo(Print& p) const;

    void clear() { memset(&address, 0, sizeof (address)); }
   d9094:	6960      	ldr	r0, [r4, #20]
   d9096:	2211      	movs	r2, #17
   d9098:	2100      	movs	r1, #0
   d909a:	308c      	adds	r0, #140	; 0x8c
   d909c:	f001 fa87 	bl	da5ae <memset>
    d_->remoteIP.clear();
    flush_buffer();
   d90a0:	4620      	mov	r0, r4
}
   d90a2:	e8bd 4010 	ldmia.w	sp!, {r4, lr}
    if (isOpen(d_->sock)) {
        sock_close(d_->sock);
    }
    d_->sock = -1;
    d_->remoteIP.clear();
    flush_buffer();
   d90a6:	f7ff bf64 	b.w	d8f72 <_ZN9TCPClient12flush_bufferEv>
	...

000d90ac <_ZN9TCPClient9availableEv>:
int TCPClient::bufferCount() {
    return d_->total - d_->offset;
}

int TCPClient::available()
{
   d90ac:	b530      	push	{r4, r5, lr}
   d90ae:	6942      	ldr	r2, [r0, #20]
    int avail = 0;

    // At EOB => Flush it
    if (d_->total && (d_->offset == d_->total)) {
   d90b0:	f8b2 3086 	ldrh.w	r3, [r2, #134]	; 0x86
int TCPClient::bufferCount() {
    return d_->total - d_->offset;
}

int TCPClient::available()
{
   d90b4:	b08b      	sub	sp, #44	; 0x2c
   d90b6:	4604      	mov	r4, r0
    int avail = 0;

    // At EOB => Flush it
    if (d_->total && (d_->offset == d_->total)) {
   d90b8:	b11b      	cbz	r3, d90c2 <_ZN9TCPClient9availableEv+0x16>
   d90ba:	f8b2 2084 	ldrh.w	r2, [r2, #132]	; 0x84
   d90be:	429a      	cmp	r2, r3
   d90c0:	d040      	beq.n	d9144 <_ZN9TCPClient9availableEv+0x98>
   d90c2:	6963      	ldr	r3, [r4, #20]
        flush_buffer();
    }

    if (isOpen(d_->sock)) {
   d90c4:	6818      	ldr	r0, [r3, #0]
   d90c6:	2800      	cmp	r0, #0
   d90c8:	db3f      	blt.n	d914a <_ZN9TCPClient9availableEv+0x9e>
        // Have room
        if (d_->total < arraySize(d_->buffer)) {
   d90ca:	f8b3 5086 	ldrh.w	r5, [r3, #134]	; 0x86
   d90ce:	2d7f      	cmp	r5, #127	; 0x7f
   d90d0:	d83b      	bhi.n	d914a <_ZN9TCPClient9availableEv+0x9e>
            int ret = sock_recv(d_->sock, d_->buffer + d_->total, arraySize(d_->buffer) - d_->total, MSG_DONTWAIT);
   d90d2:	1d19      	adds	r1, r3, #4
   d90d4:	f1c5 0280 	rsb	r2, r5, #128	; 0x80
   d90d8:	2308      	movs	r3, #8
   d90da:	4429      	add	r1, r5
   d90dc:	f7fe fc6e 	bl	d79bc <sock_recv>
            if (ret > 0) {
   d90e0:	2800      	cmp	r0, #0
   d90e2:	dd0c      	ble.n	d90fe <_ZN9TCPClient9availableEv+0x52>
   d90e4:	6963      	ldr	r3, [r4, #20]
                if (d_->total == 0) {
   d90e6:	f8b3 2086 	ldrh.w	r2, [r3, #134]	; 0x86
   d90ea:	b90a      	cbnz	r2, d90f0 <_ZN9TCPClient9availableEv+0x44>
                    d_->offset = 0;
   d90ec:	f8a3 2084 	strh.w	r2, [r3, #132]	; 0x84
   d90f0:	6962      	ldr	r2, [r4, #20]
                }
                d_->total += ret;
   d90f2:	f8b2 3086 	ldrh.w	r3, [r2, #134]	; 0x86
   d90f6:	4418      	add	r0, r3
   d90f8:	f8a2 0086 	strh.w	r0, [r2, #134]	; 0x86
   d90fc:	e025      	b.n	d914a <_ZN9TCPClient9availableEv+0x9e>
            } else {
                if (errno != EAGAIN && errno != EWOULDBLOCK) {
   d90fe:	f7fe fe29 	bl	d7d54 <__errno>
   d9102:	6803      	ldr	r3, [r0, #0]
   d9104:	2b0b      	cmp	r3, #11
   d9106:	d020      	beq.n	d914a <_ZN9TCPClient9availableEv+0x9e>
   d9108:	f7fe fe24 	bl	d7d54 <__errno>
   d910c:	6803      	ldr	r3, [r0, #0]
   d910e:	2b0b      	cmp	r3, #11
   d9110:	d01b      	beq.n	d914a <_ZN9TCPClient9availableEv+0x9e>
                    LOG(ERROR, "recv error = %d", errno);
   d9112:	2320      	movs	r3, #32
   d9114:	2500      	movs	r5, #0
   d9116:	9302      	str	r3, [sp, #8]
   d9118:	9503      	str	r5, [sp, #12]
   d911a:	f7fe fe1b 	bl	d7d54 <__errno>
   d911e:	6803      	ldr	r3, [r0, #0]
   d9120:	9301      	str	r3, [sp, #4]
   d9122:	4b0e      	ldr	r3, [pc, #56]	; (d915c <_ZN9TCPClient9availableEv+0xb0>)
   d9124:	9300      	str	r3, [sp, #0]
   d9126:	aa02      	add	r2, sp, #8
   d9128:	462b      	mov	r3, r5
   d912a:	490d      	ldr	r1, [pc, #52]	; (d9160 <_ZN9TCPClient9availableEv+0xb4>)
   d912c:	2032      	movs	r0, #50	; 0x32
   d912e:	f7fe fced 	bl	d7b0c <log_message>
                    sock_close(d_->sock);
   d9132:	6963      	ldr	r3, [r4, #20]
   d9134:	6818      	ldr	r0, [r3, #0]
   d9136:	f7fe fc31 	bl	d799c <sock_close>
   d913a:	6963      	ldr	r3, [r4, #20]
                    d_->sock = -1;
   d913c:	f04f 32ff 	mov.w	r2, #4294967295	; 0xffffffff
   d9140:	601a      	str	r2, [r3, #0]
   d9142:	e002      	b.n	d914a <_ZN9TCPClient9availableEv+0x9e>
{
    int avail = 0;

    // At EOB => Flush it
    if (d_->total && (d_->offset == d_->total)) {
        flush_buffer();
   d9144:	f7ff ff15 	bl	d8f72 <_ZN9TCPClient12flush_bufferEv>
   d9148:	e7bb      	b.n	d90c2 <_ZN9TCPClient9availableEv+0x16>
   d914a:	6962      	ldr	r2, [r4, #20]
                }
            }
        } // Have Space
    } // isOpen(d_->sock)
    avail = bufferCount();
    return avail;
   d914c:	f8b2 3086 	ldrh.w	r3, [r2, #134]	; 0x86
   d9150:	f8b2 0084 	ldrh.w	r0, [r2, #132]	; 0x84
   d9154:	1a18      	subs	r0, r3, r0
}
   d9156:	b00b      	add	sp, #44	; 0x2c
   d9158:	bd30      	pop	{r4, r5, pc}
   d915a:	bf00      	nop
   d915c:	000dbdcf 	.word	0x000dbdcf
   d9160:	000dbdc8 	.word	0x000dbdc8

000d9164 <_ZN9TCPClient4DataC1Ei>:

IPAddress TCPClient::remoteIP() {
    return d_->remoteIP;
}

TCPClient::Data::Data(sock_handle_t sock)
   d9164:	b510      	push	{r4, lr}
        : sock(sock),
          offset(0),
          total(0) {
   d9166:	2300      	movs	r3, #0

IPAddress TCPClient::remoteIP() {
    return d_->remoteIP;
}

TCPClient::Data::Data(sock_handle_t sock)
   d9168:	4604      	mov	r4, r0
        : sock(sock),
          offset(0),
          total(0) {
   d916a:	6001      	str	r1, [r0, #0]
   d916c:	f8a0 3084 	strh.w	r3, [r0, #132]	; 0x84
   d9170:	f8a0 3086 	strh.w	r3, [r0, #134]	; 0x86
   d9174:	3088      	adds	r0, #136	; 0x88
   d9176:	f7ff f98d 	bl	d8494 <_ZN9IPAddressC1Ev>
}
   d917a:	4620      	mov	r0, r4
   d917c:	bd10      	pop	{r4, pc}
	...

000d9180 <_ZN9TCPClientC1Ei>:
   d9180:	f44f 727a 	mov.w	r2, #1000	; 0x3e8

TCPClient::TCPClient()
        : TCPClient(-1) {
}

TCPClient::TCPClient(sock_handle_t sock)
   d9184:	b570      	push	{r4, r5, r6, lr}
    size_t printf_impl(bool newline, const char* format, ...);

  public:
    Print() : write_error(0) {}
   d9186:	2300      	movs	r3, #0
   d9188:	6082      	str	r2, [r0, #8]
        : d_(std::make_shared<Data>(sock)) {
   d918a:	4a14      	ldr	r2, [pc, #80]	; (d91dc <_ZN9TCPClientC1Ei+0x5c>)
   d918c:	6043      	str	r3, [r0, #4]
   d918e:	6002      	str	r2, [r0, #0]
        };

      template<typename _Alloc, typename... _Args>
	__shared_ptr(_Sp_make_shared_tag __tag, const _Alloc& __a,
		     _Args&&... __args)
	: _M_ptr(), _M_refcount()
   d9190:	6143      	str	r3, [r0, #20]

  template<_Lock_policy _Lp>
    class __shared_count
    {
    public:
      constexpr __shared_count() noexcept : _M_pi(0)
   d9192:	6183      	str	r3, [r0, #24]

TCPClient::TCPClient()
        : TCPClient(-1) {
}

TCPClient::TCPClient(sock_handle_t sock)
   d9194:	4604      	mov	r4, r0
      allocate(size_type __n, const void* = 0)
      { 
	if (__n > this->max_size())
	  std::__throw_bad_alloc();

	return static_cast<_Tp*>(::operator new(__n * sizeof(_Tp)));
   d9196:	20a0      	movs	r0, #160	; 0xa0
   d9198:	460e      	mov	r6, r1
   d919a:	f7fa ff7c 	bl	d4096 <_Znwj>

#if __cplusplus >= 201103L
      template<typename _Up, typename... _Args>
        void
        construct(_Up* __p, _Args&&... __args)
	{ ::new((void *)__p) _Up(std::forward<_Args>(__args)...); }
   d919e:	4605      	mov	r5, r0
   d91a0:	b110      	cbz	r0, d91a8 <_ZN9TCPClientC1Ei+0x28>
   d91a2:	4631      	mov	r1, r6
   d91a4:	f7ff ffde 	bl	d9164 <_ZN9TCPClient4DataC1Ei>
      allocate(size_type __n, const void* = 0)
      { 
	if (__n > this->max_size())
	  std::__throw_bad_alloc();

	return static_cast<_Tp*>(::operator new(__n * sizeof(_Tp)));
   d91a8:	2014      	movs	r0, #20
   d91aa:	f7fa ff74 	bl	d4096 <_Znwj>
	  __try
	    {
	      typename _Sp_cd_type::__allocator_type __a2(__a);
	      auto __guard = std::__allocate_guarded(__a2);
	      _Sp_cd_type* __mem = __guard.get();
	      ::new (__mem) _Sp_cd_type(__p, std::move(__d), std::move(__a));
   d91ae:	4603      	mov	r3, r0
   d91b0:	b128      	cbz	r0, d91be <_ZN9TCPClientC1Ei+0x3e>
    class _Sp_counted_base
    : public _Mutex_base<_Lp>
    {
    public:  
      _Sp_counted_base() noexcept
      : _M_use_count(1), _M_weak_count(1) { }
   d91b2:	2201      	movs	r2, #1
   d91b4:	6042      	str	r2, [r0, #4]
   d91b6:	6082      	str	r2, [r0, #8]
      _Sp_counted_deleter(_Ptr __p, _Deleter __d) noexcept
      : _M_impl(__p, __d, _Alloc()) { }

      // __d(__p) must not throw.
      _Sp_counted_deleter(_Ptr __p, _Deleter __d, const _Alloc& __a) noexcept
      : _M_impl(__p, __d, __a) { }
   d91b8:	4a09      	ldr	r2, [pc, #36]	; (d91e0 <_ZN9TCPClientC1Ei+0x60>)
   d91ba:	6002      	str	r2, [r0, #0]
	typedef _Sp_ebo_helper<0, _Deleter>	_Del_base;
	typedef _Sp_ebo_helper<1, _Alloc>	_Alloc_base;

      public:
	_Impl(_Ptr __p, _Deleter __d, const _Alloc& __a) noexcept
	: _M_ptr(__p), _Del_base(__d), _Alloc_base(__a)
   d91bc:	6105      	str	r5, [r0, #16]

      void
      _M_swap(__shared_count& __r) noexcept
      {
	_Sp_counted_base<_Lp>* __tmp = __r._M_pi;
	__r._M_pi = _M_pi;
   d91be:	69a0      	ldr	r0, [r4, #24]
	  __traits::construct(__del._M_alloc, __ptr,
			      std::forward<_Args>(__args)...);
	  __guard = nullptr;
	  __shared_count<_Lp> __count(__ptr, __del, __del._M_alloc);
	  _M_refcount._M_swap(__count);
	  _M_ptr = __ptr;
   d91c0:	6165      	str	r5, [r4, #20]
      void
      _M_swap(__shared_count& __r) noexcept
      {
	_Sp_counted_base<_Lp>* __tmp = __r._M_pi;
	__r._M_pi = _M_pi;
	_M_pi = __tmp;
   d91c2:	61a3      	str	r3, [r4, #24]
      // Does not throw if __r._M_get_use_count() == 0, caller must check.
      explicit __shared_count(const __weak_count<_Lp>& __r, std::nothrow_t);

      ~__shared_count() noexcept
      {
	if (_M_pi != nullptr)
   d91c4:	b128      	cbz	r0, d91d2 <_ZN9TCPClientC1Ei+0x52>

  template<>
    inline void
    _Sp_counted_base<_S_single>::_M_release() noexcept
    {
      if (--_M_use_count == 0)
   d91c6:	6843      	ldr	r3, [r0, #4]
   d91c8:	3b01      	subs	r3, #1
   d91ca:	6043      	str	r3, [r0, #4]
   d91cc:	b90b      	cbnz	r3, d91d2 <_ZN9TCPClientC1Ei+0x52>
   d91ce:	f7ff fe3b 	bl	d8e48 <_ZNSt16_Sp_counted_baseILN9__gnu_cxx12_Lock_policyE0EE10_M_releaseEv.part.4.constprop.31>
        : d_(std::make_shared<Data>(sock)) {
    flush_buffer();
   d91d2:	4620      	mov	r0, r4
   d91d4:	f7ff fecd 	bl	d8f72 <_ZN9TCPClient12flush_bufferEv>
}
   d91d8:	4620      	mov	r0, r4
   d91da:	bd70      	pop	{r4, r5, r6, pc}
   d91dc:	000dbd84 	.word	0x000dbd84
   d91e0:	000dbd68 	.word	0x000dbd68

000d91e4 <_ZN9TCPClientC1Ev>:

static bool inline isOpen(sock_handle_t sd) {
    return socket_handle_valid(sd);
}

TCPClient::TCPClient()
   d91e4:	b510      	push	{r4, lr}
        : TCPClient(-1) {
   d91e6:	f04f 31ff 	mov.w	r1, #4294967295	; 0xffffffff

static bool inline isOpen(sock_handle_t sd) {
    return socket_handle_valid(sd);
}

TCPClient::TCPClient()
   d91ea:	4604      	mov	r4, r0
        : TCPClient(-1) {
   d91ec:	f7ff ffc8 	bl	d9180 <_ZN9TCPClientC1Ei>
}
   d91f0:	4620      	mov	r0, r4
   d91f2:	bd10      	pop	{r4, pc}

000d91f4 <_ZN9TCPClient4DataD1Ev>:
        : sock(sock),
          offset(0),
          total(0) {
}

TCPClient::Data::~Data() {
   d91f4:	b510      	push	{r4, lr}
   d91f6:	4604      	mov	r4, r0
    if (socket_handle_valid(sock)) {
   d91f8:	6800      	ldr	r0, [r0, #0]
   d91fa:	2800      	cmp	r0, #0
   d91fc:	db01      	blt.n	d9202 <_ZN9TCPClient4DataD1Ev+0xe>
        sock_close(sock);
   d91fe:	f7fe fbcd 	bl	d799c <sock_close>
    }
}
   d9202:	4620      	mov	r0, r4
   d9204:	bd10      	pop	{r4, pc}

000d9206 <_ZNSt19_Sp_counted_deleterIPN9TCPClient4DataENSt12__shared_ptrIS1_LN9__gnu_cxx12_Lock_policyE0EE8_DeleterISaIS1_EEES8_LS5_0EE10_M_disposeEv>:
      : _M_impl(__p, __d, __a) { }

      ~_Sp_counted_deleter() noexcept { }

      virtual void
      _M_dispose() noexcept
   d9206:	b510      	push	{r4, lr}
      { _M_impl._M_del()(_M_impl._M_ptr); }
   d9208:	6904      	ldr	r4, [r0, #16]
        construct(_Up* __p, _Args&&... __args)
	{ ::new((void *)__p) _Up(std::forward<_Args>(__args)...); }

      template<typename _Up>
        void 
        destroy(_Up* __p) { __p->~_Up(); }
   d920a:	4620      	mov	r0, r4
   d920c:	f7ff fff2 	bl	d91f4 <_ZN9TCPClient4DataD1Ev>
      { __gd._M_ptr = nullptr; }

      /// Deallocate the owned pointer
      ~__allocated_ptr()
      {
	if (_M_ptr != nullptr)
   d9210:	b124      	cbz	r4, d921c <_ZNSt19_Sp_counted_deleterIPN9TCPClient4DataENSt12__shared_ptrIS1_LN9__gnu_cxx12_Lock_policyE0EE8_DeleterISaIS1_EEES8_LS5_0EE10_M_disposeEv+0x16>
      }

      // __p is not permitted to be a null pointer.
      void
      deallocate(pointer __p, size_type)
      { ::operator delete(__p); }
   d9212:	4620      	mov	r0, r4
   d9214:	e8bd 4010 	ldmia.w	sp!, {r4, lr}
   d9218:	f7fa bf3f 	b.w	d409a <_ZdlPv>
   d921c:	bd10      	pop	{r4, pc}
	...

000d9220 <_ZL22Refresh_UnixTime_Cachel>:
}
*/

/* Refresh Unix/RTC time cache */
static void Refresh_UnixTime_Cache(time_t unix_time)
{
   d9220:	b5f0      	push	{r4, r5, r6, r7, lr}
    unix_time += time_zone_cache;
   d9222:	4b14      	ldr	r3, [pc, #80]	; (d9274 <_ZL22Refresh_UnixTime_Cachel+0x54>)
    unix_time += dst_current_cache;
    if(unix_time != unix_time_cache)
   d9224:	4f14      	ldr	r7, [pc, #80]	; (d9278 <_ZL22Refresh_UnixTime_Cachel+0x58>)
*/

/* Refresh Unix/RTC time cache */
static void Refresh_UnixTime_Cache(time_t unix_time)
{
    unix_time += time_zone_cache;
   d9226:	681e      	ldr	r6, [r3, #0]
    unix_time += dst_current_cache;
   d9228:	4b14      	ldr	r3, [pc, #80]	; (d927c <_ZL22Refresh_UnixTime_Cachel+0x5c>)
*/

/* Refresh Unix/RTC time cache */
static void Refresh_UnixTime_Cache(time_t unix_time)
{
    unix_time += time_zone_cache;
   d922a:	4406      	add	r6, r0
    unix_time += dst_current_cache;
   d922c:	6818      	ldr	r0, [r3, #0]
    if(unix_time != unix_time_cache)
   d922e:	683b      	ldr	r3, [r7, #0]

/* Refresh Unix/RTC time cache */
static void Refresh_UnixTime_Cache(time_t unix_time)
{
    unix_time += time_zone_cache;
    unix_time += dst_current_cache;
   d9230:	4406      	add	r6, r0
    if(unix_time != unix_time_cache)
   d9232:	429e      	cmp	r6, r3
}
*/

/* Refresh Unix/RTC time cache */
static void Refresh_UnixTime_Cache(time_t unix_time)
{
   d9234:	b08b      	sub	sp, #44	; 0x2c
    unix_time += time_zone_cache;
    unix_time += dst_current_cache;
    if(unix_time != unix_time_cache)
   d9236:	d01b      	beq.n	d9270 <_ZL22Refresh_UnixTime_Cachel+0x50>
   d9238:	a80a      	add	r0, sp, #40	; 0x28
static struct tm Convert_UnixTime_To_CalendarTime(time_t unix_time)
{
	struct tm *calendar_time;
	calendar_time = localtime(&unix_time);
	calendar_time->tm_year += 1900;
	return *calendar_time;
   d923a:	ad01      	add	r5, sp, #4
   d923c:	f840 6d28 	str.w	r6, [r0, #-40]!

/* Convert Unix/RTC time to Calendar time */
static struct tm Convert_UnixTime_To_CalendarTime(time_t unix_time)
{
	struct tm *calendar_time;
	calendar_time = localtime(&unix_time);
   d9240:	f001 f8b2 	bl	da3a8 <localtime>
	calendar_time->tm_year += 1900;
   d9244:	6943      	ldr	r3, [r0, #20]
   d9246:	f203 736c 	addw	r3, r3, #1900	; 0x76c
   d924a:	6143      	str	r3, [r0, #20]
	return *calendar_time;
   d924c:	4604      	mov	r4, r0
   d924e:	cc0f      	ldmia	r4!, {r0, r1, r2, r3}
   d9250:	c50f      	stmia	r5!, {r0, r1, r2, r3}
   d9252:	cc0f      	ldmia	r4!, {r0, r1, r2, r3}
   d9254:	c50f      	stmia	r5!, {r0, r1, r2, r3}
   d9256:	f8d4 e000 	ldr.w	lr, [r4]
   d925a:	f8c5 e000 	str.w	lr, [r5]
{
    unix_time += time_zone_cache;
    unix_time += dst_current_cache;
    if(unix_time != unix_time_cache)
    {
            calendar_time_cache = Convert_UnixTime_To_CalendarTime(unix_time);
   d925e:	ad01      	add	r5, sp, #4
   d9260:	cd0f      	ldmia	r5!, {r0, r1, r2, r3}
   d9262:	4c07      	ldr	r4, [pc, #28]	; (d9280 <_ZL22Refresh_UnixTime_Cachel+0x60>)
   d9264:	c40f      	stmia	r4!, {r0, r1, r2, r3}
   d9266:	cd0f      	ldmia	r5!, {r0, r1, r2, r3}
   d9268:	c40f      	stmia	r4!, {r0, r1, r2, r3}
            unix_time_cache = unix_time;
   d926a:	603e      	str	r6, [r7, #0]
{
    unix_time += time_zone_cache;
    unix_time += dst_current_cache;
    if(unix_time != unix_time_cache)
    {
            calendar_time_cache = Convert_UnixTime_To_CalendarTime(unix_time);
   d926c:	f8c4 e000 	str.w	lr, [r4]
            unix_time_cache = unix_time;
    }
}
   d9270:	b00b      	add	sp, #44	; 0x2c
   d9272:	bdf0      	pop	{r4, r5, r6, r7, pc}
   d9274:	2003e5a0 	.word	0x2003e5a0
   d9278:	2003e59c 	.word	0x2003e59c
   d927c:	2003e598 	.word	0x2003e598
   d9280:	2003e570 	.word	0x2003e570

000d9284 <_ZN10CloudClass12syncTimeDoneEv.isra.1>:
    bool syncTimePending(void)
    {
        return connected() && CLOUD_FN(spark_sync_time_pending(nullptr), false);
    }

    bool syncTimeDone(void)
   d9284:	b508      	push	{r3, lr}
    {
        return !CLOUD_FN(spark_sync_time_pending(nullptr), false) || disconnected();
   d9286:	2000      	movs	r0, #0
   d9288:	f7fe fcb4 	bl	d7bf4 <spark_sync_time_pending>
   d928c:	b128      	cbz	r0, d929a <_ZN10CloudClass12syncTimeDoneEv.isra.1+0x16>
    static void sleep(Spark_Sleep_TypeDef sleepMode, long seconds=0) __attribute__ ((deprecated("Please use System.sleep() instead.")))
    { SystemClass::sleep(sleepMode, seconds); }
    static void sleep(uint16_t wakeUpPin, InterruptMode edgeTriggerMode, long seconds=0) __attribute__ ((deprecated("Please use System.sleep() instead.")))
    { SystemClass::sleep(wakeUpPin, edgeTriggerMode, seconds); }

    static bool connected(void) { return spark_cloud_flag_connected(); }
   d928e:	f7fe fc99 	bl	d7bc4 <spark_cloud_flag_connected>
        return connected() && CLOUD_FN(spark_sync_time_pending(nullptr), false);
    }

    bool syncTimeDone(void)
    {
        return !CLOUD_FN(spark_sync_time_pending(nullptr), false) || disconnected();
   d9292:	f080 0001 	eor.w	r0, r0, #1
   d9296:	b2c0      	uxtb	r0, r0
   d9298:	bd08      	pop	{r3, pc}
   d929a:	2001      	movs	r0, #1
    }
   d929c:	bd08      	pop	{r3, pc}
	...

000d92a0 <_ZN9TimeClass4hourEl>:
	return hour(now());
}

/* the hour for the given time */
int TimeClass::hour(time_t t)
{
   d92a0:	b508      	push	{r3, lr}
	Refresh_UnixTime_Cache(t);
   d92a2:	f7ff ffbd 	bl	d9220 <_ZL22Refresh_UnixTime_Cachel>
	return calendar_time_cache.tm_hour;
}
   d92a6:	4b01      	ldr	r3, [pc, #4]	; (d92ac <_ZN9TimeClass4hourEl+0xc>)
   d92a8:	6898      	ldr	r0, [r3, #8]
   d92aa:	bd08      	pop	{r3, pc}
   d92ac:	2003e570 	.word	0x2003e570

000d92b0 <_ZN9TimeClass6minuteEl>:
	return minute(now());
}

/* the minute for the given time */
int TimeClass::minute(time_t t)
{
   d92b0:	b508      	push	{r3, lr}
	Refresh_UnixTime_Cache(t);
   d92b2:	f7ff ffb5 	bl	d9220 <_ZL22Refresh_UnixTime_Cachel>
	return calendar_time_cache.tm_min;
}
   d92b6:	4b01      	ldr	r3, [pc, #4]	; (d92bc <_ZN9TimeClass6minuteEl+0xc>)
   d92b8:	6858      	ldr	r0, [r3, #4]
   d92ba:	bd08      	pop	{r3, pc}
   d92bc:	2003e570 	.word	0x2003e570

000d92c0 <_ZN9TimeClass7isValidEv>:
    strftime(buf, 50, format_str, calendar_time);
    return String(buf);
}

bool TimeClass::isValid()
{
   d92c0:	b510      	push	{r4, lr}
    bool rtcstate = HAL_RTC_Time_Is_Valid(nullptr);
   d92c2:	2000      	movs	r0, #0
   d92c4:	f7fe fa82 	bl	d77cc <HAL_RTC_Time_Is_Valid>
    if (rtcstate)
   d92c8:	4604      	mov	r4, r0
   d92ca:	b968      	cbnz	r0, d92e8 <_ZN9TimeClass7isValidEv+0x28>
    }

    static System_Mode_TypeDef mode(void) {
        return system_mode();
   d92cc:	f7fe fc26 	bl	d7b1c <system_mode>
        return rtcstate;
    if (System.mode() == AUTOMATIC && system_thread_get_state(nullptr) == spark::feature::DISABLED)
   d92d0:	2801      	cmp	r0, #1
   d92d2:	d10b      	bne.n	d92ec <_ZN9TimeClass7isValidEv+0x2c>
   d92d4:	4620      	mov	r0, r4
   d92d6:	f7fe fc51 	bl	d7b7c <system_thread_get_state>
   d92da:	b938      	cbnz	r0, d92ec <_ZN9TimeClass7isValidEv+0x2c>
    {
        waitUntil(Particle.syncTimeDone);
   d92dc:	f7ff ffd2 	bl	d9284 <_ZN10CloudClass12syncTimeDoneEv.isra.1>


    static uint32_t freeMemory();

    template<typename Condition, typename While> static bool waitConditionWhile(Condition _condition, While _while) {
        while (_while() && !_condition()) {
   d92e0:	b930      	cbnz	r0, d92f0 <_ZN9TimeClass7isValidEv+0x30>
            spark_process();
   d92e2:	f7fe fc67 	bl	d7bb4 <spark_process>
   d92e6:	e7f9      	b.n	d92dc <_ZN9TimeClass7isValidEv+0x1c>

bool TimeClass::isValid()
{
    bool rtcstate = HAL_RTC_Time_Is_Valid(nullptr);
    if (rtcstate)
        return rtcstate;
   d92e8:	2001      	movs	r0, #1
   d92ea:	bd10      	pop	{r4, pc}
    if (System.mode() == AUTOMATIC && system_thread_get_state(nullptr) == spark::feature::DISABLED)
    {
        waitUntil(Particle.syncTimeDone);
        return HAL_RTC_Time_Is_Valid(nullptr);
    }
    return rtcstate;
   d92ec:	2000      	movs	r0, #0
   d92ee:	bd10      	pop	{r4, pc}
    bool rtcstate = HAL_RTC_Time_Is_Valid(nullptr);
    if (rtcstate)
        return rtcstate;
    if (System.mode() == AUTOMATIC && system_thread_get_state(nullptr) == spark::feature::DISABLED)
    {
        waitUntil(Particle.syncTimeDone);
   d92f0:	f7ff ffc8 	bl	d9284 <_ZN10CloudClass12syncTimeDoneEv.isra.1>
        return HAL_RTC_Time_Is_Valid(nullptr);
   d92f4:	2000      	movs	r0, #0
   d92f6:	f7fe fa69 	bl	d77cc <HAL_RTC_Time_Is_Valid>
   d92fa:	3000      	adds	r0, #0
   d92fc:	bf18      	it	ne
   d92fe:	2001      	movne	r0, #1
    }
    return rtcstate;
}
   d9300:	bd10      	pop	{r4, pc}

000d9302 <_ZN9TimeClass3nowEv>:
	return calendar_time_cache.tm_year;
}

/* return the current time as seconds since Jan 1 1970 */
time_t TimeClass::now()
{
   d9302:	b508      	push	{r3, lr}
    (void)isValid();
   d9304:	f7ff ffdc 	bl	d92c0 <_ZN9TimeClass7isValidEv>
	return HAL_RTC_Get_UnixTime();
}
   d9308:	e8bd 4008 	ldmia.w	sp!, {r3, lr}

/* return the current time as seconds since Jan 1 1970 */
time_t TimeClass::now()
{
    (void)isValid();
	return HAL_RTC_Get_UnixTime();
   d930c:	f7fe ba56 	b.w	d77bc <HAL_RTC_Get_UnixTime>

000d9310 <_GLOBAL__sub_I_TIME_FORMAT_DEFAULT>:
            calendar_time_cache = Convert_UnixTime_To_CalendarTime(unix_time);
            unix_time_cache = unix_time;
    }
}

const char* TimeClass::format_spec = TIME_FORMAT_DEFAULT;
   d9310:	4b02      	ldr	r3, [pc, #8]	; (d931c <_GLOBAL__sub_I_TIME_FORMAT_DEFAULT+0xc>)
   d9312:	681a      	ldr	r2, [r3, #0]
   d9314:	4b02      	ldr	r3, [pc, #8]	; (d9320 <_GLOBAL__sub_I_TIME_FORMAT_DEFAULT+0x10>)
   d9316:	601a      	str	r2, [r3, #0]
   d9318:	4770      	bx	lr
   d931a:	bf00      	nop
   d931c:	2003db84 	.word	0x2003db84
   d9320:	2003e594 	.word	0x2003e594

000d9324 <tone>:

#include "spark_wiring_tone.h"
#include "tone_hal.h"

void tone(uint8_t pin, unsigned int frequency, unsigned long duration)
{
   d9324:	b5f8      	push	{r3, r4, r5, r6, r7, lr}
    if (pinAvailable(pin) && HAL_Validate_Pin_Function(pin, PF_TIMER)==PF_TIMER) {
   d9326:	b285      	uxth	r5, r0

#include "spark_wiring_tone.h"
#include "tone_hal.h"

void tone(uint8_t pin, unsigned int frequency, unsigned long duration)
{
   d9328:	4604      	mov	r4, r0
    if (pinAvailable(pin) && HAL_Validate_Pin_Function(pin, PF_TIMER)==PF_TIMER) {
   d932a:	4628      	mov	r0, r5

#include "spark_wiring_tone.h"
#include "tone_hal.h"

void tone(uint8_t pin, unsigned int frequency, unsigned long duration)
{
   d932c:	460e      	mov	r6, r1
   d932e:	4617      	mov	r7, r2
    if (pinAvailable(pin) && HAL_Validate_Pin_Function(pin, PF_TIMER)==PF_TIMER) {
   d9330:	f000 f9c0 	bl	d96b4 <pinAvailable>
   d9334:	b160      	cbz	r0, d9350 <tone+0x2c>
   d9336:	2102      	movs	r1, #2
   d9338:	4628      	mov	r0, r5
   d933a:	f7fe fa57 	bl	d77ec <HAL_Validate_Pin_Function>
   d933e:	2802      	cmp	r0, #2
   d9340:	d106      	bne.n	d9350 <tone+0x2c>
        HAL_Tone_Start(pin, frequency, duration);
   d9342:	463a      	mov	r2, r7
   d9344:	4631      	mov	r1, r6
   d9346:	4620      	mov	r0, r4
    }
}
   d9348:	e8bd 40f8 	ldmia.w	sp!, {r3, r4, r5, r6, r7, lr}
#include "tone_hal.h"

void tone(uint8_t pin, unsigned int frequency, unsigned long duration)
{
    if (pinAvailable(pin) && HAL_Validate_Pin_Function(pin, PF_TIMER)==PF_TIMER) {
        HAL_Tone_Start(pin, frequency, duration);
   d934c:	f7fe bb16 	b.w	d797c <HAL_Tone_Start>
   d9350:	bdf8      	pop	{r3, r4, r5, r6, r7, pc}

000d9352 <_ZN11USARTSerialD1Ev>:
private:
  HAL_USART_Serial _serial;
  bool _blocking;
public:
  USARTSerial(HAL_USART_Serial serial, Ring_Buffer *rx_buffer, Ring_Buffer *tx_buffer);
  virtual ~USARTSerial() {};
   d9352:	4770      	bx	lr

000d9354 <_ZN11USARTSerial14blockOnOverrunEb>:
    HAL_USART_Half_Duplex(_serial, Enable);
}

void USARTSerial::blockOnOverrun(bool block)
{
  _blocking = block;
   d9354:	7441      	strb	r1, [r0, #17]
   d9356:	4770      	bx	lr

000d9358 <_ZN11USARTSerial17availableForWriteEv>:
}


int USARTSerial::availableForWrite(void)
{
   d9358:	b508      	push	{r3, lr}
  return std::max(0, (int)HAL_USART_Available_Data_For_Write(_serial));
   d935a:	7c00      	ldrb	r0, [r0, #16]
   d935c:	f7fe fb8e 	bl	d7a7c <HAL_USART_Available_Data_For_Write>
}
   d9360:	ea20 70e0 	bic.w	r0, r0, r0, asr #31
   d9364:	bd08      	pop	{r3, pc}

000d9366 <_ZN11USARTSerial9availableEv>:

int USARTSerial::available(void)
{
   d9366:	b508      	push	{r3, lr}
  return std::max(0, (int)HAL_USART_Available_Data(_serial));
   d9368:	7c00      	ldrb	r0, [r0, #16]
   d936a:	f7fe fb5f 	bl	d7a2c <HAL_USART_Available_Data>
}
   d936e:	ea20 70e0 	bic.w	r0, r0, r0, asr #31
   d9372:	bd08      	pop	{r3, pc}

000d9374 <_ZN11USARTSerial4peekEv>:

int USARTSerial::peek(void)
{
   d9374:	b508      	push	{r3, lr}
  return std::max(-1, (int)HAL_USART_Peek_Data(_serial));
   d9376:	7c00      	ldrb	r0, [r0, #16]
   d9378:	f7fe fb68 	bl	d7a4c <HAL_USART_Peek_Data>
}
   d937c:	ea30 0020 	bics.w	r0, r0, r0, asr #32
   d9380:	bf28      	it	cs
   d9382:	f04f 30ff 	movcs.w	r0, #4294967295	; 0xffffffff
   d9386:	bd08      	pop	{r3, pc}

000d9388 <_ZN11USARTSerial4readEv>:

int USARTSerial::read(void)
{
   d9388:	b508      	push	{r3, lr}
  return std::max(-1, (int)HAL_USART_Read_Data(_serial));
   d938a:	7c00      	ldrb	r0, [r0, #16]
   d938c:	f7fe fb56 	bl	d7a3c <HAL_USART_Read_Data>
}
   d9390:	ea30 0020 	bics.w	r0, r0, r0, asr #32
   d9394:	bf28      	it	cs
   d9396:	f04f 30ff 	movcs.w	r0, #4294967295	; 0xffffffff
   d939a:	bd08      	pop	{r3, pc}

000d939c <_ZN11USARTSerial5flushEv>:

void USARTSerial::flush()
{
  HAL_USART_Flush_Data(_serial);
   d939c:	7c00      	ldrb	r0, [r0, #16]
   d939e:	f7fe bb5d 	b.w	d7a5c <HAL_USART_Flush_Data>

000d93a2 <_ZN11USARTSerialD0Ev>:
   d93a2:	b510      	push	{r4, lr}
   d93a4:	2114      	movs	r1, #20
   d93a6:	4604      	mov	r4, r0
   d93a8:	f000 fa69 	bl	d987e <_ZdlPvj>
   d93ac:	4620      	mov	r0, r4
   d93ae:	bd10      	pop	{r4, pc}

000d93b0 <_ZN11USARTSerial5writeEh>:
}

size_t USARTSerial::write(uint8_t c)
{
   d93b0:	b570      	push	{r4, r5, r6, lr}
  // attempt a write if blocking, or for non-blocking if there is room.
  if (_blocking || HAL_USART_Available_Data_For_Write(_serial) > 0) {
   d93b2:	7c45      	ldrb	r5, [r0, #17]
{
  HAL_USART_Flush_Data(_serial);
}

size_t USARTSerial::write(uint8_t c)
{
   d93b4:	4604      	mov	r4, r0
   d93b6:	460e      	mov	r6, r1
  // attempt a write if blocking, or for non-blocking if there is room.
  if (_blocking || HAL_USART_Available_Data_For_Write(_serial) > 0) {
   d93b8:	b925      	cbnz	r5, d93c4 <_ZN11USARTSerial5writeEh+0x14>
   d93ba:	7c00      	ldrb	r0, [r0, #16]
   d93bc:	f7fe fb5e 	bl	d7a7c <HAL_USART_Available_Data_For_Write>
   d93c0:	2800      	cmp	r0, #0
   d93c2:	dd05      	ble.n	d93d0 <_ZN11USARTSerial5writeEh+0x20>
    // the HAL always blocks.
	  return HAL_USART_Write_Data(_serial, c);
   d93c4:	4631      	mov	r1, r6
   d93c6:	7c20      	ldrb	r0, [r4, #16]
  }
  return 0;
}
   d93c8:	e8bd 4070 	ldmia.w	sp!, {r4, r5, r6, lr}
size_t USARTSerial::write(uint8_t c)
{
  // attempt a write if blocking, or for non-blocking if there is room.
  if (_blocking || HAL_USART_Available_Data_For_Write(_serial) > 0) {
    // the HAL always blocks.
	  return HAL_USART_Write_Data(_serial, c);
   d93cc:	f7fe bb26 	b.w	d7a1c <HAL_USART_Write_Data>
  }
  return 0;
}
   d93d0:	4628      	mov	r0, r5
   d93d2:	bd70      	pop	{r4, r5, r6, pc}

000d93d4 <_ZN11USARTSerialC1E16HAL_USART_SerialP11Ring_BufferS2_>:
#include "spark_wiring_constants.h"
#include "module_info.h"

// Constructors ////////////////////////////////////////////////////////////////

USARTSerial::USARTSerial(HAL_USART_Serial serial, Ring_Buffer *rx_buffer, Ring_Buffer *tx_buffer)
   d93d4:	b510      	push	{r4, lr}
   d93d6:	4604      	mov	r4, r0
   d93d8:	4608      	mov	r0, r1
   d93da:	4611      	mov	r1, r2
   d93dc:	2200      	movs	r2, #0
   d93de:	6062      	str	r2, [r4, #4]
   d93e0:	f44f 727a 	mov.w	r2, #1000	; 0x3e8
   d93e4:	60a2      	str	r2, [r4, #8]
   d93e6:	4a05      	ldr	r2, [pc, #20]	; (d93fc <_ZN11USARTSerialC1E16HAL_USART_SerialP11Ring_BufferS2_+0x28>)
   d93e8:	6022      	str	r2, [r4, #0]
{
  _serial = serial;
  // Default is blocking mode
  _blocking = true;
   d93ea:	2201      	movs	r2, #1

// Constructors ////////////////////////////////////////////////////////////////

USARTSerial::USARTSerial(HAL_USART_Serial serial, Ring_Buffer *rx_buffer, Ring_Buffer *tx_buffer)
{
  _serial = serial;
   d93ec:	7420      	strb	r0, [r4, #16]
  // Default is blocking mode
  _blocking = true;
   d93ee:	7462      	strb	r2, [r4, #17]
  HAL_USART_Init(serial, rx_buffer, tx_buffer);
   d93f0:	461a      	mov	r2, r3
   d93f2:	f7fe fb0b 	bl	d7a0c <HAL_USART_Init>
}
   d93f6:	4620      	mov	r0, r4
   d93f8:	bd10      	pop	{r4, pc}
   d93fa:	bf00      	nop
   d93fc:	000dbe10 	.word	0x000dbe10

000d9400 <_ZN11USARTSerial9isEnabledEv>:
USARTSerial::operator bool() {
  return true;
}

bool USARTSerial::isEnabled() {
  return HAL_USART_Is_Enabled(_serial);
   d9400:	7c00      	ldrb	r0, [r0, #16]
   d9402:	f7fe bb33 	b.w	d7a6c <HAL_USART_Is_Enabled>
	...

000d9408 <_Z22__fetch_global_Serial1v>:
static Ring_Buffer* serial1_rx_buffer = NULL;
static Ring_Buffer* serial1_tx_buffer = NULL;
#endif

USARTSerial& __fetch_global_Serial1()
{
   d9408:	b538      	push	{r3, r4, r5, lr}
#if ((MODULE_FUNCTION == MOD_FUNC_USER_PART) || (MODULE_FUNCTION == MOD_FUNC_MONO_FIRMWARE))
	static USARTSerial serial1(HAL_USART_SERIAL1, &serial1_rx_buffer, &serial1_tx_buffer);
   d940a:	4d0c      	ldr	r5, [pc, #48]	; (d943c <_Z22__fetch_global_Serial1v+0x34>)
   d940c:	6829      	ldr	r1, [r5, #0]
   d940e:	f011 0401 	ands.w	r4, r1, #1
   d9412:	d111      	bne.n	d9438 <_Z22__fetch_global_Serial1v+0x30>
   d9414:	4628      	mov	r0, r5
   d9416:	f7fa fe4f 	bl	d40b8 <__cxa_guard_acquire>
   d941a:	b168      	cbz	r0, d9438 <_Z22__fetch_global_Serial1v+0x30>
   d941c:	4a08      	ldr	r2, [pc, #32]	; (d9440 <_Z22__fetch_global_Serial1v+0x38>)
   d941e:	4b09      	ldr	r3, [pc, #36]	; (d9444 <_Z22__fetch_global_Serial1v+0x3c>)
   d9420:	4809      	ldr	r0, [pc, #36]	; (d9448 <_Z22__fetch_global_Serial1v+0x40>)
   d9422:	4621      	mov	r1, r4
   d9424:	f7ff ffd6 	bl	d93d4 <_ZN11USARTSerialC1E16HAL_USART_SerialP11Ring_BufferS2_>
   d9428:	4628      	mov	r0, r5
   d942a:	f7fa fe4a 	bl	d40c2 <__cxa_guard_release>
   d942e:	4a07      	ldr	r2, [pc, #28]	; (d944c <_Z22__fetch_global_Serial1v+0x44>)
   d9430:	4907      	ldr	r1, [pc, #28]	; (d9450 <_Z22__fetch_global_Serial1v+0x48>)
   d9432:	4805      	ldr	r0, [pc, #20]	; (d9448 <_Z22__fetch_global_Serial1v+0x40>)
   d9434:	f000 fa1e 	bl	d9874 <__aeabi_atexit>
    serial1_tx_buffer = new Ring_Buffer();
  }
  static USARTSerial serial1(HAL_USART_SERIAL1, serial1_rx_buffer, serial1_tx_buffer);
#endif
	return serial1;
}
   d9438:	4803      	ldr	r0, [pc, #12]	; (d9448 <_Z22__fetch_global_Serial1v+0x40>)
   d943a:	bd38      	pop	{r3, r4, r5, pc}
   d943c:	2003e63c 	.word	0x2003e63c
   d9440:	2003e640 	.word	0x2003e640
   d9444:	2003e5b8 	.word	0x2003e5b8
   d9448:	2003e5a4 	.word	0x2003e5a4
   d944c:	2003dc3c 	.word	0x2003dc3c
   d9450:	000d9353 	.word	0x000d9353

000d9454 <_ZN9USBSerial14blockOnOverrunEb>:
  HAL_USB_USART_Flush_Data(_serial);
}

void USBSerial::blockOnOverrun(bool block)
{
  _blocking = block;
   d9454:	7441      	strb	r1, [r0, #17]
   d9456:	4770      	bx	lr

000d9458 <_ZN9USBSerialD1Ev>:
#include "usb_hal.h"
#include "system_task.h"
#include "spark_wiring_startup.h"
#include "concurrent_hal.h"

class USBSerial : public Stream
   d9458:	4770      	bx	lr

000d945a <_ZN9USBSerial4readEv>:
}


// Read data from buffer
int USBSerial::read()
{
   d945a:	b508      	push	{r3, lr}
	return std::max(-1, (int)HAL_USB_USART_Receive_Data(_serial, false));
   d945c:	2100      	movs	r1, #0
   d945e:	7c00      	ldrb	r0, [r0, #16]
   d9460:	f7fe fb34 	bl	d7acc <HAL_USB_USART_Receive_Data>
}
   d9464:	ea30 0020 	bics.w	r0, r0, r0, asr #32
   d9468:	bf28      	it	cs
   d946a:	f04f 30ff 	movcs.w	r0, #4294967295	; 0xffffffff
   d946e:	bd08      	pop	{r3, pc}

000d9470 <_ZN9USBSerial4peekEv>:
{
  _blocking = block;
}

int USBSerial::peek()
{
   d9470:	b508      	push	{r3, lr}
	return std::max(-1, (int)HAL_USB_USART_Receive_Data(_serial, true));
   d9472:	2101      	movs	r1, #1
   d9474:	7c00      	ldrb	r0, [r0, #16]
   d9476:	f7fe fb29 	bl	d7acc <HAL_USB_USART_Receive_Data>
}
   d947a:	ea30 0020 	bics.w	r0, r0, r0, asr #32
   d947e:	bf28      	it	cs
   d9480:	f04f 30ff 	movcs.w	r0, #4294967295	; 0xffffffff
   d9484:	bd08      	pop	{r3, pc}

000d9486 <_ZN9USBSerial17availableForWriteEv>:
{
	return std::max(-1, (int)HAL_USB_USART_Receive_Data(_serial, false));
}

int USBSerial::availableForWrite()
{
   d9486:	b508      	push	{r3, lr}
  return std::max(0, (int)HAL_USB_USART_Available_Data_For_Write(_serial));
   d9488:	7c00      	ldrb	r0, [r0, #16]
   d948a:	f7fe fb17 	bl	d7abc <HAL_USB_USART_Available_Data_For_Write>
}
   d948e:	ea20 70e0 	bic.w	r0, r0, r0, asr #31
   d9492:	bd08      	pop	{r3, pc}

000d9494 <_ZN9USBSerial9availableEv>:

int USBSerial::available()
{
   d9494:	b508      	push	{r3, lr}
	return std::max(0, (int)HAL_USB_USART_Available_Data(_serial));
   d9496:	7c00      	ldrb	r0, [r0, #16]
   d9498:	f7fe fb08 	bl	d7aac <HAL_USB_USART_Available_Data>
}
   d949c:	ea20 70e0 	bic.w	r0, r0, r0, asr #31
   d94a0:	bd08      	pop	{r3, pc}

000d94a2 <_ZN9USBSerial5flushEv>:
  return 0;
}

void USBSerial::flush()
{
  HAL_USB_USART_Flush_Data(_serial);
   d94a2:	7c00      	ldrb	r0, [r0, #16]
   d94a4:	f7fe bb22 	b.w	d7aec <HAL_USB_USART_Flush_Data>

000d94a8 <_ZN9USBSerialD0Ev>:
   d94a8:	b510      	push	{r4, lr}
   d94aa:	2114      	movs	r1, #20
   d94ac:	4604      	mov	r4, r0
   d94ae:	f000 f9e6 	bl	d987e <_ZdlPvj>
   d94b2:	4620      	mov	r0, r4
   d94b4:	bd10      	pop	{r4, pc}

000d94b6 <_ZN9USBSerial5writeEh>:
{
	return std::max(0, (int)HAL_USB_USART_Available_Data(_serial));
}

size_t USBSerial::write(uint8_t byte)
{
   d94b6:	b538      	push	{r3, r4, r5, lr}
   d94b8:	4604      	mov	r4, r0
  if (HAL_USB_USART_Available_Data_For_Write(_serial) > 0 || _blocking) {
   d94ba:	7c00      	ldrb	r0, [r0, #16]
{
	return std::max(0, (int)HAL_USB_USART_Available_Data(_serial));
}

size_t USBSerial::write(uint8_t byte)
{
   d94bc:	460d      	mov	r5, r1
  if (HAL_USB_USART_Available_Data_For_Write(_serial) > 0 || _blocking) {
   d94be:	f7fe fafd 	bl	d7abc <HAL_USB_USART_Available_Data_For_Write>
   d94c2:	2800      	cmp	r0, #0
   d94c4:	dc01      	bgt.n	d94ca <_ZN9USBSerial5writeEh+0x14>
   d94c6:	7c60      	ldrb	r0, [r4, #17]
   d94c8:	b128      	cbz	r0, d94d6 <_ZN9USBSerial5writeEh+0x20>
    return std::max(0, (int)HAL_USB_USART_Send_Data(_serial, byte));
   d94ca:	4629      	mov	r1, r5
   d94cc:	7c20      	ldrb	r0, [r4, #16]
   d94ce:	f7fe fb05 	bl	d7adc <HAL_USB_USART_Send_Data>
   d94d2:	ea20 70e0 	bic.w	r0, r0, r0, asr #31
  }
  return 0;
}
   d94d6:	bd38      	pop	{r3, r4, r5, pc}

000d94d8 <_ZN9USBSerialC1E20HAL_USB_USART_SerialRK20HAL_USB_USART_Config>:

  HAL_USB_USART_Config conf = acquireSerialBuffer();
  HAL_USB_USART_Init(_serial, &conf);
}

USBSerial::USBSerial(HAL_USB_USART_Serial serial, const HAL_USB_USART_Config& conf)
   d94d8:	b510      	push	{r4, lr}
   d94da:	4604      	mov	r4, r0
   d94dc:	2300      	movs	r3, #0
   d94de:	6063      	str	r3, [r4, #4]
   d94e0:	f44f 737a 	mov.w	r3, #1000	; 0x3e8
   d94e4:	60a3      	str	r3, [r4, #8]
   d94e6:	4b05      	ldr	r3, [pc, #20]	; (d94fc <_ZN9USBSerialC1E20HAL_USB_USART_SerialRK20HAL_USB_USART_Config+0x24>)
   d94e8:	6023      	str	r3, [r4, #0]
{
  _serial = serial;
  _blocking = true;
   d94ea:	2301      	movs	r3, #1

  HAL_USB_USART_Config conf = acquireSerialBuffer();
  HAL_USB_USART_Init(_serial, &conf);
}

USBSerial::USBSerial(HAL_USB_USART_Serial serial, const HAL_USB_USART_Config& conf)
   d94ec:	4608      	mov	r0, r1
{
  _serial = serial;
   d94ee:	7421      	strb	r1, [r4, #16]
  _blocking = true;
   d94f0:	7463      	strb	r3, [r4, #17]

  HAL_USB_USART_Init(_serial, &conf);
   d94f2:	4611      	mov	r1, r2
   d94f4:	f7fe faca 	bl	d7a8c <HAL_USB_USART_Init>
}
   d94f8:	4620      	mov	r0, r4
   d94fa:	bd10      	pop	{r4, pc}
   d94fc:	000dbe40 	.word	0x000dbe40

000d9500 <_ZN9USBSerial5beginEl>:
// Public methods
//

void USBSerial::begin(long speed)
{
    HAL_USB_USART_Begin(_serial, speed, NULL);
   d9500:	2200      	movs	r2, #0
   d9502:	7c00      	ldrb	r0, [r0, #16]
   d9504:	f7fe baca 	b.w	d7a9c <HAL_USB_USART_Begin>

000d9508 <_Z19acquireSerialBufferv>:

// Preinstantiate Objects //////////////////////////////////////////////////////
#ifdef SPARK_USB_SERIAL

HAL_USB_USART_Config __attribute__((weak)) acquireSerialBuffer()
{
   d9508:	b510      	push	{r4, lr}
  HAL_USB_USART_Config conf = {0};
   d950a:	2214      	movs	r2, #20

// Preinstantiate Objects //////////////////////////////////////////////////////
#ifdef SPARK_USB_SERIAL

HAL_USB_USART_Config __attribute__((weak)) acquireSerialBuffer()
{
   d950c:	4604      	mov	r4, r0
  HAL_USB_USART_Config conf = {0};
   d950e:	2100      	movs	r1, #0
   d9510:	f001 f84d 	bl	da5ae <memset>
  conf.rx_buffer_size = USB_RX_BUFFER_SIZE;
  conf.tx_buffer_size = USB_TX_BUFFER_SIZE;
#endif

  return conf;
}
   d9514:	4620      	mov	r0, r4
   d9516:	bd10      	pop	{r4, pc}

000d9518 <_Z16_fetch_usbserialv>:

USBSerial& _fetch_usbserial()
{
   d9518:	b530      	push	{r4, r5, lr}
  HAL_USB_USART_Config conf = acquireSerialBuffer();
	static USBSerial _usbserial(HAL_USB_USART_SERIAL, conf);
   d951a:	4d0e      	ldr	r5, [pc, #56]	; (d9554 <_Z16_fetch_usbserialv+0x3c>)

  return conf;
}

USBSerial& _fetch_usbserial()
{
   d951c:	b087      	sub	sp, #28
  HAL_USB_USART_Config conf = acquireSerialBuffer();
   d951e:	a801      	add	r0, sp, #4
   d9520:	f7ff fff2 	bl	d9508 <_Z19acquireSerialBufferv>
	static USBSerial _usbserial(HAL_USB_USART_SERIAL, conf);
   d9524:	6829      	ldr	r1, [r5, #0]
   d9526:	f011 0401 	ands.w	r4, r1, #1
   d952a:	d110      	bne.n	d954e <_Z16_fetch_usbserialv+0x36>
   d952c:	4628      	mov	r0, r5
   d952e:	f7fa fdc3 	bl	d40b8 <__cxa_guard_acquire>
   d9532:	b160      	cbz	r0, d954e <_Z16_fetch_usbserialv+0x36>
   d9534:	aa01      	add	r2, sp, #4
   d9536:	4621      	mov	r1, r4
   d9538:	4807      	ldr	r0, [pc, #28]	; (d9558 <_Z16_fetch_usbserialv+0x40>)
   d953a:	f7ff ffcd 	bl	d94d8 <_ZN9USBSerialC1E20HAL_USB_USART_SerialRK20HAL_USB_USART_Config>
   d953e:	4628      	mov	r0, r5
   d9540:	f7fa fdbf 	bl	d40c2 <__cxa_guard_release>
   d9544:	4a05      	ldr	r2, [pc, #20]	; (d955c <_Z16_fetch_usbserialv+0x44>)
   d9546:	4906      	ldr	r1, [pc, #24]	; (d9560 <_Z16_fetch_usbserialv+0x48>)
   d9548:	4803      	ldr	r0, [pc, #12]	; (d9558 <_Z16_fetch_usbserialv+0x40>)
   d954a:	f000 f993 	bl	d9874 <__aeabi_atexit>
	return _usbserial;
}
   d954e:	4802      	ldr	r0, [pc, #8]	; (d9558 <_Z16_fetch_usbserialv+0x40>)
   d9550:	b007      	add	sp, #28
   d9552:	bd30      	pop	{r4, r5, pc}
   d9554:	2003e6c4 	.word	0x2003e6c4
   d9558:	2003e6c8 	.word	0x2003e6c8
   d955c:	2003dc3c 	.word	0x2003dc3c
   d9560:	000d9459 	.word	0x000d9459

000d9564 <_ZN5spark9WiFiClass5readyEv>:
    bool connecting(void) {
        return network_connecting(*this, 0, NULL);
    }

    bool ready(void) {
        return network_ready(*this, 0, NULL);
   d9564:	2200      	movs	r2, #0
   d9566:	4611      	mov	r1, r2
   d9568:	6840      	ldr	r0, [r0, #4]
   d956a:	f7fe bb6b 	b.w	d7c44 <network_ready>

000d956e <_ZN5spark9WiFiClass9listeningEv>:
    uint16_t getListenTimeout(void) {
        return network_get_listen_timeout(*this, 0, NULL);
    }

    bool listening(void) {
        return network_listening(*this, 0, NULL);
   d956e:	2200      	movs	r2, #0
   d9570:	4611      	mov	r1, r2
   d9572:	6840      	ldr	r0, [r0, #4]
   d9574:	f7fe bb86 	b.w	d7c84 <network_listening>

000d9578 <_ZN5spark9WiFiClass16getListenTimeoutEv>:
    void setListenTimeout(uint16_t timeout) {
        network_set_listen_timeout(*this, timeout, NULL);
    }

    uint16_t getListenTimeout(void) {
        return network_get_listen_timeout(*this, 0, NULL);
   d9578:	2200      	movs	r2, #0
   d957a:	4611      	mov	r1, r2
   d957c:	6840      	ldr	r0, [r0, #4]
   d957e:	f7fe bb91 	b.w	d7ca4 <network_get_listen_timeout>

000d9582 <_ZN5spark9WiFiClass16setListenTimeoutEt>:
    void listen(bool begin=true) {
        network_listen(*this, begin ? 0 : 1, NULL);
    }

    void setListenTimeout(uint16_t timeout) {
        network_set_listen_timeout(*this, timeout, NULL);
   d9582:	2200      	movs	r2, #0
   d9584:	6840      	ldr	r0, [r0, #4]
   d9586:	f7fe bb85 	b.w	d7c94 <network_set_listen_timeout>

000d958a <_ZN5spark9WiFiClass6listenEb>:
    void off(void) {
        network_off(*this, 0, 0, NULL);
    }

    void listen(bool begin=true) {
        network_listen(*this, begin ? 0 : 1, NULL);
   d958a:	2200      	movs	r2, #0
   d958c:	f081 0101 	eor.w	r1, r1, #1
   d9590:	6840      	ldr	r0, [r0, #4]
   d9592:	f7fe bb6f 	b.w	d7c74 <network_listen>

000d9596 <_ZN5spark9WiFiClass3offEv>:
    void on(void) {
        network_on(*this, 0, 0, NULL);
    }

    void off(void) {
        network_off(*this, 0, 0, NULL);
   d9596:	2300      	movs	r3, #0
   d9598:	461a      	mov	r2, r3
   d959a:	4619      	mov	r1, r3
   d959c:	6840      	ldr	r0, [r0, #4]
   d959e:	f7fe bb61 	b.w	d7c64 <network_off>

000d95a2 <_ZN5spark9WiFiClass2onEv>:
    bool ready(void) {
        return network_ready(*this, 0, NULL);
    }

    void on(void) {
        network_on(*this, 0, 0, NULL);
   d95a2:	2300      	movs	r3, #0
   d95a4:	461a      	mov	r2, r3
   d95a6:	4619      	mov	r1, r3
   d95a8:	6840      	ldr	r0, [r0, #4]
   d95aa:	f7fe bb53 	b.w	d7c54 <network_on>

000d95ae <_ZN5spark9WiFiClass10connectingEv>:
    void disconnect(void) {
        network_disconnect(*this, NETWORK_DISCONNECT_REASON_USER, NULL);
    }

    bool connecting(void) {
        return network_connecting(*this, 0, NULL);
   d95ae:	2200      	movs	r2, #0
   d95b0:	4611      	mov	r1, r2
   d95b2:	6840      	ldr	r0, [r0, #4]
   d95b4:	f7fe bb36 	b.w	d7c24 <network_connecting>

000d95b8 <_ZN5spark9WiFiClass10disconnectEv>:
    void connect(unsigned flags=0) {
        network_connect(*this, flags, 0, NULL);
    }

    void disconnect(void) {
        network_disconnect(*this, NETWORK_DISCONNECT_REASON_USER, NULL);
   d95b8:	2200      	movs	r2, #0
   d95ba:	2102      	movs	r1, #2
   d95bc:	6840      	ldr	r0, [r0, #4]
   d95be:	f7fe bb39 	b.w	d7c34 <network_disconnect>

000d95c2 <_ZN5spark9WiFiClass7connectEj>:
    uint32_t ping(IPAddress remoteIP, uint8_t nTries) {
        return inet_ping(&remoteIP.raw(), *this, nTries, NULL);
    }

    void connect(unsigned flags=0) {
        network_connect(*this, flags, 0, NULL);
   d95c2:	2300      	movs	r3, #0
   d95c4:	461a      	mov	r2, r3
   d95c6:	6840      	ldr	r0, [r0, #4]
   d95c8:	f7fe bb24 	b.w	d7c14 <network_connect>

000d95cc <_GLOBAL__sub_I__ZN10WiFiSignalC2ERK21wlan_connected_info_t>:
   d95cc:	4b02      	ldr	r3, [pc, #8]	; (d95d8 <_GLOBAL__sub_I__ZN10WiFiSignalC2ERK21wlan_connected_info_t+0xc>)
   d95ce:	2204      	movs	r2, #4
   d95d0:	605a      	str	r2, [r3, #4]
        wlan_set_ipaddress_source(source, true, NULL);
    }

public:
    WiFiClass() :
            NetworkClass(NETWORK_INTERFACE_WIFI_STA) {
   d95d2:	4a02      	ldr	r2, [pc, #8]	; (d95dc <_GLOBAL__sub_I__ZN10WiFiSignalC2ERK21wlan_connected_info_t+0x10>)
   d95d4:	601a      	str	r2, [r3, #0]
   d95d6:	4770      	bx	lr
   d95d8:	2003e6dc 	.word	0x2003e6dc
   d95dc:	000dbe70 	.word	0x000dbe70

000d95e0 <serialEventRun>:

/**
 * Provides background processing of serial data.
 */
void serialEventRun()
{
   d95e0:	b508      	push	{r3, lr}
    if (serialEvent && Serial.available()>0)
   d95e2:	4b0c      	ldr	r3, [pc, #48]	; (d9614 <serialEventRun+0x34>)
   d95e4:	b133      	cbz	r3, d95f4 <serialEventRun+0x14>
   d95e6:	f7ff ff97 	bl	d9518 <_Z16_fetch_usbserialv>
   d95ea:	6803      	ldr	r3, [r0, #0]
   d95ec:	691b      	ldr	r3, [r3, #16]
   d95ee:	4798      	blx	r3
   d95f0:	2800      	cmp	r0, #0
   d95f2:	dc09      	bgt.n	d9608 <serialEventRun+0x28>
        serialEvent();

    if (serialEvent1 && Serial1.available()>0)
   d95f4:	4b08      	ldr	r3, [pc, #32]	; (d9618 <serialEventRun+0x38>)
   d95f6:	b163      	cbz	r3, d9612 <serialEventRun+0x32>
   d95f8:	f7ff ff06 	bl	d9408 <_Z22__fetch_global_Serial1v>
   d95fc:	6803      	ldr	r3, [r0, #0]
   d95fe:	691b      	ldr	r3, [r3, #16]
   d9600:	4798      	blx	r3
   d9602:	2800      	cmp	r0, #0
   d9604:	dc03      	bgt.n	d960e <serialEventRun+0x2e>
   d9606:	bd08      	pop	{r3, pc}
 * Provides background processing of serial data.
 */
void serialEventRun()
{
    if (serialEvent && Serial.available()>0)
        serialEvent();
   d9608:	f3af 8000 	nop.w
   d960c:	e7f2      	b.n	d95f4 <serialEventRun+0x14>

    if (serialEvent1 && Serial1.available()>0)
        serialEvent1();
   d960e:	f3af 8000 	nop.w
   d9612:	bd08      	pop	{r3, pc}
	...

000d961c <_post_loop>:
#if Wiring_Serial5
void serialEvent5() __attribute__((weak));
#endif

void _post_loop()
{
   d961c:	b508      	push	{r3, lr}
	serialEventRun();
   d961e:	f7ff ffdf 	bl	d95e0 <serialEventRun>
		return !timeout_fn;
	}

	static inline system_tick_t current_time()
	{
		return HAL_Timer_Get_Milli_Seconds();
   d9622:	f7fe f8c3 	bl	d77ac <HAL_Timer_Get_Milli_Seconds>
	/**
	 * Lifesign that the application is still working normally.
	 */
	static void checkin()
	{
		last_checkin = current_time();
   d9626:	4b01      	ldr	r3, [pc, #4]	; (d962c <_post_loop+0x10>)
   d9628:	6018      	str	r0, [r3, #0]
   d962a:	bd08      	pop	{r3, pc}
   d962c:	2003e6e8 	.word	0x2003e6e8

000d9630 <_Z27ctrl_request_custom_handlerP12ctrl_request>:
bool __backup_ram_was_valid() { return false; }

#endif

// Default handler for CTRL_REQUEST_APP_CUSTOM requests
void __attribute((weak)) ctrl_request_custom_handler(ctrl_request* req) {
   d9630:	b507      	push	{r0, r1, r2, lr}
    system_ctrl_set_result(req, SYSTEM_ERROR_NOT_SUPPORTED, nullptr, nullptr, nullptr);
   d9632:	2300      	movs	r3, #0
   d9634:	9300      	str	r3, [sp, #0]
   d9636:	461a      	mov	r2, r3
   d9638:	f06f 0177 	mvn.w	r1, #119	; 0x77
   d963c:	f7fe fab0 	bl	d7ba0 <system_ctrl_set_result>
}
   d9640:	b003      	add	sp, #12
   d9642:	f85d fb04 	ldr.w	pc, [sp], #4
	...

000d9648 <_ZL20ctrl_request_handlerP12ctrl_request>:
// Callback invoked to process a logging configuration request
void(*log_process_ctrl_request_callback)(ctrl_request* req) = nullptr;
#endif

// Application handler for control requests
static void ctrl_request_handler(ctrl_request* req) {
   d9648:	b507      	push	{r0, r1, r2, lr}
    switch (req->type) {
   d964a:	8843      	ldrh	r3, [r0, #2]
   d964c:	2b0a      	cmp	r3, #10
   d964e:	d008      	beq.n	d9662 <_ZL20ctrl_request_handlerP12ctrl_request+0x1a>
   d9650:	2b50      	cmp	r3, #80	; 0x50
   d9652:	d109      	bne.n	d9668 <_ZL20ctrl_request_handlerP12ctrl_request+0x20>
#if Wiring_LogConfig
    case CTRL_REQUEST_LOG_CONFIG: {
        if (log_process_ctrl_request_callback) {
   d9654:	4b09      	ldr	r3, [pc, #36]	; (d967c <_ZL20ctrl_request_handlerP12ctrl_request+0x34>)
   d9656:	681b      	ldr	r3, [r3, #0]
   d9658:	b13b      	cbz	r3, d966a <_ZL20ctrl_request_handlerP12ctrl_request+0x22>
    }
    default:
        system_ctrl_set_result(req, SYSTEM_ERROR_NOT_SUPPORTED, nullptr, nullptr, nullptr);
        break;
    }
}
   d965a:	b003      	add	sp, #12
   d965c:	f85d eb04 	ldr.w	lr, [sp], #4
static void ctrl_request_handler(ctrl_request* req) {
    switch (req->type) {
#if Wiring_LogConfig
    case CTRL_REQUEST_LOG_CONFIG: {
        if (log_process_ctrl_request_callback) {
            log_process_ctrl_request_callback(req);
   d9660:	4718      	bx	r3
        }
        break;
    }
#endif
    case CTRL_REQUEST_APP_CUSTOM: {
        ctrl_request_custom_handler(req);
   d9662:	f7ff ffe5 	bl	d9630 <_Z27ctrl_request_custom_handlerP12ctrl_request>
        break;
   d9666:	e006      	b.n	d9676 <_ZL20ctrl_request_handlerP12ctrl_request+0x2e>
    }
    default:
        system_ctrl_set_result(req, SYSTEM_ERROR_NOT_SUPPORTED, nullptr, nullptr, nullptr);
   d9668:	2300      	movs	r3, #0
   d966a:	9300      	str	r3, [sp, #0]
   d966c:	461a      	mov	r2, r3
   d966e:	f06f 0177 	mvn.w	r1, #119	; 0x77
   d9672:	f7fe fa95 	bl	d7ba0 <system_ctrl_set_result>
        break;
    }
}
   d9676:	b003      	add	sp, #12
   d9678:	f85d fb04 	ldr.w	pc, [sp], #4
   d967c:	2003e6e4 	.word	0x2003e6e4

000d9680 <module_user_init_hook>:

void module_user_init_hook()
{
   d9680:	b510      	push	{r4, lr}
    }
#endif

#if HAL_PLATFORM_RNG
    // Initialize the default stdlib PRNG using hardware RNG as a seed
    const uint32_t seed = HAL_RNG_GetRandomNumber();
   d9682:	f7fe f87b 	bl	d777c <HAL_RNG_GetRandomNumber>
   d9686:	4604      	mov	r4, r0
    srand(seed);
   d9688:	f000 ff9a 	bl	da5c0 <srand>

    // If the user defines random_seed_from_cloud, call it with a seed value
    // generated by a hardware RNG as well.
    if (random_seed_from_cloud) {
   d968c:	4b07      	ldr	r3, [pc, #28]	; (d96ac <module_user_init_hook+0x2c>)
   d968e:	b113      	cbz	r3, d9696 <module_user_init_hook+0x16>
        random_seed_from_cloud(seed);
   d9690:	4620      	mov	r0, r4
   d9692:	f3af 8000 	nop.w
    }
#endif
    // Register the random_seed_from_cloud handler
    spark_set_random_seed_from_cloud_handler(&random_seed_from_cloud, nullptr);
   d9696:	2100      	movs	r1, #0
   d9698:	4804      	ldr	r0, [pc, #16]	; (d96ac <module_user_init_hook+0x2c>)
   d969a:	f7fe fab3 	bl	d7c04 <spark_set_random_seed_from_cloud_handler>

    // Register application handler for the control requests
    system_ctrl_set_app_request_handler(ctrl_request_handler, nullptr);
   d969e:	2100      	movs	r1, #0
   d96a0:	4803      	ldr	r0, [pc, #12]	; (d96b0 <module_user_init_hook+0x30>)
}
   d96a2:	e8bd 4010 	ldmia.w	sp!, {r4, lr}
#endif
    // Register the random_seed_from_cloud handler
    spark_set_random_seed_from_cloud_handler(&random_seed_from_cloud, nullptr);

    // Register application handler for the control requests
    system_ctrl_set_app_request_handler(ctrl_request_handler, nullptr);
   d96a6:	f7fe ba71 	b.w	d7b8c <system_ctrl_set_app_request_handler>
   d96aa:	bf00      	nop
   d96ac:	00000000 	.word	0x00000000
   d96b0:	000d9649 	.word	0x000d9649

000d96b4 <pinAvailable>:

/*
 * @brief Perform safety check on desired pin to see if it's already
 * being used.  Return 0 if used, otherwise return 1 if available.
 */
bool pinAvailable(uint16_t pin) {
   d96b4:	b510      	push	{r4, lr}
   d96b6:	4604      	mov	r4, r0

  // SPI safety check
#ifndef SPARK_WIRING_NO_SPI
  if(SPI.isEnabled() == true && (pin == SCK || pin == MOSI || pin == MISO))
   d96b8:	480f      	ldr	r0, [pc, #60]	; (d96f8 <pinAvailable+0x44>)
   d96ba:	f7ff f96d 	bl	d8998 <_ZN8SPIClass9isEnabledEv>
   d96be:	b128      	cbz	r0, d96cc <pinAvailable+0x18>
   d96c0:	f1a4 030b 	sub.w	r3, r4, #11
   d96c4:	2b02      	cmp	r3, #2
   d96c6:	d801      	bhi.n	d96cc <pinAvailable+0x18>
  {
    return 0; // 'pin' is used
   d96c8:	2000      	movs	r0, #0
   d96ca:	bd10      	pop	{r4, pc}
  }
#endif
  // I2C safety check
#ifndef SPARK_WIRING_NO_I2C
  if(Wire.isEnabled() == true && (pin == SCL || pin == SDA))
   d96cc:	f000 f890 	bl	d97f0 <_Z19__fetch_global_Wirev>
   d96d0:	f7fe fea1 	bl	d8416 <_ZN7TwoWire9isEnabledEv>
   d96d4:	b108      	cbz	r0, d96da <pinAvailable+0x26>
   d96d6:	2c01      	cmp	r4, #1
   d96d8:	d9f6      	bls.n	d96c8 <pinAvailable+0x14>
    return 0; // 'pin' is used
  }
#endif
#ifndef SPARK_WIRING_NO_USART_SERIAL
  // Serial1 safety check
  if(Serial1.isEnabled() == true && (pin == RX || pin == TX))
   d96da:	f7ff fe95 	bl	d9408 <_Z22__fetch_global_Serial1v>
   d96de:	f7ff fe8f 	bl	d9400 <_ZN11USARTSerial9isEnabledEv>
   d96e2:	b118      	cbz	r0, d96ec <pinAvailable+0x38>
   d96e4:	f1a4 0309 	sub.w	r3, r4, #9
   d96e8:	2b01      	cmp	r3, #1
   d96ea:	d9ed      	bls.n	d96c8 <pinAvailable+0x14>
  {
    return 0; // 'pin' is used
  }
#endif

  if (pin >= TOTAL_PINS)
   d96ec:	2c23      	cmp	r4, #35	; 0x23
   d96ee:	bf8c      	ite	hi
   d96f0:	2000      	movhi	r0, #0
   d96f2:	2001      	movls	r0, #1
    return 0;
  else
    return 1; // 'pin' is available
}
   d96f4:	bd10      	pop	{r4, pc}
   d96f6:	bf00      	nop
   d96f8:	2003e704 	.word	0x2003e704

000d96fc <pinMode>:
 * or INPUT_PULLDOWN
 */
void pinMode(uint16_t pin, PinMode setMode)
{

  if(pin >= TOTAL_PINS || setMode == PIN_MODE_NONE )
   d96fc:	2823      	cmp	r0, #35	; 0x23
/*
 * @brief Set the mode of the pin to OUTPUT, INPUT, INPUT_PULLUP,
 * or INPUT_PULLDOWN
 */
void pinMode(uint16_t pin, PinMode setMode)
{
   d96fe:	b538      	push	{r3, r4, r5, lr}
   d9700:	4604      	mov	r4, r0
   d9702:	460d      	mov	r5, r1

  if(pin >= TOTAL_PINS || setMode == PIN_MODE_NONE )
   d9704:	d80a      	bhi.n	d971c <pinMode+0x20>
   d9706:	29ff      	cmp	r1, #255	; 0xff
   d9708:	d008      	beq.n	d971c <pinMode+0x20>
  {
    return;
  }

  // Safety check
  if( !pinAvailable(pin) ) {
   d970a:	f7ff ffd3 	bl	d96b4 <pinAvailable>
   d970e:	b128      	cbz	r0, d971c <pinMode+0x20>
    return;
  }

  HAL_Pin_Mode(pin, setMode);
   d9710:	4629      	mov	r1, r5
   d9712:	4620      	mov	r0, r4
}
   d9714:	e8bd 4038 	ldmia.w	sp!, {r3, r4, r5, lr}
  // Safety check
  if( !pinAvailable(pin) ) {
    return;
  }

  HAL_Pin_Mode(pin, setMode);
   d9718:	f7fe b870 	b.w	d77fc <HAL_Pin_Mode>
   d971c:	bd38      	pop	{r3, r4, r5, pc}

000d971e <digitalWrite>:

/*
 * @brief Sets a GPIO pin to HIGH or LOW.
 */
void digitalWrite(pin_t pin, uint8_t value)
{
   d971e:	b538      	push	{r3, r4, r5, lr}
   d9720:	4604      	mov	r4, r0
   d9722:	460d      	mov	r5, r1
    PinMode mode = HAL_Get_Pin_Mode(pin);
   d9724:	f7fe f872 	bl	d780c <HAL_Get_Pin_Mode>
    if (mode==PIN_MODE_NONE || is_input_mode(mode))
   d9728:	28ff      	cmp	r0, #255	; 0xff
   d972a:	d010      	beq.n	d974e <digitalWrite+0x30>
}

inline bool is_input_mode(PinMode mode) {
    return  mode == INPUT ||
            mode == INPUT_PULLUP ||
            mode == INPUT_PULLDOWN ||
   d972c:	2806      	cmp	r0, #6
   d972e:	d804      	bhi.n	d973a <digitalWrite+0x1c>
   d9730:	234d      	movs	r3, #77	; 0x4d
   d9732:	fa23 f000 	lsr.w	r0, r3, r0
   d9736:	07c3      	lsls	r3, r0, #31
   d9738:	d409      	bmi.n	d974e <digitalWrite+0x30>
{
    PinMode mode = HAL_Get_Pin_Mode(pin);
    if (mode==PIN_MODE_NONE || is_input_mode(mode))
        return;
  // Safety check
  if( !pinAvailable(pin) ) {
   d973a:	4620      	mov	r0, r4
   d973c:	f7ff ffba 	bl	d96b4 <pinAvailable>
   d9740:	b128      	cbz	r0, d974e <digitalWrite+0x30>
    return;
  }

  HAL_GPIO_Write(pin, value);
   d9742:	4629      	mov	r1, r5
   d9744:	4620      	mov	r0, r4
}
   d9746:	e8bd 4038 	ldmia.w	sp!, {r3, r4, r5, lr}
  // Safety check
  if( !pinAvailable(pin) ) {
    return;
  }

  HAL_GPIO_Write(pin, value);
   d974a:	f7fe b867 	b.w	d781c <HAL_GPIO_Write>
   d974e:	bd38      	pop	{r3, r4, r5, pc}

000d9750 <digitalRead>:

/*
 * @brief Reads the value of a GPIO pin. Should return either 1 (HIGH) or 0 (LOW).
 */
int32_t digitalRead(pin_t pin)
{
   d9750:	b510      	push	{r4, lr}
   d9752:	4604      	mov	r4, r0
    PinMode mode = HAL_Get_Pin_Mode(pin);
   d9754:	f7fe f85a 	bl	d780c <HAL_Get_Pin_Mode>
    if (is_af_output_mode(mode))
   d9758:	3804      	subs	r0, #4
   d975a:	b2c0      	uxtb	r0, r0
   d975c:	2801      	cmp	r0, #1
   d975e:	d908      	bls.n	d9772 <digitalRead+0x22>
        return LOW;

    // Safety check
    if( !pinAvailable(pin) ) {
   d9760:	4620      	mov	r0, r4
   d9762:	f7ff ffa7 	bl	d96b4 <pinAvailable>
   d9766:	b120      	cbz	r0, d9772 <digitalRead+0x22>
      return LOW;
    }

    return HAL_GPIO_Read(pin);
   d9768:	4620      	mov	r0, r4
}
   d976a:	e8bd 4010 	ldmia.w	sp!, {r4, lr}
    // Safety check
    if( !pinAvailable(pin) ) {
      return LOW;
    }

    return HAL_GPIO_Read(pin);
   d976e:	f7fe b85d 	b.w	d782c <HAL_GPIO_Read>
}
   d9772:	2000      	movs	r0, #0
   d9774:	bd10      	pop	{r4, pc}

000d9776 <analogRead>:
 * Note: ADC is 12-bit. Currently it returns 0-4095
 */
int32_t analogRead(pin_t pin)
{
  // Allow people to use 0-7 to define analog pins by checking to see if the values are too low.
  if(pin < FIRST_ANALOG_PIN)
   d9776:	280d      	cmp	r0, #13
 * @brief Read the analog value of a pin.
 * Should return a 16-bit value, 0-65536 (0 = LOW, 65536 = HIGH)
 * Note: ADC is 12-bit. Currently it returns 0-4095
 */
int32_t analogRead(pin_t pin)
{
   d9778:	b510      	push	{r4, lr}
   d977a:	4604      	mov	r4, r0
  // Allow people to use 0-7 to define analog pins by checking to see if the values are too low.
  if(pin < FIRST_ANALOG_PIN)
  {
    pin = pin + FIRST_ANALOG_PIN;
   d977c:	bf9c      	itt	ls
   d977e:	340e      	addls	r4, #14
   d9780:	b2a4      	uxthls	r4, r4
  }

  // Safety check
  if( !pinAvailable(pin) ) {
   d9782:	4620      	mov	r0, r4
   d9784:	f7ff ff96 	bl	d96b4 <pinAvailable>
   d9788:	b150      	cbz	r0, d97a0 <analogRead+0x2a>
    return LOW;
  }

  if(HAL_Validate_Pin_Function(pin, PF_ADC)!=PF_ADC)
   d978a:	2103      	movs	r1, #3
   d978c:	4620      	mov	r0, r4
   d978e:	f7fe f82d 	bl	d77ec <HAL_Validate_Pin_Function>
   d9792:	2803      	cmp	r0, #3
   d9794:	d104      	bne.n	d97a0 <analogRead+0x2a>
  {
    return LOW;
  }

  return HAL_ADC_Read(pin);
   d9796:	4620      	mov	r0, r4
}
   d9798:	e8bd 4010 	ldmia.w	sp!, {r4, lr}
  if(HAL_Validate_Pin_Function(pin, PF_ADC)!=PF_ADC)
  {
    return LOW;
  }

  return HAL_ADC_Read(pin);
   d979c:	f7fe b856 	b.w	d784c <HAL_ADC_Read>
}
   d97a0:	2000      	movs	r0, #0
   d97a2:	bd10      	pop	{r4, pc}

000d97a4 <_Z11analogWritetm>:
/*
 * @brief Should take an integer 0-255 and create a 500Hz PWM signal with a duty cycle from 0-100%.
 * On Photon, DAC1 and DAC2 act as true analog outputs(values: 0 to 4095) using onchip DAC peripheral
 */
void analogWrite(pin_t pin, uint32_t value)
{
   d97a4:	b538      	push	{r3, r4, r5, lr}
   d97a6:	4604      	mov	r4, r0
   d97a8:	460d      	mov	r5, r1
    // Safety check
    if (!pinAvailable(pin))
   d97aa:	f7ff ff83 	bl	d96b4 <pinAvailable>
   d97ae:	b1f0      	cbz	r0, d97ee <_Z11analogWritetm+0x4a>
    {
        return;
    }

    if (HAL_Validate_Pin_Function(pin, PF_DAC) == PF_DAC)
   d97b0:	2104      	movs	r1, #4
   d97b2:	4620      	mov	r0, r4
   d97b4:	f7fe f81a 	bl	d77ec <HAL_Validate_Pin_Function>
   d97b8:	2804      	cmp	r0, #4
   d97ba:	d105      	bne.n	d97c8 <_Z11analogWritetm+0x24>
    {
        HAL_DAC_Write(pin, value);
   d97bc:	b2a9      	uxth	r1, r5
   d97be:	4620      	mov	r0, r4
            return;
        }

        HAL_PWM_Write_Ext(pin, value);
    }
}
   d97c0:	e8bd 4038 	ldmia.w	sp!, {r3, r4, r5, lr}
        return;
    }

    if (HAL_Validate_Pin_Function(pin, PF_DAC) == PF_DAC)
    {
        HAL_DAC_Write(pin, value);
   d97c4:	f7fe b83a 	b.w	d783c <HAL_DAC_Write>
    }
    else if (HAL_Validate_Pin_Function(pin, PF_TIMER) == PF_TIMER)
   d97c8:	2102      	movs	r1, #2
   d97ca:	4620      	mov	r0, r4
   d97cc:	f7fe f80e 	bl	d77ec <HAL_Validate_Pin_Function>
   d97d0:	2802      	cmp	r0, #2
   d97d2:	d10c      	bne.n	d97ee <_Z11analogWritetm+0x4a>
    {
        PinMode mode = HAL_Get_Pin_Mode(pin);
   d97d4:	4620      	mov	r0, r4
   d97d6:	f7fe f819 	bl	d780c <HAL_Get_Pin_Mode>

        if (mode != OUTPUT && mode != AF_OUTPUT_PUSHPULL)
   d97da:	2801      	cmp	r0, #1
   d97dc:	d001      	beq.n	d97e2 <_Z11analogWritetm+0x3e>
   d97de:	2804      	cmp	r0, #4
   d97e0:	d105      	bne.n	d97ee <_Z11analogWritetm+0x4a>
        {
            return;
        }

        HAL_PWM_Write_Ext(pin, value);
   d97e2:	4629      	mov	r1, r5
   d97e4:	4620      	mov	r0, r4
    }
}
   d97e6:	e8bd 4038 	ldmia.w	sp!, {r3, r4, r5, lr}
        if (mode != OUTPUT && mode != AF_OUTPUT_PUSHPULL)
        {
            return;
        }

        HAL_PWM_Write_Ext(pin, value);
   d97ea:	f7fe b837 	b.w	d785c <HAL_PWM_Write_Ext>
   d97ee:	bd38      	pop	{r3, r4, r5, pc}

000d97f0 <_Z19__fetch_global_Wirev>:
#include "i2c_hal.h"

#ifndef SPARK_WIRING_NO_I2C

TwoWire& __fetch_global_Wire()
{
   d97f0:	b538      	push	{r3, r4, r5, lr}
	static TwoWire wire(HAL_I2C_INTERFACE1);
   d97f2:	4d0b      	ldr	r5, [pc, #44]	; (d9820 <_Z19__fetch_global_Wirev+0x30>)
   d97f4:	6829      	ldr	r1, [r5, #0]
   d97f6:	f011 0401 	ands.w	r4, r1, #1
   d97fa:	d10f      	bne.n	d981c <_Z19__fetch_global_Wirev+0x2c>
   d97fc:	4628      	mov	r0, r5
   d97fe:	f7fa fc5b 	bl	d40b8 <__cxa_guard_acquire>
   d9802:	b158      	cbz	r0, d981c <_Z19__fetch_global_Wirev+0x2c>
   d9804:	4621      	mov	r1, r4
   d9806:	4807      	ldr	r0, [pc, #28]	; (d9824 <_Z19__fetch_global_Wirev+0x34>)
   d9808:	f7fe fdd6 	bl	d83b8 <_ZN7TwoWireC1E17HAL_I2C_Interface>
   d980c:	4628      	mov	r0, r5
   d980e:	f7fa fc58 	bl	d40c2 <__cxa_guard_release>
   d9812:	4a05      	ldr	r2, [pc, #20]	; (d9828 <_Z19__fetch_global_Wirev+0x38>)
   d9814:	4905      	ldr	r1, [pc, #20]	; (d982c <_Z19__fetch_global_Wirev+0x3c>)
   d9816:	4803      	ldr	r0, [pc, #12]	; (d9824 <_Z19__fetch_global_Wirev+0x34>)
   d9818:	f000 f82c 	bl	d9874 <__aeabi_atexit>
	return wire;
}
   d981c:	4801      	ldr	r0, [pc, #4]	; (d9824 <_Z19__fetch_global_Wirev+0x34>)
   d981e:	bd38      	pop	{r3, r4, r5, pc}
   d9820:	2003e6ec 	.word	0x2003e6ec
   d9824:	2003e6f0 	.word	0x2003e6f0
   d9828:	2003dc3c 	.word	0x2003dc3c
   d982c:	000d8361 	.word	0x000d8361

000d9830 <_GLOBAL__sub_I_SPI>:
#ifndef SPARK_WIRING_NO_SPI

SPIClass SPI(HAL_SPI_INTERFACE1);

#if Wiring_SPI1
SPIClass SPI1(HAL_SPI_INTERFACE2);
   d9830:	b570      	push	{r4, r5, r6, lr}
#include "core_hal.h"
#include "spark_macros.h"

#ifndef SPARK_WIRING_NO_SPI

SPIClass SPI(HAL_SPI_INTERFACE1);
   d9832:	4c0c      	ldr	r4, [pc, #48]	; (d9864 <_GLOBAL__sub_I_SPI+0x34>)
   d9834:	4e0c      	ldr	r6, [pc, #48]	; (d9868 <_GLOBAL__sub_I_SPI+0x38>)
   d9836:	4d0d      	ldr	r5, [pc, #52]	; (d986c <_GLOBAL__sub_I_SPI+0x3c>)
   d9838:	2100      	movs	r1, #0
   d983a:	4620      	mov	r0, r4
   d983c:	f7ff f898 	bl	d8970 <_ZN8SPIClassC1E17HAL_SPI_Interface>
   d9840:	4620      	mov	r0, r4

#if Wiring_SPI1
SPIClass SPI1(HAL_SPI_INTERFACE2);
   d9842:	4c0b      	ldr	r4, [pc, #44]	; (d9870 <_GLOBAL__sub_I_SPI+0x40>)
#include "core_hal.h"
#include "spark_macros.h"

#ifndef SPARK_WIRING_NO_SPI

SPIClass SPI(HAL_SPI_INTERFACE1);
   d9844:	4632      	mov	r2, r6
   d9846:	4629      	mov	r1, r5
   d9848:	f000 f814 	bl	d9874 <__aeabi_atexit>

#if Wiring_SPI1
SPIClass SPI1(HAL_SPI_INTERFACE2);
   d984c:	2101      	movs	r1, #1
   d984e:	4620      	mov	r0, r4
   d9850:	f7ff f88e 	bl	d8970 <_ZN8SPIClassC1E17HAL_SPI_Interface>
   d9854:	4632      	mov	r2, r6
   d9856:	4629      	mov	r1, r5
   d9858:	4620      	mov	r0, r4
   d985a:	e8bd 4070 	ldmia.w	sp!, {r4, r5, r6, lr}
   d985e:	f000 b809 	b.w	d9874 <__aeabi_atexit>
   d9862:	bf00      	nop
   d9864:	2003e704 	.word	0x2003e704
   d9868:	2003dc3c 	.word	0x2003dc3c
   d986c:	000d8961 	.word	0x000d8961
   d9870:	2003e714 	.word	0x2003e714

000d9874 <__aeabi_atexit>:
   d9874:	460b      	mov	r3, r1
   d9876:	4601      	mov	r1, r0
   d9878:	4618      	mov	r0, r3
   d987a:	f000 bd87 	b.w	da38c <__cxa_atexit>

000d987e <_ZdlPvj>:
   d987e:	f7fa bc0c 	b.w	d409a <_ZdlPv>
	...

000d9884 <_ZSt15get_new_handlerv>:
   d9884:	4b02      	ldr	r3, [pc, #8]	; (d9890 <_ZSt15get_new_handlerv+0xc>)
   d9886:	6818      	ldr	r0, [r3, #0]
   d9888:	f3bf 8f5f 	dmb	sy
   d988c:	4770      	bx	lr
   d988e:	bf00      	nop
   d9890:	2003e724 	.word	0x2003e724

000d9894 <_ZnwjRKSt9nothrow_t>:
   d9894:	b510      	push	{r4, lr}
   d9896:	2800      	cmp	r0, #0
   d9898:	bf14      	ite	ne
   d989a:	4604      	movne	r4, r0
   d989c:	2401      	moveq	r4, #1
   d989e:	4620      	mov	r0, r4
   d98a0:	f7fe fa08 	bl	d7cb4 <malloc>
   d98a4:	b920      	cbnz	r0, d98b0 <_ZnwjRKSt9nothrow_t+0x1c>
   d98a6:	f7ff ffed 	bl	d9884 <_ZSt15get_new_handlerv>
   d98aa:	b108      	cbz	r0, d98b0 <_ZnwjRKSt9nothrow_t+0x1c>
   d98ac:	4780      	blx	r0
   d98ae:	e7f6      	b.n	d989e <_ZnwjRKSt9nothrow_t+0xa>
   d98b0:	bd10      	pop	{r4, pc}

000d98b2 <_ZSt25__throw_bad_function_callv>:
   d98b2:	b508      	push	{r3, lr}
   d98b4:	f7fe fa3e 	bl	d7d34 <abort>

000d98b8 <_GLOBAL__sub_I__ZNSt12ctype_bynameIwEC2ERKSsj>:
   d98b8:	4b24      	ldr	r3, [pc, #144]	; (d994c <_GLOBAL__sub_I__ZNSt12ctype_bynameIwEC2ERKSsj+0x94>)
   d98ba:	681a      	ldr	r2, [r3, #0]
   d98bc:	07d0      	lsls	r0, r2, #31
   d98be:	bf5c      	itt	pl
   d98c0:	2201      	movpl	r2, #1
   d98c2:	601a      	strpl	r2, [r3, #0]
   d98c4:	4b22      	ldr	r3, [pc, #136]	; (d9950 <_GLOBAL__sub_I__ZNSt12ctype_bynameIwEC2ERKSsj+0x98>)
   d98c6:	681a      	ldr	r2, [r3, #0]
   d98c8:	07d1      	lsls	r1, r2, #31
   d98ca:	bf5c      	itt	pl
   d98cc:	2201      	movpl	r2, #1
   d98ce:	601a      	strpl	r2, [r3, #0]
   d98d0:	4b20      	ldr	r3, [pc, #128]	; (d9954 <_GLOBAL__sub_I__ZNSt12ctype_bynameIwEC2ERKSsj+0x9c>)
   d98d2:	681a      	ldr	r2, [r3, #0]
   d98d4:	07d2      	lsls	r2, r2, #31
   d98d6:	bf5c      	itt	pl
   d98d8:	2201      	movpl	r2, #1
   d98da:	601a      	strpl	r2, [r3, #0]
   d98dc:	4b1e      	ldr	r3, [pc, #120]	; (d9958 <_GLOBAL__sub_I__ZNSt12ctype_bynameIwEC2ERKSsj+0xa0>)
   d98de:	681a      	ldr	r2, [r3, #0]
   d98e0:	07d0      	lsls	r0, r2, #31
   d98e2:	bf5c      	itt	pl
   d98e4:	2201      	movpl	r2, #1
   d98e6:	601a      	strpl	r2, [r3, #0]
   d98e8:	4b1c      	ldr	r3, [pc, #112]	; (d995c <_GLOBAL__sub_I__ZNSt12ctype_bynameIwEC2ERKSsj+0xa4>)
   d98ea:	681a      	ldr	r2, [r3, #0]
   d98ec:	07d1      	lsls	r1, r2, #31
   d98ee:	bf5c      	itt	pl
   d98f0:	2201      	movpl	r2, #1
   d98f2:	601a      	strpl	r2, [r3, #0]
   d98f4:	4b1a      	ldr	r3, [pc, #104]	; (d9960 <_GLOBAL__sub_I__ZNSt12ctype_bynameIwEC2ERKSsj+0xa8>)
   d98f6:	681a      	ldr	r2, [r3, #0]
   d98f8:	07d2      	lsls	r2, r2, #31
   d98fa:	bf5c      	itt	pl
   d98fc:	2201      	movpl	r2, #1
   d98fe:	601a      	strpl	r2, [r3, #0]
   d9900:	4b18      	ldr	r3, [pc, #96]	; (d9964 <_GLOBAL__sub_I__ZNSt12ctype_bynameIwEC2ERKSsj+0xac>)
   d9902:	681a      	ldr	r2, [r3, #0]
   d9904:	07d0      	lsls	r0, r2, #31
   d9906:	bf5c      	itt	pl
   d9908:	2201      	movpl	r2, #1
   d990a:	601a      	strpl	r2, [r3, #0]
   d990c:	4b16      	ldr	r3, [pc, #88]	; (d9968 <_GLOBAL__sub_I__ZNSt12ctype_bynameIwEC2ERKSsj+0xb0>)
   d990e:	681a      	ldr	r2, [r3, #0]
   d9910:	07d1      	lsls	r1, r2, #31
   d9912:	bf5c      	itt	pl
   d9914:	2201      	movpl	r2, #1
   d9916:	601a      	strpl	r2, [r3, #0]
   d9918:	4b14      	ldr	r3, [pc, #80]	; (d996c <_GLOBAL__sub_I__ZNSt12ctype_bynameIwEC2ERKSsj+0xb4>)
   d991a:	681a      	ldr	r2, [r3, #0]
   d991c:	07d2      	lsls	r2, r2, #31
   d991e:	bf5c      	itt	pl
   d9920:	2201      	movpl	r2, #1
   d9922:	601a      	strpl	r2, [r3, #0]
   d9924:	4b12      	ldr	r3, [pc, #72]	; (d9970 <_GLOBAL__sub_I__ZNSt12ctype_bynameIwEC2ERKSsj+0xb8>)
   d9926:	681a      	ldr	r2, [r3, #0]
   d9928:	07d0      	lsls	r0, r2, #31
   d992a:	bf5c      	itt	pl
   d992c:	2201      	movpl	r2, #1
   d992e:	601a      	strpl	r2, [r3, #0]
   d9930:	4b10      	ldr	r3, [pc, #64]	; (d9974 <_GLOBAL__sub_I__ZNSt12ctype_bynameIwEC2ERKSsj+0xbc>)
   d9932:	681a      	ldr	r2, [r3, #0]
   d9934:	07d1      	lsls	r1, r2, #31
   d9936:	bf5c      	itt	pl
   d9938:	2201      	movpl	r2, #1
   d993a:	601a      	strpl	r2, [r3, #0]
   d993c:	4b0e      	ldr	r3, [pc, #56]	; (d9978 <_GLOBAL__sub_I__ZNSt12ctype_bynameIwEC2ERKSsj+0xc0>)
   d993e:	681a      	ldr	r2, [r3, #0]
   d9940:	07d2      	lsls	r2, r2, #31
   d9942:	bf5c      	itt	pl
   d9944:	2201      	movpl	r2, #1
   d9946:	601a      	strpl	r2, [r3, #0]
   d9948:	4770      	bx	lr
   d994a:	bf00      	nop
   d994c:	2003e754 	.word	0x2003e754
   d9950:	2003e750 	.word	0x2003e750
   d9954:	2003e74c 	.word	0x2003e74c
   d9958:	2003e748 	.word	0x2003e748
   d995c:	2003e744 	.word	0x2003e744
   d9960:	2003e740 	.word	0x2003e740
   d9964:	2003e73c 	.word	0x2003e73c
   d9968:	2003e738 	.word	0x2003e738
   d996c:	2003e734 	.word	0x2003e734
   d9970:	2003e730 	.word	0x2003e730
   d9974:	2003e72c 	.word	0x2003e72c
   d9978:	2003e728 	.word	0x2003e728

000d997c <_GLOBAL__sub_I__ZNSt12ctype_bynameIcEC2ERKNSt7__cxx1112basic_stringIcSt11char_traitsIcESaIcEEEj>:
   d997c:	4b18      	ldr	r3, [pc, #96]	; (d99e0 <_GLOBAL__sub_I__ZNSt12ctype_bynameIcEC2ERKNSt7__cxx1112basic_stringIcSt11char_traitsIcESaIcEEEj+0x64>)
   d997e:	681a      	ldr	r2, [r3, #0]
   d9980:	07d1      	lsls	r1, r2, #31
   d9982:	bf5c      	itt	pl
   d9984:	2201      	movpl	r2, #1
   d9986:	601a      	strpl	r2, [r3, #0]
   d9988:	4b16      	ldr	r3, [pc, #88]	; (d99e4 <_GLOBAL__sub_I__ZNSt12ctype_bynameIcEC2ERKNSt7__cxx1112basic_stringIcSt11char_traitsIcESaIcEEEj+0x68>)
   d998a:	681a      	ldr	r2, [r3, #0]
   d998c:	07d2      	lsls	r2, r2, #31
   d998e:	bf5c      	itt	pl
   d9990:	2201      	movpl	r2, #1
   d9992:	601a      	strpl	r2, [r3, #0]
   d9994:	4b14      	ldr	r3, [pc, #80]	; (d99e8 <_GLOBAL__sub_I__ZNSt12ctype_bynameIcEC2ERKNSt7__cxx1112basic_stringIcSt11char_traitsIcESaIcEEEj+0x6c>)
   d9996:	681a      	ldr	r2, [r3, #0]
   d9998:	07d0      	lsls	r0, r2, #31
   d999a:	bf5c      	itt	pl
   d999c:	2201      	movpl	r2, #1
   d999e:	601a      	strpl	r2, [r3, #0]
   d99a0:	4b12      	ldr	r3, [pc, #72]	; (d99ec <_GLOBAL__sub_I__ZNSt12ctype_bynameIcEC2ERKNSt7__cxx1112basic_stringIcSt11char_traitsIcESaIcEEEj+0x70>)
   d99a2:	681a      	ldr	r2, [r3, #0]
   d99a4:	07d1      	lsls	r1, r2, #31
   d99a6:	bf5c      	itt	pl
   d99a8:	2201      	movpl	r2, #1
   d99aa:	601a      	strpl	r2, [r3, #0]
   d99ac:	4b10      	ldr	r3, [pc, #64]	; (d99f0 <_GLOBAL__sub_I__ZNSt12ctype_bynameIcEC2ERKNSt7__cxx1112basic_stringIcSt11char_traitsIcESaIcEEEj+0x74>)
   d99ae:	681a      	ldr	r2, [r3, #0]
   d99b0:	07d2      	lsls	r2, r2, #31
   d99b2:	bf5c      	itt	pl
   d99b4:	2201      	movpl	r2, #1
   d99b6:	601a      	strpl	r2, [r3, #0]
   d99b8:	4b0e      	ldr	r3, [pc, #56]	; (d99f4 <_GLOBAL__sub_I__ZNSt12ctype_bynameIcEC2ERKNSt7__cxx1112basic_stringIcSt11char_traitsIcESaIcEEEj+0x78>)
   d99ba:	681a      	ldr	r2, [r3, #0]
   d99bc:	07d0      	lsls	r0, r2, #31
   d99be:	bf5c      	itt	pl
   d99c0:	2201      	movpl	r2, #1
   d99c2:	601a      	strpl	r2, [r3, #0]
   d99c4:	4b0c      	ldr	r3, [pc, #48]	; (d99f8 <_GLOBAL__sub_I__ZNSt12ctype_bynameIcEC2ERKNSt7__cxx1112basic_stringIcSt11char_traitsIcESaIcEEEj+0x7c>)
   d99c6:	681a      	ldr	r2, [r3, #0]
   d99c8:	07d1      	lsls	r1, r2, #31
   d99ca:	bf5c      	itt	pl
   d99cc:	2201      	movpl	r2, #1
   d99ce:	601a      	strpl	r2, [r3, #0]
   d99d0:	4b0a      	ldr	r3, [pc, #40]	; (d99fc <_GLOBAL__sub_I__ZNSt12ctype_bynameIcEC2ERKNSt7__cxx1112basic_stringIcSt11char_traitsIcESaIcEEEj+0x80>)
   d99d2:	681a      	ldr	r2, [r3, #0]
   d99d4:	07d2      	lsls	r2, r2, #31
   d99d6:	bf5c      	itt	pl
   d99d8:	2201      	movpl	r2, #1
   d99da:	601a      	strpl	r2, [r3, #0]
   d99dc:	4770      	bx	lr
   d99de:	bf00      	nop
   d99e0:	2003e774 	.word	0x2003e774
   d99e4:	2003e770 	.word	0x2003e770
   d99e8:	2003e76c 	.word	0x2003e76c
   d99ec:	2003e768 	.word	0x2003e768
   d99f0:	2003e764 	.word	0x2003e764
   d99f4:	2003e760 	.word	0x2003e760
   d99f8:	2003e75c 	.word	0x2003e75c
   d99fc:	2003e758 	.word	0x2003e758

000d9a00 <_GLOBAL__sub_I__ZNSt12ctype_bynameIwEC2ERKNSt7__cxx1112basic_stringIcSt11char_traitsIcESaIcEEEj>:
   d9a00:	4b18      	ldr	r3, [pc, #96]	; (d9a64 <_GLOBAL__sub_I__ZNSt12ctype_bynameIwEC2ERKNSt7__cxx1112basic_stringIcSt11char_traitsIcESaIcEEEj+0x64>)
   d9a02:	681a      	ldr	r2, [r3, #0]
   d9a04:	07d1      	lsls	r1, r2, #31
   d9a06:	bf5c      	itt	pl
   d9a08:	2201      	movpl	r2, #1
   d9a0a:	601a      	strpl	r2, [r3, #0]
   d9a0c:	4b16      	ldr	r3, [pc, #88]	; (d9a68 <_GLOBAL__sub_I__ZNSt12ctype_bynameIwEC2ERKNSt7__cxx1112basic_stringIcSt11char_traitsIcESaIcEEEj+0x68>)
   d9a0e:	681a      	ldr	r2, [r3, #0]
   d9a10:	07d2      	lsls	r2, r2, #31
   d9a12:	bf5c      	itt	pl
   d9a14:	2201      	movpl	r2, #1
   d9a16:	601a      	strpl	r2, [r3, #0]
   d9a18:	4b14      	ldr	r3, [pc, #80]	; (d9a6c <_GLOBAL__sub_I__ZNSt12ctype_bynameIwEC2ERKNSt7__cxx1112basic_stringIcSt11char_traitsIcESaIcEEEj+0x6c>)
   d9a1a:	681a      	ldr	r2, [r3, #0]
   d9a1c:	07d0      	lsls	r0, r2, #31
   d9a1e:	bf5c      	itt	pl
   d9a20:	2201      	movpl	r2, #1
   d9a22:	601a      	strpl	r2, [r3, #0]
   d9a24:	4b12      	ldr	r3, [pc, #72]	; (d9a70 <_GLOBAL__sub_I__ZNSt12ctype_bynameIwEC2ERKNSt7__cxx1112basic_stringIcSt11char_traitsIcESaIcEEEj+0x70>)
   d9a26:	681a      	ldr	r2, [r3, #0]
   d9a28:	07d1      	lsls	r1, r2, #31
   d9a2a:	bf5c      	itt	pl
   d9a2c:	2201      	movpl	r2, #1
   d9a2e:	601a      	strpl	r2, [r3, #0]
   d9a30:	4b10      	ldr	r3, [pc, #64]	; (d9a74 <_GLOBAL__sub_I__ZNSt12ctype_bynameIwEC2ERKNSt7__cxx1112basic_stringIcSt11char_traitsIcESaIcEEEj+0x74>)
   d9a32:	681a      	ldr	r2, [r3, #0]
   d9a34:	07d2      	lsls	r2, r2, #31
   d9a36:	bf5c      	itt	pl
   d9a38:	2201      	movpl	r2, #1
   d9a3a:	601a      	strpl	r2, [r3, #0]
   d9a3c:	4b0e      	ldr	r3, [pc, #56]	; (d9a78 <_GLOBAL__sub_I__ZNSt12ctype_bynameIwEC2ERKNSt7__cxx1112basic_stringIcSt11char_traitsIcESaIcEEEj+0x78>)
   d9a3e:	681a      	ldr	r2, [r3, #0]
   d9a40:	07d0      	lsls	r0, r2, #31
   d9a42:	bf5c      	itt	pl
   d9a44:	2201      	movpl	r2, #1
   d9a46:	601a      	strpl	r2, [r3, #0]
   d9a48:	4b0c      	ldr	r3, [pc, #48]	; (d9a7c <_GLOBAL__sub_I__ZNSt12ctype_bynameIwEC2ERKNSt7__cxx1112basic_stringIcSt11char_traitsIcESaIcEEEj+0x7c>)
   d9a4a:	681a      	ldr	r2, [r3, #0]
   d9a4c:	07d1      	lsls	r1, r2, #31
   d9a4e:	bf5c      	itt	pl
   d9a50:	2201      	movpl	r2, #1
   d9a52:	601a      	strpl	r2, [r3, #0]
   d9a54:	4b0a      	ldr	r3, [pc, #40]	; (d9a80 <_GLOBAL__sub_I__ZNSt12ctype_bynameIwEC2ERKNSt7__cxx1112basic_stringIcSt11char_traitsIcESaIcEEEj+0x80>)
   d9a56:	681a      	ldr	r2, [r3, #0]
   d9a58:	07d2      	lsls	r2, r2, #31
   d9a5a:	bf5c      	itt	pl
   d9a5c:	2201      	movpl	r2, #1
   d9a5e:	601a      	strpl	r2, [r3, #0]
   d9a60:	4770      	bx	lr
   d9a62:	bf00      	nop
   d9a64:	2003e794 	.word	0x2003e794
   d9a68:	2003e790 	.word	0x2003e790
   d9a6c:	2003e78c 	.word	0x2003e78c
   d9a70:	2003e788 	.word	0x2003e788
   d9a74:	2003e784 	.word	0x2003e784
   d9a78:	2003e780 	.word	0x2003e780
   d9a7c:	2003e77c 	.word	0x2003e77c
   d9a80:	2003e778 	.word	0x2003e778

000d9a84 <_GLOBAL__sub_I__ZNSt12ctype_bynameIcEC2ERKSsj>:
   d9a84:	4b24      	ldr	r3, [pc, #144]	; (d9b18 <_GLOBAL__sub_I__ZNSt12ctype_bynameIcEC2ERKSsj+0x94>)
   d9a86:	681a      	ldr	r2, [r3, #0]
   d9a88:	07d0      	lsls	r0, r2, #31
   d9a8a:	bf5c      	itt	pl
   d9a8c:	2201      	movpl	r2, #1
   d9a8e:	601a      	strpl	r2, [r3, #0]
   d9a90:	4b22      	ldr	r3, [pc, #136]	; (d9b1c <_GLOBAL__sub_I__ZNSt12ctype_bynameIcEC2ERKSsj+0x98>)
   d9a92:	681a      	ldr	r2, [r3, #0]
   d9a94:	07d1      	lsls	r1, r2, #31
   d9a96:	bf5c      	itt	pl
   d9a98:	2201      	movpl	r2, #1
   d9a9a:	601a      	strpl	r2, [r3, #0]
   d9a9c:	4b20      	ldr	r3, [pc, #128]	; (d9b20 <_GLOBAL__sub_I__ZNSt12ctype_bynameIcEC2ERKSsj+0x9c>)
   d9a9e:	681a      	ldr	r2, [r3, #0]
   d9aa0:	07d2      	lsls	r2, r2, #31
   d9aa2:	bf5c      	itt	pl
   d9aa4:	2201      	movpl	r2, #1
   d9aa6:	601a      	strpl	r2, [r3, #0]
   d9aa8:	4b1e      	ldr	r3, [pc, #120]	; (d9b24 <_GLOBAL__sub_I__ZNSt12ctype_bynameIcEC2ERKSsj+0xa0>)
   d9aaa:	681a      	ldr	r2, [r3, #0]
   d9aac:	07d0      	lsls	r0, r2, #31
   d9aae:	bf5c      	itt	pl
   d9ab0:	2201      	movpl	r2, #1
   d9ab2:	601a      	strpl	r2, [r3, #0]
   d9ab4:	4b1c      	ldr	r3, [pc, #112]	; (d9b28 <_GLOBAL__sub_I__ZNSt12ctype_bynameIcEC2ERKSsj+0xa4>)
   d9ab6:	681a      	ldr	r2, [r3, #0]
   d9ab8:	07d1      	lsls	r1, r2, #31
   d9aba:	bf5c      	itt	pl
   d9abc:	2201      	movpl	r2, #1
   d9abe:	601a      	strpl	r2, [r3, #0]
   d9ac0:	4b1a      	ldr	r3, [pc, #104]	; (d9b2c <_GLOBAL__sub_I__ZNSt12ctype_bynameIcEC2ERKSsj+0xa8>)
   d9ac2:	681a      	ldr	r2, [r3, #0]
   d9ac4:	07d2      	lsls	r2, r2, #31
   d9ac6:	bf5c      	itt	pl
   d9ac8:	2201      	movpl	r2, #1
   d9aca:	601a      	strpl	r2, [r3, #0]
   d9acc:	4b18      	ldr	r3, [pc, #96]	; (d9b30 <_GLOBAL__sub_I__ZNSt12ctype_bynameIcEC2ERKSsj+0xac>)
   d9ace:	681a      	ldr	r2, [r3, #0]
   d9ad0:	07d0      	lsls	r0, r2, #31
   d9ad2:	bf5c      	itt	pl
   d9ad4:	2201      	movpl	r2, #1
   d9ad6:	601a      	strpl	r2, [r3, #0]
   d9ad8:	4b16      	ldr	r3, [pc, #88]	; (d9b34 <_GLOBAL__sub_I__ZNSt12ctype_bynameIcEC2ERKSsj+0xb0>)
   d9ada:	681a      	ldr	r2, [r3, #0]
   d9adc:	07d1      	lsls	r1, r2, #31
   d9ade:	bf5c      	itt	pl
   d9ae0:	2201      	movpl	r2, #1
   d9ae2:	601a      	strpl	r2, [r3, #0]
   d9ae4:	4b14      	ldr	r3, [pc, #80]	; (d9b38 <_GLOBAL__sub_I__ZNSt12ctype_bynameIcEC2ERKSsj+0xb4>)
   d9ae6:	681a      	ldr	r2, [r3, #0]
   d9ae8:	07d2      	lsls	r2, r2, #31
   d9aea:	bf5c      	itt	pl
   d9aec:	2201      	movpl	r2, #1
   d9aee:	601a      	strpl	r2, [r3, #0]
   d9af0:	4b12      	ldr	r3, [pc, #72]	; (d9b3c <_GLOBAL__sub_I__ZNSt12ctype_bynameIcEC2ERKSsj+0xb8>)
   d9af2:	681a      	ldr	r2, [r3, #0]
   d9af4:	07d0      	lsls	r0, r2, #31
   d9af6:	bf5c      	itt	pl
   d9af8:	2201      	movpl	r2, #1
   d9afa:	601a      	strpl	r2, [r3, #0]
   d9afc:	4b10      	ldr	r3, [pc, #64]	; (d9b40 <_GLOBAL__sub_I__ZNSt12ctype_bynameIcEC2ERKSsj+0xbc>)
   d9afe:	681a      	ldr	r2, [r3, #0]
   d9b00:	07d1      	lsls	r1, r2, #31
   d9b02:	bf5c      	itt	pl
   d9b04:	2201      	movpl	r2, #1
   d9b06:	601a      	strpl	r2, [r3, #0]
   d9b08:	4b0e      	ldr	r3, [pc, #56]	; (d9b44 <_GLOBAL__sub_I__ZNSt12ctype_bynameIcEC2ERKSsj+0xc0>)
   d9b0a:	681a      	ldr	r2, [r3, #0]
   d9b0c:	07d2      	lsls	r2, r2, #31
   d9b0e:	bf5c      	itt	pl
   d9b10:	2201      	movpl	r2, #1
   d9b12:	601a      	strpl	r2, [r3, #0]
   d9b14:	4770      	bx	lr
   d9b16:	bf00      	nop
   d9b18:	2003e7c4 	.word	0x2003e7c4
   d9b1c:	2003e7c0 	.word	0x2003e7c0
   d9b20:	2003e7bc 	.word	0x2003e7bc
   d9b24:	2003e7b8 	.word	0x2003e7b8
   d9b28:	2003e7b4 	.word	0x2003e7b4
   d9b2c:	2003e7b0 	.word	0x2003e7b0
   d9b30:	2003e7ac 	.word	0x2003e7ac
   d9b34:	2003e7a8 	.word	0x2003e7a8
   d9b38:	2003e7a4 	.word	0x2003e7a4
   d9b3c:	2003e7a0 	.word	0x2003e7a0
   d9b40:	2003e79c 	.word	0x2003e79c
   d9b44:	2003e798 	.word	0x2003e798

000d9b48 <__aeabi_drsub>:
   d9b48:	f081 4100 	eor.w	r1, r1, #2147483648	; 0x80000000
   d9b4c:	e002      	b.n	d9b54 <__adddf3>
   d9b4e:	bf00      	nop

000d9b50 <__aeabi_dsub>:
   d9b50:	f083 4300 	eor.w	r3, r3, #2147483648	; 0x80000000

000d9b54 <__adddf3>:
   d9b54:	b530      	push	{r4, r5, lr}
   d9b56:	ea4f 0441 	mov.w	r4, r1, lsl #1
   d9b5a:	ea4f 0543 	mov.w	r5, r3, lsl #1
   d9b5e:	ea94 0f05 	teq	r4, r5
   d9b62:	bf08      	it	eq
   d9b64:	ea90 0f02 	teqeq	r0, r2
   d9b68:	bf1f      	itttt	ne
   d9b6a:	ea54 0c00 	orrsne.w	ip, r4, r0
   d9b6e:	ea55 0c02 	orrsne.w	ip, r5, r2
   d9b72:	ea7f 5c64 	mvnsne.w	ip, r4, asr #21
   d9b76:	ea7f 5c65 	mvnsne.w	ip, r5, asr #21
   d9b7a:	f000 80e2 	beq.w	d9d42 <__adddf3+0x1ee>
   d9b7e:	ea4f 5454 	mov.w	r4, r4, lsr #21
   d9b82:	ebd4 5555 	rsbs	r5, r4, r5, lsr #21
   d9b86:	bfb8      	it	lt
   d9b88:	426d      	neglt	r5, r5
   d9b8a:	dd0c      	ble.n	d9ba6 <__adddf3+0x52>
   d9b8c:	442c      	add	r4, r5
   d9b8e:	ea80 0202 	eor.w	r2, r0, r2
   d9b92:	ea81 0303 	eor.w	r3, r1, r3
   d9b96:	ea82 0000 	eor.w	r0, r2, r0
   d9b9a:	ea83 0101 	eor.w	r1, r3, r1
   d9b9e:	ea80 0202 	eor.w	r2, r0, r2
   d9ba2:	ea81 0303 	eor.w	r3, r1, r3
   d9ba6:	2d36      	cmp	r5, #54	; 0x36
   d9ba8:	bf88      	it	hi
   d9baa:	bd30      	pophi	{r4, r5, pc}
   d9bac:	f011 4f00 	tst.w	r1, #2147483648	; 0x80000000
   d9bb0:	ea4f 3101 	mov.w	r1, r1, lsl #12
   d9bb4:	f44f 1c80 	mov.w	ip, #1048576	; 0x100000
   d9bb8:	ea4c 3111 	orr.w	r1, ip, r1, lsr #12
   d9bbc:	d002      	beq.n	d9bc4 <__adddf3+0x70>
   d9bbe:	4240      	negs	r0, r0
   d9bc0:	eb61 0141 	sbc.w	r1, r1, r1, lsl #1
   d9bc4:	f013 4f00 	tst.w	r3, #2147483648	; 0x80000000
   d9bc8:	ea4f 3303 	mov.w	r3, r3, lsl #12
   d9bcc:	ea4c 3313 	orr.w	r3, ip, r3, lsr #12
   d9bd0:	d002      	beq.n	d9bd8 <__adddf3+0x84>
   d9bd2:	4252      	negs	r2, r2
   d9bd4:	eb63 0343 	sbc.w	r3, r3, r3, lsl #1
   d9bd8:	ea94 0f05 	teq	r4, r5
   d9bdc:	f000 80a7 	beq.w	d9d2e <__adddf3+0x1da>
   d9be0:	f1a4 0401 	sub.w	r4, r4, #1
   d9be4:	f1d5 0e20 	rsbs	lr, r5, #32
   d9be8:	db0d      	blt.n	d9c06 <__adddf3+0xb2>
   d9bea:	fa02 fc0e 	lsl.w	ip, r2, lr
   d9bee:	fa22 f205 	lsr.w	r2, r2, r5
   d9bf2:	1880      	adds	r0, r0, r2
   d9bf4:	f141 0100 	adc.w	r1, r1, #0
   d9bf8:	fa03 f20e 	lsl.w	r2, r3, lr
   d9bfc:	1880      	adds	r0, r0, r2
   d9bfe:	fa43 f305 	asr.w	r3, r3, r5
   d9c02:	4159      	adcs	r1, r3
   d9c04:	e00e      	b.n	d9c24 <__adddf3+0xd0>
   d9c06:	f1a5 0520 	sub.w	r5, r5, #32
   d9c0a:	f10e 0e20 	add.w	lr, lr, #32
   d9c0e:	2a01      	cmp	r2, #1
   d9c10:	fa03 fc0e 	lsl.w	ip, r3, lr
   d9c14:	bf28      	it	cs
   d9c16:	f04c 0c02 	orrcs.w	ip, ip, #2
   d9c1a:	fa43 f305 	asr.w	r3, r3, r5
   d9c1e:	18c0      	adds	r0, r0, r3
   d9c20:	eb51 71e3 	adcs.w	r1, r1, r3, asr #31
   d9c24:	f001 4500 	and.w	r5, r1, #2147483648	; 0x80000000
   d9c28:	d507      	bpl.n	d9c3a <__adddf3+0xe6>
   d9c2a:	f04f 0e00 	mov.w	lr, #0
   d9c2e:	f1dc 0c00 	rsbs	ip, ip, #0
   d9c32:	eb7e 0000 	sbcs.w	r0, lr, r0
   d9c36:	eb6e 0101 	sbc.w	r1, lr, r1
   d9c3a:	f5b1 1f80 	cmp.w	r1, #1048576	; 0x100000
   d9c3e:	d31b      	bcc.n	d9c78 <__adddf3+0x124>
   d9c40:	f5b1 1f00 	cmp.w	r1, #2097152	; 0x200000
   d9c44:	d30c      	bcc.n	d9c60 <__adddf3+0x10c>
   d9c46:	0849      	lsrs	r1, r1, #1
   d9c48:	ea5f 0030 	movs.w	r0, r0, rrx
   d9c4c:	ea4f 0c3c 	mov.w	ip, ip, rrx
   d9c50:	f104 0401 	add.w	r4, r4, #1
   d9c54:	ea4f 5244 	mov.w	r2, r4, lsl #21
   d9c58:	f512 0f80 	cmn.w	r2, #4194304	; 0x400000
   d9c5c:	f080 809a 	bcs.w	d9d94 <__adddf3+0x240>
   d9c60:	f1bc 4f00 	cmp.w	ip, #2147483648	; 0x80000000
   d9c64:	bf08      	it	eq
   d9c66:	ea5f 0c50 	movseq.w	ip, r0, lsr #1
   d9c6a:	f150 0000 	adcs.w	r0, r0, #0
   d9c6e:	eb41 5104 	adc.w	r1, r1, r4, lsl #20
   d9c72:	ea41 0105 	orr.w	r1, r1, r5
   d9c76:	bd30      	pop	{r4, r5, pc}
   d9c78:	ea5f 0c4c 	movs.w	ip, ip, lsl #1
   d9c7c:	4140      	adcs	r0, r0
   d9c7e:	eb41 0101 	adc.w	r1, r1, r1
   d9c82:	f411 1f80 	tst.w	r1, #1048576	; 0x100000
   d9c86:	f1a4 0401 	sub.w	r4, r4, #1
   d9c8a:	d1e9      	bne.n	d9c60 <__adddf3+0x10c>
   d9c8c:	f091 0f00 	teq	r1, #0
   d9c90:	bf04      	itt	eq
   d9c92:	4601      	moveq	r1, r0
   d9c94:	2000      	moveq	r0, #0
   d9c96:	fab1 f381 	clz	r3, r1
   d9c9a:	bf08      	it	eq
   d9c9c:	3320      	addeq	r3, #32
   d9c9e:	f1a3 030b 	sub.w	r3, r3, #11
   d9ca2:	f1b3 0220 	subs.w	r2, r3, #32
   d9ca6:	da0c      	bge.n	d9cc2 <__adddf3+0x16e>
   d9ca8:	320c      	adds	r2, #12
   d9caa:	dd08      	ble.n	d9cbe <__adddf3+0x16a>
   d9cac:	f102 0c14 	add.w	ip, r2, #20
   d9cb0:	f1c2 020c 	rsb	r2, r2, #12
   d9cb4:	fa01 f00c 	lsl.w	r0, r1, ip
   d9cb8:	fa21 f102 	lsr.w	r1, r1, r2
   d9cbc:	e00c      	b.n	d9cd8 <__adddf3+0x184>
   d9cbe:	f102 0214 	add.w	r2, r2, #20
   d9cc2:	bfd8      	it	le
   d9cc4:	f1c2 0c20 	rsble	ip, r2, #32
   d9cc8:	fa01 f102 	lsl.w	r1, r1, r2
   d9ccc:	fa20 fc0c 	lsr.w	ip, r0, ip
   d9cd0:	bfdc      	itt	le
   d9cd2:	ea41 010c 	orrle.w	r1, r1, ip
   d9cd6:	4090      	lslle	r0, r2
   d9cd8:	1ae4      	subs	r4, r4, r3
   d9cda:	bfa2      	ittt	ge
   d9cdc:	eb01 5104 	addge.w	r1, r1, r4, lsl #20
   d9ce0:	4329      	orrge	r1, r5
   d9ce2:	bd30      	popge	{r4, r5, pc}
   d9ce4:	ea6f 0404 	mvn.w	r4, r4
   d9ce8:	3c1f      	subs	r4, #31
   d9cea:	da1c      	bge.n	d9d26 <__adddf3+0x1d2>
   d9cec:	340c      	adds	r4, #12
   d9cee:	dc0e      	bgt.n	d9d0e <__adddf3+0x1ba>
   d9cf0:	f104 0414 	add.w	r4, r4, #20
   d9cf4:	f1c4 0220 	rsb	r2, r4, #32
   d9cf8:	fa20 f004 	lsr.w	r0, r0, r4
   d9cfc:	fa01 f302 	lsl.w	r3, r1, r2
   d9d00:	ea40 0003 	orr.w	r0, r0, r3
   d9d04:	fa21 f304 	lsr.w	r3, r1, r4
   d9d08:	ea45 0103 	orr.w	r1, r5, r3
   d9d0c:	bd30      	pop	{r4, r5, pc}
   d9d0e:	f1c4 040c 	rsb	r4, r4, #12
   d9d12:	f1c4 0220 	rsb	r2, r4, #32
   d9d16:	fa20 f002 	lsr.w	r0, r0, r2
   d9d1a:	fa01 f304 	lsl.w	r3, r1, r4
   d9d1e:	ea40 0003 	orr.w	r0, r0, r3
   d9d22:	4629      	mov	r1, r5
   d9d24:	bd30      	pop	{r4, r5, pc}
   d9d26:	fa21 f004 	lsr.w	r0, r1, r4
   d9d2a:	4629      	mov	r1, r5
   d9d2c:	bd30      	pop	{r4, r5, pc}
   d9d2e:	f094 0f00 	teq	r4, #0
   d9d32:	f483 1380 	eor.w	r3, r3, #1048576	; 0x100000
   d9d36:	bf06      	itte	eq
   d9d38:	f481 1180 	eoreq.w	r1, r1, #1048576	; 0x100000
   d9d3c:	3401      	addeq	r4, #1
   d9d3e:	3d01      	subne	r5, #1
   d9d40:	e74e      	b.n	d9be0 <__adddf3+0x8c>
   d9d42:	ea7f 5c64 	mvns.w	ip, r4, asr #21
   d9d46:	bf18      	it	ne
   d9d48:	ea7f 5c65 	mvnsne.w	ip, r5, asr #21
   d9d4c:	d029      	beq.n	d9da2 <__adddf3+0x24e>
   d9d4e:	ea94 0f05 	teq	r4, r5
   d9d52:	bf08      	it	eq
   d9d54:	ea90 0f02 	teqeq	r0, r2
   d9d58:	d005      	beq.n	d9d66 <__adddf3+0x212>
   d9d5a:	ea54 0c00 	orrs.w	ip, r4, r0
   d9d5e:	bf04      	itt	eq
   d9d60:	4619      	moveq	r1, r3
   d9d62:	4610      	moveq	r0, r2
   d9d64:	bd30      	pop	{r4, r5, pc}
   d9d66:	ea91 0f03 	teq	r1, r3
   d9d6a:	bf1e      	ittt	ne
   d9d6c:	2100      	movne	r1, #0
   d9d6e:	2000      	movne	r0, #0
   d9d70:	bd30      	popne	{r4, r5, pc}
   d9d72:	ea5f 5c54 	movs.w	ip, r4, lsr #21
   d9d76:	d105      	bne.n	d9d84 <__adddf3+0x230>
   d9d78:	0040      	lsls	r0, r0, #1
   d9d7a:	4149      	adcs	r1, r1
   d9d7c:	bf28      	it	cs
   d9d7e:	f041 4100 	orrcs.w	r1, r1, #2147483648	; 0x80000000
   d9d82:	bd30      	pop	{r4, r5, pc}
   d9d84:	f514 0480 	adds.w	r4, r4, #4194304	; 0x400000
   d9d88:	bf3c      	itt	cc
   d9d8a:	f501 1180 	addcc.w	r1, r1, #1048576	; 0x100000
   d9d8e:	bd30      	popcc	{r4, r5, pc}
   d9d90:	f001 4500 	and.w	r5, r1, #2147483648	; 0x80000000
   d9d94:	f045 41fe 	orr.w	r1, r5, #2130706432	; 0x7f000000
   d9d98:	f441 0170 	orr.w	r1, r1, #15728640	; 0xf00000
   d9d9c:	f04f 0000 	mov.w	r0, #0
   d9da0:	bd30      	pop	{r4, r5, pc}
   d9da2:	ea7f 5c64 	mvns.w	ip, r4, asr #21
   d9da6:	bf1a      	itte	ne
   d9da8:	4619      	movne	r1, r3
   d9daa:	4610      	movne	r0, r2
   d9dac:	ea7f 5c65 	mvnseq.w	ip, r5, asr #21
   d9db0:	bf1c      	itt	ne
   d9db2:	460b      	movne	r3, r1
   d9db4:	4602      	movne	r2, r0
   d9db6:	ea50 3401 	orrs.w	r4, r0, r1, lsl #12
   d9dba:	bf06      	itte	eq
   d9dbc:	ea52 3503 	orrseq.w	r5, r2, r3, lsl #12
   d9dc0:	ea91 0f03 	teqeq	r1, r3
   d9dc4:	f441 2100 	orrne.w	r1, r1, #524288	; 0x80000
   d9dc8:	bd30      	pop	{r4, r5, pc}
   d9dca:	bf00      	nop

000d9dcc <__aeabi_ui2d>:
   d9dcc:	f090 0f00 	teq	r0, #0
   d9dd0:	bf04      	itt	eq
   d9dd2:	2100      	moveq	r1, #0
   d9dd4:	4770      	bxeq	lr
   d9dd6:	b530      	push	{r4, r5, lr}
   d9dd8:	f44f 6480 	mov.w	r4, #1024	; 0x400
   d9ddc:	f104 0432 	add.w	r4, r4, #50	; 0x32
   d9de0:	f04f 0500 	mov.w	r5, #0
   d9de4:	f04f 0100 	mov.w	r1, #0
   d9de8:	e750      	b.n	d9c8c <__adddf3+0x138>
   d9dea:	bf00      	nop

000d9dec <__aeabi_i2d>:
   d9dec:	f090 0f00 	teq	r0, #0
   d9df0:	bf04      	itt	eq
   d9df2:	2100      	moveq	r1, #0
   d9df4:	4770      	bxeq	lr
   d9df6:	b530      	push	{r4, r5, lr}
   d9df8:	f44f 6480 	mov.w	r4, #1024	; 0x400
   d9dfc:	f104 0432 	add.w	r4, r4, #50	; 0x32
   d9e00:	f010 4500 	ands.w	r5, r0, #2147483648	; 0x80000000
   d9e04:	bf48      	it	mi
   d9e06:	4240      	negmi	r0, r0
   d9e08:	f04f 0100 	mov.w	r1, #0
   d9e0c:	e73e      	b.n	d9c8c <__adddf3+0x138>
   d9e0e:	bf00      	nop

000d9e10 <__aeabi_f2d>:
   d9e10:	0042      	lsls	r2, r0, #1
   d9e12:	ea4f 01e2 	mov.w	r1, r2, asr #3
   d9e16:	ea4f 0131 	mov.w	r1, r1, rrx
   d9e1a:	ea4f 7002 	mov.w	r0, r2, lsl #28
   d9e1e:	bf1f      	itttt	ne
   d9e20:	f012 437f 	andsne.w	r3, r2, #4278190080	; 0xff000000
   d9e24:	f093 4f7f 	teqne	r3, #4278190080	; 0xff000000
   d9e28:	f081 5160 	eorne.w	r1, r1, #939524096	; 0x38000000
   d9e2c:	4770      	bxne	lr
   d9e2e:	f092 0f00 	teq	r2, #0
   d9e32:	bf14      	ite	ne
   d9e34:	f093 4f7f 	teqne	r3, #4278190080	; 0xff000000
   d9e38:	4770      	bxeq	lr
   d9e3a:	b530      	push	{r4, r5, lr}
   d9e3c:	f44f 7460 	mov.w	r4, #896	; 0x380
   d9e40:	f001 4500 	and.w	r5, r1, #2147483648	; 0x80000000
   d9e44:	f021 4100 	bic.w	r1, r1, #2147483648	; 0x80000000
   d9e48:	e720      	b.n	d9c8c <__adddf3+0x138>
   d9e4a:	bf00      	nop

000d9e4c <__aeabi_ul2d>:
   d9e4c:	ea50 0201 	orrs.w	r2, r0, r1
   d9e50:	bf08      	it	eq
   d9e52:	4770      	bxeq	lr
   d9e54:	b530      	push	{r4, r5, lr}
   d9e56:	f04f 0500 	mov.w	r5, #0
   d9e5a:	e00a      	b.n	d9e72 <__aeabi_l2d+0x16>

000d9e5c <__aeabi_l2d>:
   d9e5c:	ea50 0201 	orrs.w	r2, r0, r1
   d9e60:	bf08      	it	eq
   d9e62:	4770      	bxeq	lr
   d9e64:	b530      	push	{r4, r5, lr}
   d9e66:	f011 4500 	ands.w	r5, r1, #2147483648	; 0x80000000
   d9e6a:	d502      	bpl.n	d9e72 <__aeabi_l2d+0x16>
   d9e6c:	4240      	negs	r0, r0
   d9e6e:	eb61 0141 	sbc.w	r1, r1, r1, lsl #1
   d9e72:	f44f 6480 	mov.w	r4, #1024	; 0x400
   d9e76:	f104 0432 	add.w	r4, r4, #50	; 0x32
   d9e7a:	ea5f 5c91 	movs.w	ip, r1, lsr #22
   d9e7e:	f43f aedc 	beq.w	d9c3a <__adddf3+0xe6>
   d9e82:	f04f 0203 	mov.w	r2, #3
   d9e86:	ea5f 0cdc 	movs.w	ip, ip, lsr #3
   d9e8a:	bf18      	it	ne
   d9e8c:	3203      	addne	r2, #3
   d9e8e:	ea5f 0cdc 	movs.w	ip, ip, lsr #3
   d9e92:	bf18      	it	ne
   d9e94:	3203      	addne	r2, #3
   d9e96:	eb02 02dc 	add.w	r2, r2, ip, lsr #3
   d9e9a:	f1c2 0320 	rsb	r3, r2, #32
   d9e9e:	fa00 fc03 	lsl.w	ip, r0, r3
   d9ea2:	fa20 f002 	lsr.w	r0, r0, r2
   d9ea6:	fa01 fe03 	lsl.w	lr, r1, r3
   d9eaa:	ea40 000e 	orr.w	r0, r0, lr
   d9eae:	fa21 f102 	lsr.w	r1, r1, r2
   d9eb2:	4414      	add	r4, r2
   d9eb4:	e6c1      	b.n	d9c3a <__adddf3+0xe6>
   d9eb6:	bf00      	nop

000d9eb8 <__aeabi_dmul>:
   d9eb8:	b570      	push	{r4, r5, r6, lr}
   d9eba:	f04f 0cff 	mov.w	ip, #255	; 0xff
   d9ebe:	f44c 6ce0 	orr.w	ip, ip, #1792	; 0x700
   d9ec2:	ea1c 5411 	ands.w	r4, ip, r1, lsr #20
   d9ec6:	bf1d      	ittte	ne
   d9ec8:	ea1c 5513 	andsne.w	r5, ip, r3, lsr #20
   d9ecc:	ea94 0f0c 	teqne	r4, ip
   d9ed0:	ea95 0f0c 	teqne	r5, ip
   d9ed4:	f000 f8de 	bleq	da094 <__aeabi_dmul+0x1dc>
   d9ed8:	442c      	add	r4, r5
   d9eda:	ea81 0603 	eor.w	r6, r1, r3
   d9ede:	ea21 514c 	bic.w	r1, r1, ip, lsl #21
   d9ee2:	ea23 534c 	bic.w	r3, r3, ip, lsl #21
   d9ee6:	ea50 3501 	orrs.w	r5, r0, r1, lsl #12
   d9eea:	bf18      	it	ne
   d9eec:	ea52 3503 	orrsne.w	r5, r2, r3, lsl #12
   d9ef0:	f441 1180 	orr.w	r1, r1, #1048576	; 0x100000
   d9ef4:	f443 1380 	orr.w	r3, r3, #1048576	; 0x100000
   d9ef8:	d038      	beq.n	d9f6c <__aeabi_dmul+0xb4>
   d9efa:	fba0 ce02 	umull	ip, lr, r0, r2
   d9efe:	f04f 0500 	mov.w	r5, #0
   d9f02:	fbe1 e502 	umlal	lr, r5, r1, r2
   d9f06:	f006 4200 	and.w	r2, r6, #2147483648	; 0x80000000
   d9f0a:	fbe0 e503 	umlal	lr, r5, r0, r3
   d9f0e:	f04f 0600 	mov.w	r6, #0
   d9f12:	fbe1 5603 	umlal	r5, r6, r1, r3
   d9f16:	f09c 0f00 	teq	ip, #0
   d9f1a:	bf18      	it	ne
   d9f1c:	f04e 0e01 	orrne.w	lr, lr, #1
   d9f20:	f1a4 04ff 	sub.w	r4, r4, #255	; 0xff
   d9f24:	f5b6 7f00 	cmp.w	r6, #512	; 0x200
   d9f28:	f564 7440 	sbc.w	r4, r4, #768	; 0x300
   d9f2c:	d204      	bcs.n	d9f38 <__aeabi_dmul+0x80>
   d9f2e:	ea5f 0e4e 	movs.w	lr, lr, lsl #1
   d9f32:	416d      	adcs	r5, r5
   d9f34:	eb46 0606 	adc.w	r6, r6, r6
   d9f38:	ea42 21c6 	orr.w	r1, r2, r6, lsl #11
   d9f3c:	ea41 5155 	orr.w	r1, r1, r5, lsr #21
   d9f40:	ea4f 20c5 	mov.w	r0, r5, lsl #11
   d9f44:	ea40 505e 	orr.w	r0, r0, lr, lsr #21
   d9f48:	ea4f 2ece 	mov.w	lr, lr, lsl #11
   d9f4c:	f1b4 0cfd 	subs.w	ip, r4, #253	; 0xfd
   d9f50:	bf88      	it	hi
   d9f52:	f5bc 6fe0 	cmphi.w	ip, #1792	; 0x700
   d9f56:	d81e      	bhi.n	d9f96 <__aeabi_dmul+0xde>
   d9f58:	f1be 4f00 	cmp.w	lr, #2147483648	; 0x80000000
   d9f5c:	bf08      	it	eq
   d9f5e:	ea5f 0e50 	movseq.w	lr, r0, lsr #1
   d9f62:	f150 0000 	adcs.w	r0, r0, #0
   d9f66:	eb41 5104 	adc.w	r1, r1, r4, lsl #20
   d9f6a:	bd70      	pop	{r4, r5, r6, pc}
   d9f6c:	f006 4600 	and.w	r6, r6, #2147483648	; 0x80000000
   d9f70:	ea46 0101 	orr.w	r1, r6, r1
   d9f74:	ea40 0002 	orr.w	r0, r0, r2
   d9f78:	ea81 0103 	eor.w	r1, r1, r3
   d9f7c:	ebb4 045c 	subs.w	r4, r4, ip, lsr #1
   d9f80:	bfc2      	ittt	gt
   d9f82:	ebd4 050c 	rsbsgt	r5, r4, ip
   d9f86:	ea41 5104 	orrgt.w	r1, r1, r4, lsl #20
   d9f8a:	bd70      	popgt	{r4, r5, r6, pc}
   d9f8c:	f441 1180 	orr.w	r1, r1, #1048576	; 0x100000
   d9f90:	f04f 0e00 	mov.w	lr, #0
   d9f94:	3c01      	subs	r4, #1
   d9f96:	f300 80ab 	bgt.w	da0f0 <__aeabi_dmul+0x238>
   d9f9a:	f114 0f36 	cmn.w	r4, #54	; 0x36
   d9f9e:	bfde      	ittt	le
   d9fa0:	2000      	movle	r0, #0
   d9fa2:	f001 4100 	andle.w	r1, r1, #2147483648	; 0x80000000
   d9fa6:	bd70      	pople	{r4, r5, r6, pc}
   d9fa8:	f1c4 0400 	rsb	r4, r4, #0
   d9fac:	3c20      	subs	r4, #32
   d9fae:	da35      	bge.n	da01c <__aeabi_dmul+0x164>
   d9fb0:	340c      	adds	r4, #12
   d9fb2:	dc1b      	bgt.n	d9fec <__aeabi_dmul+0x134>
   d9fb4:	f104 0414 	add.w	r4, r4, #20
   d9fb8:	f1c4 0520 	rsb	r5, r4, #32
   d9fbc:	fa00 f305 	lsl.w	r3, r0, r5
   d9fc0:	fa20 f004 	lsr.w	r0, r0, r4
   d9fc4:	fa01 f205 	lsl.w	r2, r1, r5
   d9fc8:	ea40 0002 	orr.w	r0, r0, r2
   d9fcc:	f001 4200 	and.w	r2, r1, #2147483648	; 0x80000000
   d9fd0:	f021 4100 	bic.w	r1, r1, #2147483648	; 0x80000000
   d9fd4:	eb10 70d3 	adds.w	r0, r0, r3, lsr #31
   d9fd8:	fa21 f604 	lsr.w	r6, r1, r4
   d9fdc:	eb42 0106 	adc.w	r1, r2, r6
   d9fe0:	ea5e 0e43 	orrs.w	lr, lr, r3, lsl #1
   d9fe4:	bf08      	it	eq
   d9fe6:	ea20 70d3 	biceq.w	r0, r0, r3, lsr #31
   d9fea:	bd70      	pop	{r4, r5, r6, pc}
   d9fec:	f1c4 040c 	rsb	r4, r4, #12
   d9ff0:	f1c4 0520 	rsb	r5, r4, #32
   d9ff4:	fa00 f304 	lsl.w	r3, r0, r4
   d9ff8:	fa20 f005 	lsr.w	r0, r0, r5
   d9ffc:	fa01 f204 	lsl.w	r2, r1, r4
   da000:	ea40 0002 	orr.w	r0, r0, r2
   da004:	f001 4100 	and.w	r1, r1, #2147483648	; 0x80000000
   da008:	eb10 70d3 	adds.w	r0, r0, r3, lsr #31
   da00c:	f141 0100 	adc.w	r1, r1, #0
   da010:	ea5e 0e43 	orrs.w	lr, lr, r3, lsl #1
   da014:	bf08      	it	eq
   da016:	ea20 70d3 	biceq.w	r0, r0, r3, lsr #31
   da01a:	bd70      	pop	{r4, r5, r6, pc}
   da01c:	f1c4 0520 	rsb	r5, r4, #32
   da020:	fa00 f205 	lsl.w	r2, r0, r5
   da024:	ea4e 0e02 	orr.w	lr, lr, r2
   da028:	fa20 f304 	lsr.w	r3, r0, r4
   da02c:	fa01 f205 	lsl.w	r2, r1, r5
   da030:	ea43 0302 	orr.w	r3, r3, r2
   da034:	fa21 f004 	lsr.w	r0, r1, r4
   da038:	f001 4100 	and.w	r1, r1, #2147483648	; 0x80000000
   da03c:	fa21 f204 	lsr.w	r2, r1, r4
   da040:	ea20 0002 	bic.w	r0, r0, r2
   da044:	eb00 70d3 	add.w	r0, r0, r3, lsr #31
   da048:	ea5e 0e43 	orrs.w	lr, lr, r3, lsl #1
   da04c:	bf08      	it	eq
   da04e:	ea20 70d3 	biceq.w	r0, r0, r3, lsr #31
   da052:	bd70      	pop	{r4, r5, r6, pc}
   da054:	f094 0f00 	teq	r4, #0
   da058:	d10f      	bne.n	da07a <__aeabi_dmul+0x1c2>
   da05a:	f001 4600 	and.w	r6, r1, #2147483648	; 0x80000000
   da05e:	0040      	lsls	r0, r0, #1
   da060:	eb41 0101 	adc.w	r1, r1, r1
   da064:	f411 1f80 	tst.w	r1, #1048576	; 0x100000
   da068:	bf08      	it	eq
   da06a:	3c01      	subeq	r4, #1
   da06c:	d0f7      	beq.n	da05e <__aeabi_dmul+0x1a6>
   da06e:	ea41 0106 	orr.w	r1, r1, r6
   da072:	f095 0f00 	teq	r5, #0
   da076:	bf18      	it	ne
   da078:	4770      	bxne	lr
   da07a:	f003 4600 	and.w	r6, r3, #2147483648	; 0x80000000
   da07e:	0052      	lsls	r2, r2, #1
   da080:	eb43 0303 	adc.w	r3, r3, r3
   da084:	f413 1f80 	tst.w	r3, #1048576	; 0x100000
   da088:	bf08      	it	eq
   da08a:	3d01      	subeq	r5, #1
   da08c:	d0f7      	beq.n	da07e <__aeabi_dmul+0x1c6>
   da08e:	ea43 0306 	orr.w	r3, r3, r6
   da092:	4770      	bx	lr
   da094:	ea94 0f0c 	teq	r4, ip
   da098:	ea0c 5513 	and.w	r5, ip, r3, lsr #20
   da09c:	bf18      	it	ne
   da09e:	ea95 0f0c 	teqne	r5, ip
   da0a2:	d00c      	beq.n	da0be <__aeabi_dmul+0x206>
   da0a4:	ea50 0641 	orrs.w	r6, r0, r1, lsl #1
   da0a8:	bf18      	it	ne
   da0aa:	ea52 0643 	orrsne.w	r6, r2, r3, lsl #1
   da0ae:	d1d1      	bne.n	da054 <__aeabi_dmul+0x19c>
   da0b0:	ea81 0103 	eor.w	r1, r1, r3
   da0b4:	f001 4100 	and.w	r1, r1, #2147483648	; 0x80000000
   da0b8:	f04f 0000 	mov.w	r0, #0
   da0bc:	bd70      	pop	{r4, r5, r6, pc}
   da0be:	ea50 0641 	orrs.w	r6, r0, r1, lsl #1
   da0c2:	bf06      	itte	eq
   da0c4:	4610      	moveq	r0, r2
   da0c6:	4619      	moveq	r1, r3
   da0c8:	ea52 0643 	orrsne.w	r6, r2, r3, lsl #1
   da0cc:	d019      	beq.n	da102 <__aeabi_dmul+0x24a>
   da0ce:	ea94 0f0c 	teq	r4, ip
   da0d2:	d102      	bne.n	da0da <__aeabi_dmul+0x222>
   da0d4:	ea50 3601 	orrs.w	r6, r0, r1, lsl #12
   da0d8:	d113      	bne.n	da102 <__aeabi_dmul+0x24a>
   da0da:	ea95 0f0c 	teq	r5, ip
   da0de:	d105      	bne.n	da0ec <__aeabi_dmul+0x234>
   da0e0:	ea52 3603 	orrs.w	r6, r2, r3, lsl #12
   da0e4:	bf1c      	itt	ne
   da0e6:	4610      	movne	r0, r2
   da0e8:	4619      	movne	r1, r3
   da0ea:	d10a      	bne.n	da102 <__aeabi_dmul+0x24a>
   da0ec:	ea81 0103 	eor.w	r1, r1, r3
   da0f0:	f001 4100 	and.w	r1, r1, #2147483648	; 0x80000000
   da0f4:	f041 41fe 	orr.w	r1, r1, #2130706432	; 0x7f000000
   da0f8:	f441 0170 	orr.w	r1, r1, #15728640	; 0xf00000
   da0fc:	f04f 0000 	mov.w	r0, #0
   da100:	bd70      	pop	{r4, r5, r6, pc}
   da102:	f041 41fe 	orr.w	r1, r1, #2130706432	; 0x7f000000
   da106:	f441 0178 	orr.w	r1, r1, #16252928	; 0xf80000
   da10a:	bd70      	pop	{r4, r5, r6, pc}

000da10c <__aeabi_ddiv>:
   da10c:	b570      	push	{r4, r5, r6, lr}
   da10e:	f04f 0cff 	mov.w	ip, #255	; 0xff
   da112:	f44c 6ce0 	orr.w	ip, ip, #1792	; 0x700
   da116:	ea1c 5411 	ands.w	r4, ip, r1, lsr #20
   da11a:	bf1d      	ittte	ne
   da11c:	ea1c 5513 	andsne.w	r5, ip, r3, lsr #20
   da120:	ea94 0f0c 	teqne	r4, ip
   da124:	ea95 0f0c 	teqne	r5, ip
   da128:	f000 f8a7 	bleq	da27a <__aeabi_ddiv+0x16e>
   da12c:	eba4 0405 	sub.w	r4, r4, r5
   da130:	ea81 0e03 	eor.w	lr, r1, r3
   da134:	ea52 3503 	orrs.w	r5, r2, r3, lsl #12
   da138:	ea4f 3101 	mov.w	r1, r1, lsl #12
   da13c:	f000 8088 	beq.w	da250 <__aeabi_ddiv+0x144>
   da140:	ea4f 3303 	mov.w	r3, r3, lsl #12
   da144:	f04f 5580 	mov.w	r5, #268435456	; 0x10000000
   da148:	ea45 1313 	orr.w	r3, r5, r3, lsr #4
   da14c:	ea43 6312 	orr.w	r3, r3, r2, lsr #24
   da150:	ea4f 2202 	mov.w	r2, r2, lsl #8
   da154:	ea45 1511 	orr.w	r5, r5, r1, lsr #4
   da158:	ea45 6510 	orr.w	r5, r5, r0, lsr #24
   da15c:	ea4f 2600 	mov.w	r6, r0, lsl #8
   da160:	f00e 4100 	and.w	r1, lr, #2147483648	; 0x80000000
   da164:	429d      	cmp	r5, r3
   da166:	bf08      	it	eq
   da168:	4296      	cmpeq	r6, r2
   da16a:	f144 04fd 	adc.w	r4, r4, #253	; 0xfd
   da16e:	f504 7440 	add.w	r4, r4, #768	; 0x300
   da172:	d202      	bcs.n	da17a <__aeabi_ddiv+0x6e>
   da174:	085b      	lsrs	r3, r3, #1
   da176:	ea4f 0232 	mov.w	r2, r2, rrx
   da17a:	1ab6      	subs	r6, r6, r2
   da17c:	eb65 0503 	sbc.w	r5, r5, r3
   da180:	085b      	lsrs	r3, r3, #1
   da182:	ea4f 0232 	mov.w	r2, r2, rrx
   da186:	f44f 1080 	mov.w	r0, #1048576	; 0x100000
   da18a:	f44f 2c00 	mov.w	ip, #524288	; 0x80000
   da18e:	ebb6 0e02 	subs.w	lr, r6, r2
   da192:	eb75 0e03 	sbcs.w	lr, r5, r3
   da196:	bf22      	ittt	cs
   da198:	1ab6      	subcs	r6, r6, r2
   da19a:	4675      	movcs	r5, lr
   da19c:	ea40 000c 	orrcs.w	r0, r0, ip
   da1a0:	085b      	lsrs	r3, r3, #1
   da1a2:	ea4f 0232 	mov.w	r2, r2, rrx
   da1a6:	ebb6 0e02 	subs.w	lr, r6, r2
   da1aa:	eb75 0e03 	sbcs.w	lr, r5, r3
   da1ae:	bf22      	ittt	cs
   da1b0:	1ab6      	subcs	r6, r6, r2
   da1b2:	4675      	movcs	r5, lr
   da1b4:	ea40 005c 	orrcs.w	r0, r0, ip, lsr #1
   da1b8:	085b      	lsrs	r3, r3, #1
   da1ba:	ea4f 0232 	mov.w	r2, r2, rrx
   da1be:	ebb6 0e02 	subs.w	lr, r6, r2
   da1c2:	eb75 0e03 	sbcs.w	lr, r5, r3
   da1c6:	bf22      	ittt	cs
   da1c8:	1ab6      	subcs	r6, r6, r2
   da1ca:	4675      	movcs	r5, lr
   da1cc:	ea40 009c 	orrcs.w	r0, r0, ip, lsr #2
   da1d0:	085b      	lsrs	r3, r3, #1
   da1d2:	ea4f 0232 	mov.w	r2, r2, rrx
   da1d6:	ebb6 0e02 	subs.w	lr, r6, r2
   da1da:	eb75 0e03 	sbcs.w	lr, r5, r3
   da1de:	bf22      	ittt	cs
   da1e0:	1ab6      	subcs	r6, r6, r2
   da1e2:	4675      	movcs	r5, lr
   da1e4:	ea40 00dc 	orrcs.w	r0, r0, ip, lsr #3
   da1e8:	ea55 0e06 	orrs.w	lr, r5, r6
   da1ec:	d018      	beq.n	da220 <__aeabi_ddiv+0x114>
   da1ee:	ea4f 1505 	mov.w	r5, r5, lsl #4
   da1f2:	ea45 7516 	orr.w	r5, r5, r6, lsr #28
   da1f6:	ea4f 1606 	mov.w	r6, r6, lsl #4
   da1fa:	ea4f 03c3 	mov.w	r3, r3, lsl #3
   da1fe:	ea43 7352 	orr.w	r3, r3, r2, lsr #29
   da202:	ea4f 02c2 	mov.w	r2, r2, lsl #3
   da206:	ea5f 1c1c 	movs.w	ip, ip, lsr #4
   da20a:	d1c0      	bne.n	da18e <__aeabi_ddiv+0x82>
   da20c:	f411 1f80 	tst.w	r1, #1048576	; 0x100000
   da210:	d10b      	bne.n	da22a <__aeabi_ddiv+0x11e>
   da212:	ea41 0100 	orr.w	r1, r1, r0
   da216:	f04f 0000 	mov.w	r0, #0
   da21a:	f04f 4c00 	mov.w	ip, #2147483648	; 0x80000000
   da21e:	e7b6      	b.n	da18e <__aeabi_ddiv+0x82>
   da220:	f411 1f80 	tst.w	r1, #1048576	; 0x100000
   da224:	bf04      	itt	eq
   da226:	4301      	orreq	r1, r0
   da228:	2000      	moveq	r0, #0
   da22a:	f1b4 0cfd 	subs.w	ip, r4, #253	; 0xfd
   da22e:	bf88      	it	hi
   da230:	f5bc 6fe0 	cmphi.w	ip, #1792	; 0x700
   da234:	f63f aeaf 	bhi.w	d9f96 <__aeabi_dmul+0xde>
   da238:	ebb5 0c03 	subs.w	ip, r5, r3
   da23c:	bf04      	itt	eq
   da23e:	ebb6 0c02 	subseq.w	ip, r6, r2
   da242:	ea5f 0c50 	movseq.w	ip, r0, lsr #1
   da246:	f150 0000 	adcs.w	r0, r0, #0
   da24a:	eb41 5104 	adc.w	r1, r1, r4, lsl #20
   da24e:	bd70      	pop	{r4, r5, r6, pc}
   da250:	f00e 4e00 	and.w	lr, lr, #2147483648	; 0x80000000
   da254:	ea4e 3111 	orr.w	r1, lr, r1, lsr #12
   da258:	eb14 045c 	adds.w	r4, r4, ip, lsr #1
   da25c:	bfc2      	ittt	gt
   da25e:	ebd4 050c 	rsbsgt	r5, r4, ip
   da262:	ea41 5104 	orrgt.w	r1, r1, r4, lsl #20
   da266:	bd70      	popgt	{r4, r5, r6, pc}
   da268:	f441 1180 	orr.w	r1, r1, #1048576	; 0x100000
   da26c:	f04f 0e00 	mov.w	lr, #0
   da270:	3c01      	subs	r4, #1
   da272:	e690      	b.n	d9f96 <__aeabi_dmul+0xde>
   da274:	ea45 0e06 	orr.w	lr, r5, r6
   da278:	e68d      	b.n	d9f96 <__aeabi_dmul+0xde>
   da27a:	ea0c 5513 	and.w	r5, ip, r3, lsr #20
   da27e:	ea94 0f0c 	teq	r4, ip
   da282:	bf08      	it	eq
   da284:	ea95 0f0c 	teqeq	r5, ip
   da288:	f43f af3b 	beq.w	da102 <__aeabi_dmul+0x24a>
   da28c:	ea94 0f0c 	teq	r4, ip
   da290:	d10a      	bne.n	da2a8 <__aeabi_ddiv+0x19c>
   da292:	ea50 3401 	orrs.w	r4, r0, r1, lsl #12
   da296:	f47f af34 	bne.w	da102 <__aeabi_dmul+0x24a>
   da29a:	ea95 0f0c 	teq	r5, ip
   da29e:	f47f af25 	bne.w	da0ec <__aeabi_dmul+0x234>
   da2a2:	4610      	mov	r0, r2
   da2a4:	4619      	mov	r1, r3
   da2a6:	e72c      	b.n	da102 <__aeabi_dmul+0x24a>
   da2a8:	ea95 0f0c 	teq	r5, ip
   da2ac:	d106      	bne.n	da2bc <__aeabi_ddiv+0x1b0>
   da2ae:	ea52 3503 	orrs.w	r5, r2, r3, lsl #12
   da2b2:	f43f aefd 	beq.w	da0b0 <__aeabi_dmul+0x1f8>
   da2b6:	4610      	mov	r0, r2
   da2b8:	4619      	mov	r1, r3
   da2ba:	e722      	b.n	da102 <__aeabi_dmul+0x24a>
   da2bc:	ea50 0641 	orrs.w	r6, r0, r1, lsl #1
   da2c0:	bf18      	it	ne
   da2c2:	ea52 0643 	orrsne.w	r6, r2, r3, lsl #1
   da2c6:	f47f aec5 	bne.w	da054 <__aeabi_dmul+0x19c>
   da2ca:	ea50 0441 	orrs.w	r4, r0, r1, lsl #1
   da2ce:	f47f af0d 	bne.w	da0ec <__aeabi_dmul+0x234>
   da2d2:	ea52 0543 	orrs.w	r5, r2, r3, lsl #1
   da2d6:	f47f aeeb 	bne.w	da0b0 <__aeabi_dmul+0x1f8>
   da2da:	e712      	b.n	da102 <__aeabi_dmul+0x24a>

000da2dc <__aeabi_d2f>:
   da2dc:	ea4f 0241 	mov.w	r2, r1, lsl #1
   da2e0:	f1b2 43e0 	subs.w	r3, r2, #1879048192	; 0x70000000
   da2e4:	bf24      	itt	cs
   da2e6:	f5b3 1c00 	subscs.w	ip, r3, #2097152	; 0x200000
   da2ea:	f1dc 5cfe 	rsbscs	ip, ip, #532676608	; 0x1fc00000
   da2ee:	d90d      	bls.n	da30c <__aeabi_d2f+0x30>
   da2f0:	f001 4c00 	and.w	ip, r1, #2147483648	; 0x80000000
   da2f4:	ea4f 02c0 	mov.w	r2, r0, lsl #3
   da2f8:	ea4c 7050 	orr.w	r0, ip, r0, lsr #29
   da2fc:	f1b2 4f00 	cmp.w	r2, #2147483648	; 0x80000000
   da300:	eb40 0083 	adc.w	r0, r0, r3, lsl #2
   da304:	bf08      	it	eq
   da306:	f020 0001 	biceq.w	r0, r0, #1
   da30a:	4770      	bx	lr
   da30c:	f011 4f80 	tst.w	r1, #1073741824	; 0x40000000
   da310:	d121      	bne.n	da356 <__aeabi_d2f+0x7a>
   da312:	f113 7238 	adds.w	r2, r3, #48234496	; 0x2e00000
   da316:	bfbc      	itt	lt
   da318:	f001 4000 	andlt.w	r0, r1, #2147483648	; 0x80000000
   da31c:	4770      	bxlt	lr
   da31e:	f441 1180 	orr.w	r1, r1, #1048576	; 0x100000
   da322:	ea4f 5252 	mov.w	r2, r2, lsr #21
   da326:	f1c2 0218 	rsb	r2, r2, #24
   da32a:	f1c2 0c20 	rsb	ip, r2, #32
   da32e:	fa10 f30c 	lsls.w	r3, r0, ip
   da332:	fa20 f002 	lsr.w	r0, r0, r2
   da336:	bf18      	it	ne
   da338:	f040 0001 	orrne.w	r0, r0, #1
   da33c:	ea4f 23c1 	mov.w	r3, r1, lsl #11
   da340:	ea4f 23d3 	mov.w	r3, r3, lsr #11
   da344:	fa03 fc0c 	lsl.w	ip, r3, ip
   da348:	ea40 000c 	orr.w	r0, r0, ip
   da34c:	fa23 f302 	lsr.w	r3, r3, r2
   da350:	ea4f 0343 	mov.w	r3, r3, lsl #1
   da354:	e7cc      	b.n	da2f0 <__aeabi_d2f+0x14>
   da356:	ea7f 5362 	mvns.w	r3, r2, asr #21
   da35a:	d107      	bne.n	da36c <__aeabi_d2f+0x90>
   da35c:	ea50 3301 	orrs.w	r3, r0, r1, lsl #12
   da360:	bf1e      	ittt	ne
   da362:	f04f 40fe 	movne.w	r0, #2130706432	; 0x7f000000
   da366:	f440 0040 	orrne.w	r0, r0, #12582912	; 0xc00000
   da36a:	4770      	bxne	lr
   da36c:	f001 4000 	and.w	r0, r1, #2147483648	; 0x80000000
   da370:	f040 40fe 	orr.w	r0, r0, #2130706432	; 0x7f000000
   da374:	f440 0000 	orr.w	r0, r0, #8388608	; 0x800000
   da378:	4770      	bx	lr
   da37a:	bf00      	nop

000da37c <atoi>:
   da37c:	220a      	movs	r2, #10
   da37e:	2100      	movs	r1, #0
   da380:	f000 ba2a 	b.w	da7d8 <strtol>

000da384 <atol>:
   da384:	220a      	movs	r2, #10
   da386:	2100      	movs	r1, #0
   da388:	f000 ba26 	b.w	da7d8 <strtol>

000da38c <__cxa_atexit>:
   da38c:	b510      	push	{r4, lr}
   da38e:	4c05      	ldr	r4, [pc, #20]	; (da3a4 <__cxa_atexit+0x18>)
   da390:	4613      	mov	r3, r2
   da392:	b12c      	cbz	r4, da3a0 <__cxa_atexit+0x14>
   da394:	460a      	mov	r2, r1
   da396:	4601      	mov	r1, r0
   da398:	2002      	movs	r0, #2
   da39a:	f3af 8000 	nop.w
   da39e:	bd10      	pop	{r4, pc}
   da3a0:	4620      	mov	r0, r4
   da3a2:	bd10      	pop	{r4, pc}
   da3a4:	00000000 	.word	0x00000000

000da3a8 <localtime>:
   da3a8:	b538      	push	{r3, r4, r5, lr}
   da3aa:	4b07      	ldr	r3, [pc, #28]	; (da3c8 <localtime+0x20>)
   da3ac:	681c      	ldr	r4, [r3, #0]
   da3ae:	6be3      	ldr	r3, [r4, #60]	; 0x3c
   da3b0:	4605      	mov	r5, r0
   da3b2:	b91b      	cbnz	r3, da3bc <localtime+0x14>
   da3b4:	2024      	movs	r0, #36	; 0x24
   da3b6:	f7fd fc7d 	bl	d7cb4 <malloc>
   da3ba:	63e0      	str	r0, [r4, #60]	; 0x3c
   da3bc:	6be1      	ldr	r1, [r4, #60]	; 0x3c
   da3be:	4628      	mov	r0, r5
   da3c0:	e8bd 4038 	ldmia.w	sp!, {r3, r4, r5, lr}
   da3c4:	f000 b802 	b.w	da3cc <localtime_r>
   da3c8:	2003dbec 	.word	0x2003dbec

000da3cc <localtime_r>:
   da3cc:	e92d 41f0 	stmdb	sp!, {r4, r5, r6, r7, r8, lr}
   da3d0:	460c      	mov	r4, r1
   da3d2:	4680      	mov	r8, r0
   da3d4:	f000 fd06 	bl	dade4 <__gettzinfo>
   da3d8:	4621      	mov	r1, r4
   da3da:	4607      	mov	r7, r0
   da3dc:	4640      	mov	r0, r8
   da3de:	f000 fd05 	bl	dadec <gmtime_r>
   da3e2:	6946      	ldr	r6, [r0, #20]
   da3e4:	f206 766c 	addw	r6, r6, #1900	; 0x76c
   da3e8:	07b3      	lsls	r3, r6, #30
   da3ea:	4604      	mov	r4, r0
   da3ec:	d105      	bne.n	da3fa <localtime_r+0x2e>
   da3ee:	2264      	movs	r2, #100	; 0x64
   da3f0:	fb96 f3f2 	sdiv	r3, r6, r2
   da3f4:	fb02 6313 	mls	r3, r2, r3, r6
   da3f8:	b94b      	cbnz	r3, da40e <localtime_r+0x42>
   da3fa:	f44f 75c8 	mov.w	r5, #400	; 0x190
   da3fe:	fb96 f3f5 	sdiv	r3, r6, r5
   da402:	fb05 6513 	mls	r5, r5, r3, r6
   da406:	fab5 f385 	clz	r3, r5
   da40a:	095b      	lsrs	r3, r3, #5
   da40c:	e000      	b.n	da410 <localtime_r+0x44>
   da40e:	2301      	movs	r3, #1
   da410:	4a5f      	ldr	r2, [pc, #380]	; (da590 <localtime_r+0x1c4>)
   da412:	2530      	movs	r5, #48	; 0x30
   da414:	fb05 2503 	mla	r5, r5, r3, r2
   da418:	f000 fb18 	bl	daa4c <__tz_lock>
   da41c:	f000 fb18 	bl	daa50 <_tzset_unlocked>
   da420:	4b5c      	ldr	r3, [pc, #368]	; (da594 <localtime_r+0x1c8>)
   da422:	681b      	ldr	r3, [r3, #0]
   da424:	b1f3      	cbz	r3, da464 <localtime_r+0x98>
   da426:	687b      	ldr	r3, [r7, #4]
   da428:	429e      	cmp	r6, r3
   da42a:	d105      	bne.n	da438 <localtime_r+0x6c>
   da42c:	6839      	ldr	r1, [r7, #0]
   da42e:	f8d8 3000 	ldr.w	r3, [r8]
   da432:	69fa      	ldr	r2, [r7, #28]
   da434:	b941      	cbnz	r1, da448 <localtime_r+0x7c>
   da436:	e00a      	b.n	da44e <localtime_r+0x82>
   da438:	4630      	mov	r0, r6
   da43a:	f000 fa5f 	bl	da8fc <__tzcalc_limits>
   da43e:	2800      	cmp	r0, #0
   da440:	d1f4      	bne.n	da42c <localtime_r+0x60>
   da442:	f04f 33ff 	mov.w	r3, #4294967295	; 0xffffffff
   da446:	e00d      	b.n	da464 <localtime_r+0x98>
   da448:	4293      	cmp	r3, r2
   da44a:	db08      	blt.n	da45e <localtime_r+0x92>
   da44c:	e001      	b.n	da452 <localtime_r+0x86>
   da44e:	4293      	cmp	r3, r2
   da450:	da07      	bge.n	da462 <localtime_r+0x96>
   da452:	6bba      	ldr	r2, [r7, #56]	; 0x38
   da454:	4293      	cmp	r3, r2
   da456:	bfac      	ite	ge
   da458:	2300      	movge	r3, #0
   da45a:	2301      	movlt	r3, #1
   da45c:	e002      	b.n	da464 <localtime_r+0x98>
   da45e:	2300      	movs	r3, #0
   da460:	e000      	b.n	da464 <localtime_r+0x98>
   da462:	2301      	movs	r3, #1
   da464:	6223      	str	r3, [r4, #32]
   da466:	6a23      	ldr	r3, [r4, #32]
   da468:	2b01      	cmp	r3, #1
   da46a:	bf0c      	ite	eq
   da46c:	6bf9      	ldreq	r1, [r7, #60]	; 0x3c
   da46e:	6a39      	ldrne	r1, [r7, #32]
   da470:	f44f 6361 	mov.w	r3, #3600	; 0xe10
   da474:	203c      	movs	r0, #60	; 0x3c
   da476:	fb91 f6f3 	sdiv	r6, r1, r3
   da47a:	fb03 1316 	mls	r3, r3, r6, r1
   da47e:	6861      	ldr	r1, [r4, #4]
   da480:	fb93 f2f0 	sdiv	r2, r3, r0
   da484:	fb00 3012 	mls	r0, r0, r2, r3
   da488:	6823      	ldr	r3, [r4, #0]
   da48a:	1a89      	subs	r1, r1, r2
   da48c:	68a2      	ldr	r2, [r4, #8]
   da48e:	6061      	str	r1, [r4, #4]
   da490:	1a1b      	subs	r3, r3, r0
   da492:	1b92      	subs	r2, r2, r6
   da494:	2b3b      	cmp	r3, #59	; 0x3b
   da496:	6023      	str	r3, [r4, #0]
   da498:	60a2      	str	r2, [r4, #8]
   da49a:	dd03      	ble.n	da4a4 <localtime_r+0xd8>
   da49c:	3101      	adds	r1, #1
   da49e:	6061      	str	r1, [r4, #4]
   da4a0:	3b3c      	subs	r3, #60	; 0x3c
   da4a2:	e004      	b.n	da4ae <localtime_r+0xe2>
   da4a4:	2b00      	cmp	r3, #0
   da4a6:	da03      	bge.n	da4b0 <localtime_r+0xe4>
   da4a8:	3901      	subs	r1, #1
   da4aa:	6061      	str	r1, [r4, #4]
   da4ac:	333c      	adds	r3, #60	; 0x3c
   da4ae:	6023      	str	r3, [r4, #0]
   da4b0:	6863      	ldr	r3, [r4, #4]
   da4b2:	2b3b      	cmp	r3, #59	; 0x3b
   da4b4:	dd03      	ble.n	da4be <localtime_r+0xf2>
   da4b6:	3201      	adds	r2, #1
   da4b8:	60a2      	str	r2, [r4, #8]
   da4ba:	3b3c      	subs	r3, #60	; 0x3c
   da4bc:	e004      	b.n	da4c8 <localtime_r+0xfc>
   da4be:	2b00      	cmp	r3, #0
   da4c0:	da03      	bge.n	da4ca <localtime_r+0xfe>
   da4c2:	3a01      	subs	r2, #1
   da4c4:	60a2      	str	r2, [r4, #8]
   da4c6:	333c      	adds	r3, #60	; 0x3c
   da4c8:	6063      	str	r3, [r4, #4]
   da4ca:	68a3      	ldr	r3, [r4, #8]
   da4cc:	2b17      	cmp	r3, #23
   da4ce:	dd22      	ble.n	da516 <localtime_r+0x14a>
   da4d0:	69e2      	ldr	r2, [r4, #28]
   da4d2:	3201      	adds	r2, #1
   da4d4:	61e2      	str	r2, [r4, #28]
   da4d6:	69a2      	ldr	r2, [r4, #24]
   da4d8:	3201      	adds	r2, #1
   da4da:	2a06      	cmp	r2, #6
   da4dc:	bfc8      	it	gt
   da4de:	2200      	movgt	r2, #0
   da4e0:	61a2      	str	r2, [r4, #24]
   da4e2:	68e2      	ldr	r2, [r4, #12]
   da4e4:	3b18      	subs	r3, #24
   da4e6:	3201      	adds	r2, #1
   da4e8:	60a3      	str	r3, [r4, #8]
   da4ea:	6923      	ldr	r3, [r4, #16]
   da4ec:	60e2      	str	r2, [r4, #12]
   da4ee:	f855 1023 	ldr.w	r1, [r5, r3, lsl #2]
   da4f2:	428a      	cmp	r2, r1
   da4f4:	dd46      	ble.n	da584 <localtime_r+0x1b8>
   da4f6:	3301      	adds	r3, #1
   da4f8:	2b0c      	cmp	r3, #12
   da4fa:	bf0c      	ite	eq
   da4fc:	6963      	ldreq	r3, [r4, #20]
   da4fe:	6123      	strne	r3, [r4, #16]
   da500:	eba2 0201 	sub.w	r2, r2, r1
   da504:	60e2      	str	r2, [r4, #12]
   da506:	bf01      	itttt	eq
   da508:	3301      	addeq	r3, #1
   da50a:	2200      	moveq	r2, #0
   da50c:	6122      	streq	r2, [r4, #16]
   da50e:	6163      	streq	r3, [r4, #20]
   da510:	bf08      	it	eq
   da512:	61e2      	streq	r2, [r4, #28]
   da514:	e036      	b.n	da584 <localtime_r+0x1b8>
   da516:	2b00      	cmp	r3, #0
   da518:	da34      	bge.n	da584 <localtime_r+0x1b8>
   da51a:	69e2      	ldr	r2, [r4, #28]
   da51c:	3a01      	subs	r2, #1
   da51e:	61e2      	str	r2, [r4, #28]
   da520:	69a2      	ldr	r2, [r4, #24]
   da522:	3a01      	subs	r2, #1
   da524:	bf48      	it	mi
   da526:	2206      	movmi	r2, #6
   da528:	61a2      	str	r2, [r4, #24]
   da52a:	68e2      	ldr	r2, [r4, #12]
   da52c:	3318      	adds	r3, #24
   da52e:	3a01      	subs	r2, #1
   da530:	60e2      	str	r2, [r4, #12]
   da532:	60a3      	str	r3, [r4, #8]
   da534:	bb32      	cbnz	r2, da584 <localtime_r+0x1b8>
   da536:	6923      	ldr	r3, [r4, #16]
   da538:	3b01      	subs	r3, #1
   da53a:	d401      	bmi.n	da540 <localtime_r+0x174>
   da53c:	6123      	str	r3, [r4, #16]
   da53e:	e01d      	b.n	da57c <localtime_r+0x1b0>
   da540:	230b      	movs	r3, #11
   da542:	6123      	str	r3, [r4, #16]
   da544:	6963      	ldr	r3, [r4, #20]
   da546:	1e5a      	subs	r2, r3, #1
   da548:	f012 0f03 	tst.w	r2, #3
   da54c:	6162      	str	r2, [r4, #20]
   da54e:	f203 736b 	addw	r3, r3, #1899	; 0x76b
   da552:	d105      	bne.n	da560 <localtime_r+0x194>
   da554:	2164      	movs	r1, #100	; 0x64
   da556:	fb93 f2f1 	sdiv	r2, r3, r1
   da55a:	fb01 3212 	mls	r2, r1, r2, r3
   da55e:	b94a      	cbnz	r2, da574 <localtime_r+0x1a8>
   da560:	f44f 71c8 	mov.w	r1, #400	; 0x190
   da564:	fb93 f2f1 	sdiv	r2, r3, r1
   da568:	fb01 3312 	mls	r3, r1, r2, r3
   da56c:	fab3 f383 	clz	r3, r3
   da570:	095b      	lsrs	r3, r3, #5
   da572:	e000      	b.n	da576 <localtime_r+0x1aa>
   da574:	2301      	movs	r3, #1
   da576:	f503 73b6 	add.w	r3, r3, #364	; 0x16c
   da57a:	61e3      	str	r3, [r4, #28]
   da57c:	6923      	ldr	r3, [r4, #16]
   da57e:	f855 3023 	ldr.w	r3, [r5, r3, lsl #2]
   da582:	60e3      	str	r3, [r4, #12]
   da584:	f000 fa63 	bl	daa4e <__tz_unlock>
   da588:	4620      	mov	r0, r4
   da58a:	e8bd 81f0 	ldmia.w	sp!, {r4, r5, r6, r7, r8, pc}
   da58e:	bf00      	nop
   da590:	000dc004 	.word	0x000dc004
   da594:	2003e7e4 	.word	0x2003e7e4

000da598 <memcpy>:
   da598:	b510      	push	{r4, lr}
   da59a:	1e43      	subs	r3, r0, #1
   da59c:	440a      	add	r2, r1
   da59e:	4291      	cmp	r1, r2
   da5a0:	d004      	beq.n	da5ac <memcpy+0x14>
   da5a2:	f811 4b01 	ldrb.w	r4, [r1], #1
   da5a6:	f803 4f01 	strb.w	r4, [r3, #1]!
   da5aa:	e7f8      	b.n	da59e <memcpy+0x6>
   da5ac:	bd10      	pop	{r4, pc}

000da5ae <memset>:
   da5ae:	4402      	add	r2, r0
   da5b0:	4603      	mov	r3, r0
   da5b2:	4293      	cmp	r3, r2
   da5b4:	d002      	beq.n	da5bc <memset+0xe>
   da5b6:	f803 1b01 	strb.w	r1, [r3], #1
   da5ba:	e7fa      	b.n	da5b2 <memset+0x4>
   da5bc:	4770      	bx	lr
	...

000da5c0 <srand>:
   da5c0:	b538      	push	{r3, r4, r5, lr}
   da5c2:	4b12      	ldr	r3, [pc, #72]	; (da60c <srand+0x4c>)
   da5c4:	681c      	ldr	r4, [r3, #0]
   da5c6:	6ba3      	ldr	r3, [r4, #56]	; 0x38
   da5c8:	4605      	mov	r5, r0
   da5ca:	b9d3      	cbnz	r3, da602 <srand+0x42>
   da5cc:	2018      	movs	r0, #24
   da5ce:	f7fd fb71 	bl	d7cb4 <malloc>
   da5d2:	f243 330e 	movw	r3, #13070	; 0x330e
   da5d6:	63a0      	str	r0, [r4, #56]	; 0x38
   da5d8:	8003      	strh	r3, [r0, #0]
   da5da:	f64a 33cd 	movw	r3, #43981	; 0xabcd
   da5de:	8043      	strh	r3, [r0, #2]
   da5e0:	f241 2334 	movw	r3, #4660	; 0x1234
   da5e4:	8083      	strh	r3, [r0, #4]
   da5e6:	f24e 636d 	movw	r3, #58989	; 0xe66d
   da5ea:	80c3      	strh	r3, [r0, #6]
   da5ec:	f64d 63ec 	movw	r3, #57068	; 0xdeec
   da5f0:	8103      	strh	r3, [r0, #8]
   da5f2:	2305      	movs	r3, #5
   da5f4:	8143      	strh	r3, [r0, #10]
   da5f6:	230b      	movs	r3, #11
   da5f8:	8183      	strh	r3, [r0, #12]
   da5fa:	2201      	movs	r2, #1
   da5fc:	2300      	movs	r3, #0
   da5fe:	e9c0 2304 	strd	r2, r3, [r0, #16]
   da602:	6ba3      	ldr	r3, [r4, #56]	; 0x38
   da604:	2200      	movs	r2, #0
   da606:	611d      	str	r5, [r3, #16]
   da608:	615a      	str	r2, [r3, #20]
   da60a:	bd38      	pop	{r3, r4, r5, pc}
   da60c:	2003dbec 	.word	0x2003dbec

000da610 <strcmp>:
   da610:	f810 2b01 	ldrb.w	r2, [r0], #1
   da614:	f811 3b01 	ldrb.w	r3, [r1], #1
   da618:	2a01      	cmp	r2, #1
   da61a:	bf28      	it	cs
   da61c:	429a      	cmpcs	r2, r3
   da61e:	d0f7      	beq.n	da610 <strcmp>
   da620:	1ad0      	subs	r0, r2, r3
   da622:	4770      	bx	lr

000da624 <strcpy>:
   da624:	4603      	mov	r3, r0
   da626:	f811 2b01 	ldrb.w	r2, [r1], #1
   da62a:	f803 2b01 	strb.w	r2, [r3], #1
   da62e:	2a00      	cmp	r2, #0
   da630:	d1f9      	bne.n	da626 <strcpy+0x2>
   da632:	4770      	bx	lr

000da634 <strdup>:
   da634:	4b02      	ldr	r3, [pc, #8]	; (da640 <strdup+0xc>)
   da636:	4601      	mov	r1, r0
   da638:	6818      	ldr	r0, [r3, #0]
   da63a:	f000 b803 	b.w	da644 <_strdup_r>
   da63e:	bf00      	nop
   da640:	2003dbec 	.word	0x2003dbec

000da644 <_strdup_r>:
   da644:	b570      	push	{r4, r5, r6, lr}
   da646:	4606      	mov	r6, r0
   da648:	4608      	mov	r0, r1
   da64a:	460c      	mov	r4, r1
   da64c:	f000 f80d 	bl	da66a <strlen>
   da650:	1c45      	adds	r5, r0, #1
   da652:	4629      	mov	r1, r5
   da654:	4630      	mov	r0, r6
   da656:	f7fd fb75 	bl	d7d44 <_malloc_r>
   da65a:	4606      	mov	r6, r0
   da65c:	b118      	cbz	r0, da666 <_strdup_r+0x22>
   da65e:	462a      	mov	r2, r5
   da660:	4621      	mov	r1, r4
   da662:	f7ff ff99 	bl	da598 <memcpy>
   da666:	4630      	mov	r0, r6
   da668:	bd70      	pop	{r4, r5, r6, pc}

000da66a <strlen>:
   da66a:	4603      	mov	r3, r0
   da66c:	f813 2b01 	ldrb.w	r2, [r3], #1
   da670:	2a00      	cmp	r2, #0
   da672:	d1fb      	bne.n	da66c <strlen+0x2>
   da674:	1a18      	subs	r0, r3, r0
   da676:	3801      	subs	r0, #1
   da678:	4770      	bx	lr

000da67a <strncmp>:
   da67a:	b530      	push	{r4, r5, lr}
   da67c:	b182      	cbz	r2, da6a0 <strncmp+0x26>
   da67e:	1e45      	subs	r5, r0, #1
   da680:	3901      	subs	r1, #1
   da682:	f815 3f01 	ldrb.w	r3, [r5, #1]!
   da686:	f811 4f01 	ldrb.w	r4, [r1, #1]!
   da68a:	42a3      	cmp	r3, r4
   da68c:	d106      	bne.n	da69c <strncmp+0x22>
   da68e:	43ec      	mvns	r4, r5
   da690:	4414      	add	r4, r2
   da692:	42e0      	cmn	r0, r4
   da694:	d001      	beq.n	da69a <strncmp+0x20>
   da696:	2b00      	cmp	r3, #0
   da698:	d1f3      	bne.n	da682 <strncmp+0x8>
   da69a:	461c      	mov	r4, r3
   da69c:	1b18      	subs	r0, r3, r4
   da69e:	bd30      	pop	{r4, r5, pc}
   da6a0:	4610      	mov	r0, r2
   da6a2:	bd30      	pop	{r4, r5, pc}

000da6a4 <strncpy>:
   da6a4:	b510      	push	{r4, lr}
   da6a6:	4603      	mov	r3, r0
   da6a8:	b142      	cbz	r2, da6bc <strncpy+0x18>
   da6aa:	f811 4b01 	ldrb.w	r4, [r1], #1
   da6ae:	f803 4b01 	strb.w	r4, [r3], #1
   da6b2:	3a01      	subs	r2, #1
   da6b4:	2c00      	cmp	r4, #0
   da6b6:	d1f7      	bne.n	da6a8 <strncpy+0x4>
   da6b8:	441a      	add	r2, r3
   da6ba:	e000      	b.n	da6be <strncpy+0x1a>
   da6bc:	bd10      	pop	{r4, pc}
   da6be:	4293      	cmp	r3, r2
   da6c0:	d002      	beq.n	da6c8 <strncpy+0x24>
   da6c2:	f803 4b01 	strb.w	r4, [r3], #1
   da6c6:	e7fa      	b.n	da6be <strncpy+0x1a>
   da6c8:	bd10      	pop	{r4, pc}
	...

000da6cc <_strtol_r>:
   da6cc:	e92d 47f0 	stmdb	sp!, {r4, r5, r6, r7, r8, r9, sl, lr}
   da6d0:	4680      	mov	r8, r0
   da6d2:	4840      	ldr	r0, [pc, #256]	; (da7d4 <_strtol_r+0x108>)
   da6d4:	f8d0 9000 	ldr.w	r9, [r0]
   da6d8:	460f      	mov	r7, r1
   da6da:	463d      	mov	r5, r7
   da6dc:	f815 4b01 	ldrb.w	r4, [r5], #1
   da6e0:	eb09 0004 	add.w	r0, r9, r4
   da6e4:	7840      	ldrb	r0, [r0, #1]
   da6e6:	f000 0008 	and.w	r0, r0, #8
   da6ea:	f000 06ff 	and.w	r6, r0, #255	; 0xff
   da6ee:	b108      	cbz	r0, da6f4 <_strtol_r+0x28>
   da6f0:	462f      	mov	r7, r5
   da6f2:	e7f2      	b.n	da6da <_strtol_r+0xe>
   da6f4:	2c2d      	cmp	r4, #45	; 0x2d
   da6f6:	d103      	bne.n	da700 <_strtol_r+0x34>
   da6f8:	1cbd      	adds	r5, r7, #2
   da6fa:	787c      	ldrb	r4, [r7, #1]
   da6fc:	2601      	movs	r6, #1
   da6fe:	e003      	b.n	da708 <_strtol_r+0x3c>
   da700:	2c2b      	cmp	r4, #43	; 0x2b
   da702:	bf04      	itt	eq
   da704:	787c      	ldrbeq	r4, [r7, #1]
   da706:	1cbd      	addeq	r5, r7, #2
   da708:	b113      	cbz	r3, da710 <_strtol_r+0x44>
   da70a:	2b10      	cmp	r3, #16
   da70c:	d10a      	bne.n	da724 <_strtol_r+0x58>
   da70e:	e05b      	b.n	da7c8 <_strtol_r+0xfc>
   da710:	2c30      	cmp	r4, #48	; 0x30
   da712:	d157      	bne.n	da7c4 <_strtol_r+0xf8>
   da714:	7828      	ldrb	r0, [r5, #0]
   da716:	f000 00df 	and.w	r0, r0, #223	; 0xdf
   da71a:	2858      	cmp	r0, #88	; 0x58
   da71c:	d14d      	bne.n	da7ba <_strtol_r+0xee>
   da71e:	786c      	ldrb	r4, [r5, #1]
   da720:	2310      	movs	r3, #16
   da722:	3502      	adds	r5, #2
   da724:	2e00      	cmp	r6, #0
   da726:	bf14      	ite	ne
   da728:	f04f 4c00 	movne.w	ip, #2147483648	; 0x80000000
   da72c:	f06f 4c00 	mvneq.w	ip, #2147483648	; 0x80000000
   da730:	2700      	movs	r7, #0
   da732:	fbbc faf3 	udiv	sl, ip, r3
   da736:	4638      	mov	r0, r7
   da738:	fb03 cc1a 	mls	ip, r3, sl, ip
   da73c:	eb09 0e04 	add.w	lr, r9, r4
   da740:	f89e e001 	ldrb.w	lr, [lr, #1]
   da744:	f01e 0f04 	tst.w	lr, #4
   da748:	d001      	beq.n	da74e <_strtol_r+0x82>
   da74a:	3c30      	subs	r4, #48	; 0x30
   da74c:	e00b      	b.n	da766 <_strtol_r+0x9a>
   da74e:	f01e 0e03 	ands.w	lr, lr, #3
   da752:	d01b      	beq.n	da78c <_strtol_r+0xc0>
   da754:	f1be 0f01 	cmp.w	lr, #1
   da758:	bf0c      	ite	eq
   da75a:	f04f 0e37 	moveq.w	lr, #55	; 0x37
   da75e:	f04f 0e57 	movne.w	lr, #87	; 0x57
   da762:	ebce 0404 	rsb	r4, lr, r4
   da766:	42a3      	cmp	r3, r4
   da768:	dd10      	ble.n	da78c <_strtol_r+0xc0>
   da76a:	f1b7 3fff 	cmp.w	r7, #4294967295	; 0xffffffff
   da76e:	d00a      	beq.n	da786 <_strtol_r+0xba>
   da770:	4550      	cmp	r0, sl
   da772:	d806      	bhi.n	da782 <_strtol_r+0xb6>
   da774:	d101      	bne.n	da77a <_strtol_r+0xae>
   da776:	4564      	cmp	r4, ip
   da778:	dc03      	bgt.n	da782 <_strtol_r+0xb6>
   da77a:	fb03 4000 	mla	r0, r3, r0, r4
   da77e:	2701      	movs	r7, #1
   da780:	e001      	b.n	da786 <_strtol_r+0xba>
   da782:	f04f 37ff 	mov.w	r7, #4294967295	; 0xffffffff
   da786:	f815 4b01 	ldrb.w	r4, [r5], #1
   da78a:	e7d7      	b.n	da73c <_strtol_r+0x70>
   da78c:	1c7b      	adds	r3, r7, #1
   da78e:	d10c      	bne.n	da7aa <_strtol_r+0xde>
   da790:	2e00      	cmp	r6, #0
   da792:	f04f 0322 	mov.w	r3, #34	; 0x22
   da796:	bf14      	ite	ne
   da798:	f04f 4000 	movne.w	r0, #2147483648	; 0x80000000
   da79c:	f06f 4000 	mvneq.w	r0, #2147483648	; 0x80000000
   da7a0:	f8c8 3000 	str.w	r3, [r8]
   da7a4:	b92a      	cbnz	r2, da7b2 <_strtol_r+0xe6>
   da7a6:	e8bd 87f0 	ldmia.w	sp!, {r4, r5, r6, r7, r8, r9, sl, pc}
   da7aa:	b106      	cbz	r6, da7ae <_strtol_r+0xe2>
   da7ac:	4240      	negs	r0, r0
   da7ae:	b172      	cbz	r2, da7ce <_strtol_r+0x102>
   da7b0:	b107      	cbz	r7, da7b4 <_strtol_r+0xe8>
   da7b2:	1e69      	subs	r1, r5, #1
   da7b4:	6011      	str	r1, [r2, #0]
   da7b6:	e8bd 87f0 	ldmia.w	sp!, {r4, r5, r6, r7, r8, r9, sl, pc}
   da7ba:	2430      	movs	r4, #48	; 0x30
   da7bc:	2b00      	cmp	r3, #0
   da7be:	d1b1      	bne.n	da724 <_strtol_r+0x58>
   da7c0:	2308      	movs	r3, #8
   da7c2:	e7af      	b.n	da724 <_strtol_r+0x58>
   da7c4:	230a      	movs	r3, #10
   da7c6:	e7ad      	b.n	da724 <_strtol_r+0x58>
   da7c8:	2c30      	cmp	r4, #48	; 0x30
   da7ca:	d0a3      	beq.n	da714 <_strtol_r+0x48>
   da7cc:	e7aa      	b.n	da724 <_strtol_r+0x58>
   da7ce:	e8bd 87f0 	ldmia.w	sp!, {r4, r5, r6, r7, r8, r9, sl, pc}
   da7d2:	bf00      	nop
   da7d4:	2003db88 	.word	0x2003db88

000da7d8 <strtol>:
   da7d8:	4613      	mov	r3, r2
   da7da:	460a      	mov	r2, r1
   da7dc:	4601      	mov	r1, r0
   da7de:	4802      	ldr	r0, [pc, #8]	; (da7e8 <strtol+0x10>)
   da7e0:	6800      	ldr	r0, [r0, #0]
   da7e2:	f7ff bf73 	b.w	da6cc <_strtol_r>
   da7e6:	bf00      	nop
   da7e8:	2003dbec 	.word	0x2003dbec

000da7ec <_strtoul_r>:
   da7ec:	e92d 47f0 	stmdb	sp!, {r4, r5, r6, r7, r8, r9, sl, lr}
   da7f0:	4680      	mov	r8, r0
   da7f2:	483c      	ldr	r0, [pc, #240]	; (da8e4 <_strtoul_r+0xf8>)
   da7f4:	f8d0 9000 	ldr.w	r9, [r0]
   da7f8:	460e      	mov	r6, r1
   da7fa:	4635      	mov	r5, r6
   da7fc:	f815 4b01 	ldrb.w	r4, [r5], #1
   da800:	eb09 0004 	add.w	r0, r9, r4
   da804:	7840      	ldrb	r0, [r0, #1]
   da806:	f000 0008 	and.w	r0, r0, #8
   da80a:	f000 07ff 	and.w	r7, r0, #255	; 0xff
   da80e:	b108      	cbz	r0, da814 <_strtoul_r+0x28>
   da810:	462e      	mov	r6, r5
   da812:	e7f2      	b.n	da7fa <_strtoul_r+0xe>
   da814:	2c2d      	cmp	r4, #45	; 0x2d
   da816:	d103      	bne.n	da820 <_strtoul_r+0x34>
   da818:	1cb5      	adds	r5, r6, #2
   da81a:	7874      	ldrb	r4, [r6, #1]
   da81c:	2701      	movs	r7, #1
   da81e:	e003      	b.n	da828 <_strtoul_r+0x3c>
   da820:	2c2b      	cmp	r4, #43	; 0x2b
   da822:	bf04      	itt	eq
   da824:	7874      	ldrbeq	r4, [r6, #1]
   da826:	1cb5      	addeq	r5, r6, #2
   da828:	b113      	cbz	r3, da830 <_strtoul_r+0x44>
   da82a:	2b10      	cmp	r3, #16
   da82c:	d10a      	bne.n	da844 <_strtoul_r+0x58>
   da82e:	e053      	b.n	da8d8 <_strtoul_r+0xec>
   da830:	2c30      	cmp	r4, #48	; 0x30
   da832:	d14f      	bne.n	da8d4 <_strtoul_r+0xe8>
   da834:	7828      	ldrb	r0, [r5, #0]
   da836:	f000 00df 	and.w	r0, r0, #223	; 0xdf
   da83a:	2858      	cmp	r0, #88	; 0x58
   da83c:	d145      	bne.n	da8ca <_strtoul_r+0xde>
   da83e:	786c      	ldrb	r4, [r5, #1]
   da840:	2310      	movs	r3, #16
   da842:	3502      	adds	r5, #2
   da844:	f04f 3cff 	mov.w	ip, #4294967295	; 0xffffffff
   da848:	2600      	movs	r6, #0
   da84a:	fbbc fcf3 	udiv	ip, ip, r3
   da84e:	fb03 fa0c 	mul.w	sl, r3, ip
   da852:	ea6f 0a0a 	mvn.w	sl, sl
   da856:	4630      	mov	r0, r6
   da858:	eb09 0e04 	add.w	lr, r9, r4
   da85c:	f89e e001 	ldrb.w	lr, [lr, #1]
   da860:	f01e 0f04 	tst.w	lr, #4
   da864:	d001      	beq.n	da86a <_strtoul_r+0x7e>
   da866:	3c30      	subs	r4, #48	; 0x30
   da868:	e00b      	b.n	da882 <_strtoul_r+0x96>
   da86a:	f01e 0e03 	ands.w	lr, lr, #3
   da86e:	d01a      	beq.n	da8a6 <_strtoul_r+0xba>
   da870:	f1be 0f01 	cmp.w	lr, #1
   da874:	bf0c      	ite	eq
   da876:	f04f 0e37 	moveq.w	lr, #55	; 0x37
   da87a:	f04f 0e57 	movne.w	lr, #87	; 0x57
   da87e:	ebce 0404 	rsb	r4, lr, r4
   da882:	42a3      	cmp	r3, r4
   da884:	dd0f      	ble.n	da8a6 <_strtoul_r+0xba>
   da886:	2e00      	cmp	r6, #0
   da888:	db08      	blt.n	da89c <_strtoul_r+0xb0>
   da88a:	4560      	cmp	r0, ip
   da88c:	d806      	bhi.n	da89c <_strtoul_r+0xb0>
   da88e:	d101      	bne.n	da894 <_strtoul_r+0xa8>
   da890:	4554      	cmp	r4, sl
   da892:	dc03      	bgt.n	da89c <_strtoul_r+0xb0>
   da894:	fb03 4000 	mla	r0, r3, r0, r4
   da898:	2601      	movs	r6, #1
   da89a:	e001      	b.n	da8a0 <_strtoul_r+0xb4>
   da89c:	f04f 36ff 	mov.w	r6, #4294967295	; 0xffffffff
   da8a0:	f815 4b01 	ldrb.w	r4, [r5], #1
   da8a4:	e7d8      	b.n	da858 <_strtoul_r+0x6c>
   da8a6:	2e00      	cmp	r6, #0
   da8a8:	da07      	bge.n	da8ba <_strtoul_r+0xce>
   da8aa:	2322      	movs	r3, #34	; 0x22
   da8ac:	f8c8 3000 	str.w	r3, [r8]
   da8b0:	f04f 30ff 	mov.w	r0, #4294967295	; 0xffffffff
   da8b4:	b92a      	cbnz	r2, da8c2 <_strtoul_r+0xd6>
   da8b6:	e8bd 87f0 	ldmia.w	sp!, {r4, r5, r6, r7, r8, r9, sl, pc}
   da8ba:	b107      	cbz	r7, da8be <_strtoul_r+0xd2>
   da8bc:	4240      	negs	r0, r0
   da8be:	b172      	cbz	r2, da8de <_strtoul_r+0xf2>
   da8c0:	b106      	cbz	r6, da8c4 <_strtoul_r+0xd8>
   da8c2:	1e69      	subs	r1, r5, #1
   da8c4:	6011      	str	r1, [r2, #0]
   da8c6:	e8bd 87f0 	ldmia.w	sp!, {r4, r5, r6, r7, r8, r9, sl, pc}
   da8ca:	2430      	movs	r4, #48	; 0x30
   da8cc:	2b00      	cmp	r3, #0
   da8ce:	d1b9      	bne.n	da844 <_strtoul_r+0x58>
   da8d0:	2308      	movs	r3, #8
   da8d2:	e7b7      	b.n	da844 <_strtoul_r+0x58>
   da8d4:	230a      	movs	r3, #10
   da8d6:	e7b5      	b.n	da844 <_strtoul_r+0x58>
   da8d8:	2c30      	cmp	r4, #48	; 0x30
   da8da:	d0ab      	beq.n	da834 <_strtoul_r+0x48>
   da8dc:	e7b2      	b.n	da844 <_strtoul_r+0x58>
   da8de:	e8bd 87f0 	ldmia.w	sp!, {r4, r5, r6, r7, r8, r9, sl, pc}
   da8e2:	bf00      	nop
   da8e4:	2003db88 	.word	0x2003db88

000da8e8 <strtoul>:
   da8e8:	4613      	mov	r3, r2
   da8ea:	460a      	mov	r2, r1
   da8ec:	4601      	mov	r1, r0
   da8ee:	4802      	ldr	r0, [pc, #8]	; (da8f8 <strtoul+0x10>)
   da8f0:	6800      	ldr	r0, [r0, #0]
   da8f2:	f7ff bf7b 	b.w	da7ec <_strtoul_r>
   da8f6:	bf00      	nop
   da8f8:	2003dbec 	.word	0x2003dbec

000da8fc <__tzcalc_limits>:
   da8fc:	e92d 4ff7 	stmdb	sp!, {r0, r1, r2, r4, r5, r6, r7, r8, r9, sl, fp, lr}
   da900:	4604      	mov	r4, r0
   da902:	f000 fa6f 	bl	dade4 <__gettzinfo>
   da906:	f240 73b1 	movw	r3, #1969	; 0x7b1
   da90a:	429c      	cmp	r4, r3
   da90c:	f340 8096 	ble.w	daa3c <__tzcalc_limits+0x140>
   da910:	f46f 63f6 	mvn.w	r3, #1968	; 0x7b0
   da914:	18e3      	adds	r3, r4, r3
   da916:	f2a4 72b2 	subw	r2, r4, #1970	; 0x7b2
   da91a:	109b      	asrs	r3, r3, #2
   da91c:	f240 156d 	movw	r5, #365	; 0x16d
   da920:	fb05 3502 	mla	r5, r5, r2, r3
   da924:	f2a4 726d 	subw	r2, r4, #1901	; 0x76d
   da928:	f06f 0363 	mvn.w	r3, #99	; 0x63
   da92c:	fb92 f3f3 	sdiv	r3, r2, r3
   da930:	f46f 62c8 	mvn.w	r2, #1600	; 0x640
   da934:	442b      	add	r3, r5
   da936:	18a5      	adds	r5, r4, r2
   da938:	f44f 72c8 	mov.w	r2, #400	; 0x190
   da93c:	fb95 f5f2 	sdiv	r5, r5, r2
   da940:	441d      	add	r5, r3
   da942:	2364      	movs	r3, #100	; 0x64
   da944:	fb94 f7f2 	sdiv	r7, r4, r2
   da948:	fb94 f6f3 	sdiv	r6, r4, r3
   da94c:	fb02 4717 	mls	r7, r2, r7, r4
   da950:	fb03 4616 	mls	r6, r3, r6, r4
   da954:	f100 0338 	add.w	r3, r0, #56	; 0x38
   da958:	fab7 fe87 	clz	lr, r7
   da95c:	9301      	str	r3, [sp, #4]
   da95e:	f004 0303 	and.w	r3, r4, #3
   da962:	6044      	str	r4, [r0, #4]
   da964:	ea4f 1e5e 	mov.w	lr, lr, lsr #5
   da968:	4601      	mov	r1, r0
   da96a:	9300      	str	r3, [sp, #0]
   da96c:	f04f 0c07 	mov.w	ip, #7
   da970:	7a0b      	ldrb	r3, [r1, #8]
   da972:	2b4a      	cmp	r3, #74	; 0x4a
   da974:	d10e      	bne.n	da994 <__tzcalc_limits+0x98>
   da976:	694b      	ldr	r3, [r1, #20]
   da978:	9a00      	ldr	r2, [sp, #0]
   da97a:	18ec      	adds	r4, r5, r3
   da97c:	b902      	cbnz	r2, da980 <__tzcalc_limits+0x84>
   da97e:	b906      	cbnz	r6, da982 <__tzcalc_limits+0x86>
   da980:	b927      	cbnz	r7, da98c <__tzcalc_limits+0x90>
   da982:	2b3b      	cmp	r3, #59	; 0x3b
   da984:	bfd4      	ite	le
   da986:	2300      	movle	r3, #0
   da988:	2301      	movgt	r3, #1
   da98a:	e000      	b.n	da98e <__tzcalc_limits+0x92>
   da98c:	2300      	movs	r3, #0
   da98e:	4423      	add	r3, r4
   da990:	3b01      	subs	r3, #1
   da992:	e03f      	b.n	daa14 <__tzcalc_limits+0x118>
   da994:	2b44      	cmp	r3, #68	; 0x44
   da996:	d102      	bne.n	da99e <__tzcalc_limits+0xa2>
   da998:	694b      	ldr	r3, [r1, #20]
   da99a:	442b      	add	r3, r5
   da99c:	e03a      	b.n	daa14 <__tzcalc_limits+0x118>
   da99e:	9b00      	ldr	r3, [sp, #0]
   da9a0:	b92b      	cbnz	r3, da9ae <__tzcalc_limits+0xb2>
   da9a2:	2e00      	cmp	r6, #0
   da9a4:	bf0c      	ite	eq
   da9a6:	46f0      	moveq	r8, lr
   da9a8:	f04f 0801 	movne.w	r8, #1
   da9ac:	e000      	b.n	da9b0 <__tzcalc_limits+0xb4>
   da9ae:	46f0      	mov	r8, lr
   da9b0:	4b24      	ldr	r3, [pc, #144]	; (daa44 <__tzcalc_limits+0x148>)
   da9b2:	68cc      	ldr	r4, [r1, #12]
   da9b4:	2230      	movs	r2, #48	; 0x30
   da9b6:	fb02 3808 	mla	r8, r2, r8, r3
   da9ba:	f1a8 0a04 	sub.w	sl, r8, #4
   da9be:	46a9      	mov	r9, r5
   da9c0:	2301      	movs	r3, #1
   da9c2:	42a3      	cmp	r3, r4
   da9c4:	da04      	bge.n	da9d0 <__tzcalc_limits+0xd4>
   da9c6:	f85a bf04 	ldr.w	fp, [sl, #4]!
   da9ca:	3301      	adds	r3, #1
   da9cc:	44d9      	add	r9, fp
   da9ce:	e7f8      	b.n	da9c2 <__tzcalc_limits+0xc6>
   da9d0:	f109 0304 	add.w	r3, r9, #4
   da9d4:	fb93 fbfc 	sdiv	fp, r3, ip
   da9d8:	ebcb 0acb 	rsb	sl, fp, fp, lsl #3
   da9dc:	2c01      	cmp	r4, #1
   da9de:	ebca 0a03 	rsb	sl, sl, r3
   da9e2:	694b      	ldr	r3, [r1, #20]
   da9e4:	bfb8      	it	lt
   da9e6:	2401      	movlt	r4, #1
   da9e8:	f104 4480 	add.w	r4, r4, #1073741824	; 0x40000000
   da9ec:	ebb3 0a0a 	subs.w	sl, r3, sl
   da9f0:	690b      	ldr	r3, [r1, #16]
   da9f2:	f104 34ff 	add.w	r4, r4, #4294967295	; 0xffffffff
   da9f6:	f103 33ff 	add.w	r3, r3, #4294967295	; 0xffffffff
   da9fa:	bf48      	it	mi
   da9fc:	f10a 0a07 	addmi.w	sl, sl, #7
   daa00:	ebc3 03c3 	rsb	r3, r3, r3, lsl #3
   daa04:	f858 4024 	ldr.w	r4, [r8, r4, lsl #2]
   daa08:	4453      	add	r3, sl
   daa0a:	42a3      	cmp	r3, r4
   daa0c:	db01      	blt.n	daa12 <__tzcalc_limits+0x116>
   daa0e:	3b07      	subs	r3, #7
   daa10:	e7fb      	b.n	daa0a <__tzcalc_limits+0x10e>
   daa12:	444b      	add	r3, r9
   daa14:	698c      	ldr	r4, [r1, #24]
   daa16:	4a0c      	ldr	r2, [pc, #48]	; (daa48 <__tzcalc_limits+0x14c>)
   daa18:	fb02 4303 	mla	r3, r2, r3, r4
   daa1c:	6a0c      	ldr	r4, [r1, #32]
   daa1e:	4423      	add	r3, r4
   daa20:	f841 3f1c 	str.w	r3, [r1, #28]!
   daa24:	9b01      	ldr	r3, [sp, #4]
   daa26:	4299      	cmp	r1, r3
   daa28:	d1a2      	bne.n	da970 <__tzcalc_limits+0x74>
   daa2a:	69c3      	ldr	r3, [r0, #28]
   daa2c:	6b82      	ldr	r2, [r0, #56]	; 0x38
   daa2e:	4293      	cmp	r3, r2
   daa30:	bfac      	ite	ge
   daa32:	2300      	movge	r3, #0
   daa34:	2301      	movlt	r3, #1
   daa36:	6003      	str	r3, [r0, #0]
   daa38:	2001      	movs	r0, #1
   daa3a:	e000      	b.n	daa3e <__tzcalc_limits+0x142>
   daa3c:	2000      	movs	r0, #0
   daa3e:	b003      	add	sp, #12
   daa40:	e8bd 8ff0 	ldmia.w	sp!, {r4, r5, r6, r7, r8, r9, sl, fp, pc}
   daa44:	000dc004 	.word	0x000dc004
   daa48:	00015180 	.word	0x00015180

000daa4c <__tz_lock>:
   daa4c:	4770      	bx	lr

000daa4e <__tz_unlock>:
   daa4e:	4770      	bx	lr

000daa50 <_tzset_unlocked>:
   daa50:	4b01      	ldr	r3, [pc, #4]	; (daa58 <_tzset_unlocked+0x8>)
   daa52:	6818      	ldr	r0, [r3, #0]
   daa54:	f000 b802 	b.w	daa5c <_tzset_unlocked_r>
   daa58:	2003dbec 	.word	0x2003dbec

000daa5c <_tzset_unlocked_r>:
   daa5c:	e92d 4ff0 	stmdb	sp!, {r4, r5, r6, r7, r8, r9, sl, fp, lr}
   daa60:	b08d      	sub	sp, #52	; 0x34
   daa62:	4607      	mov	r7, r0
   daa64:	f000 f9be 	bl	dade4 <__gettzinfo>
   daa68:	49b0      	ldr	r1, [pc, #704]	; (dad2c <_tzset_unlocked_r+0x2d0>)
   daa6a:	4eb1      	ldr	r6, [pc, #708]	; (dad30 <_tzset_unlocked_r+0x2d4>)
   daa6c:	4604      	mov	r4, r0
   daa6e:	4638      	mov	r0, r7
   daa70:	f000 f9b0 	bl	dadd4 <_getenv_r>
   daa74:	4605      	mov	r5, r0
   daa76:	b960      	cbnz	r0, daa92 <_tzset_unlocked_r+0x36>
   daa78:	4bae      	ldr	r3, [pc, #696]	; (dad34 <_tzset_unlocked_r+0x2d8>)
   daa7a:	4aaf      	ldr	r2, [pc, #700]	; (dad38 <_tzset_unlocked_r+0x2dc>)
   daa7c:	6018      	str	r0, [r3, #0]
   daa7e:	4baf      	ldr	r3, [pc, #700]	; (dad3c <_tzset_unlocked_r+0x2e0>)
   daa80:	6018      	str	r0, [r3, #0]
   daa82:	4baf      	ldr	r3, [pc, #700]	; (dad40 <_tzset_unlocked_r+0x2e4>)
   daa84:	6830      	ldr	r0, [r6, #0]
   daa86:	601a      	str	r2, [r3, #0]
   daa88:	605a      	str	r2, [r3, #4]
   daa8a:	f7fd f91b 	bl	d7cc4 <free>
   daa8e:	6035      	str	r5, [r6, #0]
   daa90:	e148      	b.n	dad24 <_tzset_unlocked_r+0x2c8>
   daa92:	6831      	ldr	r1, [r6, #0]
   daa94:	b979      	cbnz	r1, daab6 <_tzset_unlocked_r+0x5a>
   daa96:	6830      	ldr	r0, [r6, #0]
   daa98:	f7fd f914 	bl	d7cc4 <free>
   daa9c:	4628      	mov	r0, r5
   daa9e:	f7ff fde4 	bl	da66a <strlen>
   daaa2:	1c41      	adds	r1, r0, #1
   daaa4:	4638      	mov	r0, r7
   daaa6:	f7fd f94d 	bl	d7d44 <_malloc_r>
   daaaa:	6030      	str	r0, [r6, #0]
   daaac:	b148      	cbz	r0, daac2 <_tzset_unlocked_r+0x66>
   daaae:	4629      	mov	r1, r5
   daab0:	f7ff fdb8 	bl	da624 <strcpy>
   daab4:	e005      	b.n	daac2 <_tzset_unlocked_r+0x66>
   daab6:	f7ff fdab 	bl	da610 <strcmp>
   daaba:	2800      	cmp	r0, #0
   daabc:	f000 8132 	beq.w	dad24 <_tzset_unlocked_r+0x2c8>
   daac0:	e7e9      	b.n	daa96 <_tzset_unlocked_r+0x3a>
   daac2:	782b      	ldrb	r3, [r5, #0]
   daac4:	4a9f      	ldr	r2, [pc, #636]	; (dad44 <_tzset_unlocked_r+0x2e8>)
   daac6:	49a0      	ldr	r1, [pc, #640]	; (dad48 <_tzset_unlocked_r+0x2ec>)
   daac8:	2b3a      	cmp	r3, #58	; 0x3a
   daaca:	bf08      	it	eq
   daacc:	3501      	addeq	r5, #1
   daace:	ae0a      	add	r6, sp, #40	; 0x28
   daad0:	4633      	mov	r3, r6
   daad2:	4628      	mov	r0, r5
   daad4:	f7fd f916 	bl	d7d04 <siscanf>
   daad8:	2800      	cmp	r0, #0
   daada:	f340 8123 	ble.w	dad24 <_tzset_unlocked_r+0x2c8>
   daade:	9b0a      	ldr	r3, [sp, #40]	; 0x28
   daae0:	18ef      	adds	r7, r5, r3
   daae2:	5ceb      	ldrb	r3, [r5, r3]
   daae4:	2b2d      	cmp	r3, #45	; 0x2d
   daae6:	d103      	bne.n	daaf0 <_tzset_unlocked_r+0x94>
   daae8:	3701      	adds	r7, #1
   daaea:	f04f 35ff 	mov.w	r5, #4294967295	; 0xffffffff
   daaee:	e003      	b.n	daaf8 <_tzset_unlocked_r+0x9c>
   daaf0:	2b2b      	cmp	r3, #43	; 0x2b
   daaf2:	bf08      	it	eq
   daaf4:	3701      	addeq	r7, #1
   daaf6:	2501      	movs	r5, #1
   daaf8:	f10d 0a20 	add.w	sl, sp, #32
   daafc:	f10d 0b1e 	add.w	fp, sp, #30
   dab00:	f04f 0800 	mov.w	r8, #0
   dab04:	9603      	str	r6, [sp, #12]
   dab06:	f8cd a008 	str.w	sl, [sp, #8]
   dab0a:	9601      	str	r6, [sp, #4]
   dab0c:	f8cd b000 	str.w	fp, [sp]
   dab10:	4633      	mov	r3, r6
   dab12:	aa07      	add	r2, sp, #28
   dab14:	498d      	ldr	r1, [pc, #564]	; (dad4c <_tzset_unlocked_r+0x2f0>)
   dab16:	f8ad 801e 	strh.w	r8, [sp, #30]
   dab1a:	4638      	mov	r0, r7
   dab1c:	f8ad 8020 	strh.w	r8, [sp, #32]
   dab20:	f7fd f8f0 	bl	d7d04 <siscanf>
   dab24:	4540      	cmp	r0, r8
   dab26:	f340 80fd 	ble.w	dad24 <_tzset_unlocked_r+0x2c8>
   dab2a:	f8bd 201e 	ldrh.w	r2, [sp, #30]
   dab2e:	f8bd 3020 	ldrh.w	r3, [sp, #32]
   dab32:	f8df 9224 	ldr.w	r9, [pc, #548]	; dad58 <_tzset_unlocked_r+0x2fc>
   dab36:	213c      	movs	r1, #60	; 0x3c
   dab38:	fb01 3302 	mla	r3, r1, r2, r3
   dab3c:	f8bd 201c 	ldrh.w	r2, [sp, #28]
   dab40:	f44f 6161 	mov.w	r1, #3600	; 0xe10
   dab44:	fb01 3302 	mla	r3, r1, r2, r3
   dab48:	435d      	muls	r5, r3
   dab4a:	6225      	str	r5, [r4, #32]
   dab4c:	4d7c      	ldr	r5, [pc, #496]	; (dad40 <_tzset_unlocked_r+0x2e4>)
   dab4e:	4b7d      	ldr	r3, [pc, #500]	; (dad44 <_tzset_unlocked_r+0x2e8>)
   dab50:	602b      	str	r3, [r5, #0]
   dab52:	9b0a      	ldr	r3, [sp, #40]	; 0x28
   dab54:	497c      	ldr	r1, [pc, #496]	; (dad48 <_tzset_unlocked_r+0x2ec>)
   dab56:	441f      	add	r7, r3
   dab58:	464a      	mov	r2, r9
   dab5a:	4633      	mov	r3, r6
   dab5c:	4638      	mov	r0, r7
   dab5e:	f7fd f8d1 	bl	d7d04 <siscanf>
   dab62:	4540      	cmp	r0, r8
   dab64:	dc08      	bgt.n	dab78 <_tzset_unlocked_r+0x11c>
   dab66:	682b      	ldr	r3, [r5, #0]
   dab68:	606b      	str	r3, [r5, #4]
   dab6a:	4b72      	ldr	r3, [pc, #456]	; (dad34 <_tzset_unlocked_r+0x2d8>)
   dab6c:	6a22      	ldr	r2, [r4, #32]
   dab6e:	601a      	str	r2, [r3, #0]
   dab70:	4b72      	ldr	r3, [pc, #456]	; (dad3c <_tzset_unlocked_r+0x2e0>)
   dab72:	f8c3 8000 	str.w	r8, [r3]
   dab76:	e0d5      	b.n	dad24 <_tzset_unlocked_r+0x2c8>
   dab78:	9b0a      	ldr	r3, [sp, #40]	; 0x28
   dab7a:	f8c5 9004 	str.w	r9, [r5, #4]
   dab7e:	18fd      	adds	r5, r7, r3
   dab80:	5cfb      	ldrb	r3, [r7, r3]
   dab82:	2b2d      	cmp	r3, #45	; 0x2d
   dab84:	d103      	bne.n	dab8e <_tzset_unlocked_r+0x132>
   dab86:	3501      	adds	r5, #1
   dab88:	f04f 37ff 	mov.w	r7, #4294967295	; 0xffffffff
   dab8c:	e003      	b.n	dab96 <_tzset_unlocked_r+0x13a>
   dab8e:	2b2b      	cmp	r3, #43	; 0x2b
   dab90:	bf08      	it	eq
   dab92:	3501      	addeq	r5, #1
   dab94:	2701      	movs	r7, #1
   dab96:	2300      	movs	r3, #0
   dab98:	f8ad 301c 	strh.w	r3, [sp, #28]
   dab9c:	f8ad 301e 	strh.w	r3, [sp, #30]
   daba0:	f8ad 3020 	strh.w	r3, [sp, #32]
   daba4:	930a      	str	r3, [sp, #40]	; 0x28
   daba6:	9603      	str	r6, [sp, #12]
   daba8:	f8cd a008 	str.w	sl, [sp, #8]
   dabac:	9601      	str	r6, [sp, #4]
   dabae:	f8cd b000 	str.w	fp, [sp]
   dabb2:	4633      	mov	r3, r6
   dabb4:	aa07      	add	r2, sp, #28
   dabb6:	4965      	ldr	r1, [pc, #404]	; (dad4c <_tzset_unlocked_r+0x2f0>)
   dabb8:	4628      	mov	r0, r5
   dabba:	f7fd f8a3 	bl	d7d04 <siscanf>
   dabbe:	2800      	cmp	r0, #0
   dabc0:	dc04      	bgt.n	dabcc <_tzset_unlocked_r+0x170>
   dabc2:	6a23      	ldr	r3, [r4, #32]
   dabc4:	f5a3 6361 	sub.w	r3, r3, #3600	; 0xe10
   dabc8:	63e3      	str	r3, [r4, #60]	; 0x3c
   dabca:	e00e      	b.n	dabea <_tzset_unlocked_r+0x18e>
   dabcc:	f8bd 201e 	ldrh.w	r2, [sp, #30]
   dabd0:	f8bd 3020 	ldrh.w	r3, [sp, #32]
   dabd4:	213c      	movs	r1, #60	; 0x3c
   dabd6:	fb01 3302 	mla	r3, r1, r2, r3
   dabda:	f8bd 201c 	ldrh.w	r2, [sp, #28]
   dabde:	f44f 6161 	mov.w	r1, #3600	; 0xe10
   dabe2:	fb01 3302 	mla	r3, r1, r2, r3
   dabe6:	435f      	muls	r7, r3
   dabe8:	63e7      	str	r7, [r4, #60]	; 0x3c
   dabea:	9b0a      	ldr	r3, [sp, #40]	; 0x28
   dabec:	4627      	mov	r7, r4
   dabee:	441d      	add	r5, r3
   dabf0:	f04f 0900 	mov.w	r9, #0
   dabf4:	782b      	ldrb	r3, [r5, #0]
   dabf6:	2b2c      	cmp	r3, #44	; 0x2c
   dabf8:	bf08      	it	eq
   dabfa:	3501      	addeq	r5, #1
   dabfc:	f895 8000 	ldrb.w	r8, [r5]
   dac00:	f1b8 0f4d 	cmp.w	r8, #77	; 0x4d
   dac04:	d126      	bne.n	dac54 <_tzset_unlocked_r+0x1f8>
   dac06:	f10d 0326 	add.w	r3, sp, #38	; 0x26
   dac0a:	9302      	str	r3, [sp, #8]
   dac0c:	ab09      	add	r3, sp, #36	; 0x24
   dac0e:	9300      	str	r3, [sp, #0]
   dac10:	9603      	str	r6, [sp, #12]
   dac12:	9601      	str	r6, [sp, #4]
   dac14:	4633      	mov	r3, r6
   dac16:	f10d 0222 	add.w	r2, sp, #34	; 0x22
   dac1a:	494d      	ldr	r1, [pc, #308]	; (dad50 <_tzset_unlocked_r+0x2f4>)
   dac1c:	4628      	mov	r0, r5
   dac1e:	f7fd f871 	bl	d7d04 <siscanf>
   dac22:	2803      	cmp	r0, #3
   dac24:	d17e      	bne.n	dad24 <_tzset_unlocked_r+0x2c8>
   dac26:	f8bd 1022 	ldrh.w	r1, [sp, #34]	; 0x22
   dac2a:	1e4b      	subs	r3, r1, #1
   dac2c:	2b0b      	cmp	r3, #11
   dac2e:	d879      	bhi.n	dad24 <_tzset_unlocked_r+0x2c8>
   dac30:	f8bd 2024 	ldrh.w	r2, [sp, #36]	; 0x24
   dac34:	1e53      	subs	r3, r2, #1
   dac36:	2b04      	cmp	r3, #4
   dac38:	d874      	bhi.n	dad24 <_tzset_unlocked_r+0x2c8>
   dac3a:	f8bd 3026 	ldrh.w	r3, [sp, #38]	; 0x26
   dac3e:	2b06      	cmp	r3, #6
   dac40:	d870      	bhi.n	dad24 <_tzset_unlocked_r+0x2c8>
   dac42:	f887 8008 	strb.w	r8, [r7, #8]
   dac46:	60f9      	str	r1, [r7, #12]
   dac48:	613a      	str	r2, [r7, #16]
   dac4a:	617b      	str	r3, [r7, #20]
   dac4c:	9b0a      	ldr	r3, [sp, #40]	; 0x28
   dac4e:	eb05 0803 	add.w	r8, r5, r3
   dac52:	e02a      	b.n	dacaa <_tzset_unlocked_r+0x24e>
   dac54:	f1b8 0f4a 	cmp.w	r8, #74	; 0x4a
   dac58:	bf06      	itte	eq
   dac5a:	3501      	addeq	r5, #1
   dac5c:	4643      	moveq	r3, r8
   dac5e:	2344      	movne	r3, #68	; 0x44
   dac60:	220a      	movs	r2, #10
   dac62:	a90b      	add	r1, sp, #44	; 0x2c
   dac64:	4628      	mov	r0, r5
   dac66:	9305      	str	r3, [sp, #20]
   dac68:	f7ff fe3e 	bl	da8e8 <strtoul>
   dac6c:	f8dd 802c 	ldr.w	r8, [sp, #44]	; 0x2c
   dac70:	f8ad 0026 	strh.w	r0, [sp, #38]	; 0x26
   dac74:	4545      	cmp	r5, r8
   dac76:	9b05      	ldr	r3, [sp, #20]
   dac78:	d114      	bne.n	daca4 <_tzset_unlocked_r+0x248>
   dac7a:	234d      	movs	r3, #77	; 0x4d
   dac7c:	f1b9 0f00 	cmp.w	r9, #0
   dac80:	d107      	bne.n	dac92 <_tzset_unlocked_r+0x236>
   dac82:	7223      	strb	r3, [r4, #8]
   dac84:	2303      	movs	r3, #3
   dac86:	60e3      	str	r3, [r4, #12]
   dac88:	2302      	movs	r3, #2
   dac8a:	6123      	str	r3, [r4, #16]
   dac8c:	f8c4 9014 	str.w	r9, [r4, #20]
   dac90:	e00b      	b.n	dacaa <_tzset_unlocked_r+0x24e>
   dac92:	f884 3024 	strb.w	r3, [r4, #36]	; 0x24
   dac96:	230b      	movs	r3, #11
   dac98:	62a3      	str	r3, [r4, #40]	; 0x28
   dac9a:	2301      	movs	r3, #1
   dac9c:	62e3      	str	r3, [r4, #44]	; 0x2c
   dac9e:	2300      	movs	r3, #0
   daca0:	6323      	str	r3, [r4, #48]	; 0x30
   daca2:	e002      	b.n	dacaa <_tzset_unlocked_r+0x24e>
   daca4:	b280      	uxth	r0, r0
   daca6:	723b      	strb	r3, [r7, #8]
   daca8:	6178      	str	r0, [r7, #20]
   dacaa:	2302      	movs	r3, #2
   dacac:	f8ad 301c 	strh.w	r3, [sp, #28]
   dacb0:	2300      	movs	r3, #0
   dacb2:	f8ad 301e 	strh.w	r3, [sp, #30]
   dacb6:	f8ad 3020 	strh.w	r3, [sp, #32]
   dacba:	930a      	str	r3, [sp, #40]	; 0x28
   dacbc:	f898 3000 	ldrb.w	r3, [r8]
   dacc0:	2b2f      	cmp	r3, #47	; 0x2f
   dacc2:	d10b      	bne.n	dacdc <_tzset_unlocked_r+0x280>
   dacc4:	9603      	str	r6, [sp, #12]
   dacc6:	f8cd a008 	str.w	sl, [sp, #8]
   dacca:	9601      	str	r6, [sp, #4]
   daccc:	f8cd b000 	str.w	fp, [sp]
   dacd0:	4633      	mov	r3, r6
   dacd2:	aa07      	add	r2, sp, #28
   dacd4:	491f      	ldr	r1, [pc, #124]	; (dad54 <_tzset_unlocked_r+0x2f8>)
   dacd6:	4640      	mov	r0, r8
   dacd8:	f7fd f814 	bl	d7d04 <siscanf>
   dacdc:	f8bd 201e 	ldrh.w	r2, [sp, #30]
   dace0:	f8bd 3020 	ldrh.w	r3, [sp, #32]
   dace4:	213c      	movs	r1, #60	; 0x3c
   dace6:	fb01 3302 	mla	r3, r1, r2, r3
   dacea:	f8bd 201c 	ldrh.w	r2, [sp, #28]
   dacee:	f44f 6161 	mov.w	r1, #3600	; 0xe10
   dacf2:	fb01 3302 	mla	r3, r1, r2, r3
   dacf6:	61bb      	str	r3, [r7, #24]
   dacf8:	9d0a      	ldr	r5, [sp, #40]	; 0x28
   dacfa:	f109 0901 	add.w	r9, r9, #1
   dacfe:	f1b9 0f02 	cmp.w	r9, #2
   dad02:	4445      	add	r5, r8
   dad04:	f107 071c 	add.w	r7, r7, #28
   dad08:	f47f af74 	bne.w	dabf4 <_tzset_unlocked_r+0x198>
   dad0c:	6860      	ldr	r0, [r4, #4]
   dad0e:	f7ff fdf5 	bl	da8fc <__tzcalc_limits>
   dad12:	4b08      	ldr	r3, [pc, #32]	; (dad34 <_tzset_unlocked_r+0x2d8>)
   dad14:	6a22      	ldr	r2, [r4, #32]
   dad16:	601a      	str	r2, [r3, #0]
   dad18:	6be3      	ldr	r3, [r4, #60]	; 0x3c
   dad1a:	1a9b      	subs	r3, r3, r2
   dad1c:	4a07      	ldr	r2, [pc, #28]	; (dad3c <_tzset_unlocked_r+0x2e0>)
   dad1e:	bf18      	it	ne
   dad20:	2301      	movne	r3, #1
   dad22:	6013      	str	r3, [r2, #0]
   dad24:	b00d      	add	sp, #52	; 0x34
   dad26:	e8bd 8ff0 	ldmia.w	sp!, {r4, r5, r6, r7, r8, r9, sl, fp, pc}
   dad2a:	bf00      	nop
   dad2c:	000dc064 	.word	0x000dc064
   dad30:	2003e7e0 	.word	0x2003e7e0
   dad34:	2003e7e8 	.word	0x2003e7e8
   dad38:	000dc067 	.word	0x000dc067
   dad3c:	2003e7e4 	.word	0x2003e7e4
   dad40:	2003dbf0 	.word	0x2003dbf0
   dad44:	2003e7d3 	.word	0x2003e7d3
   dad48:	000dc06b 	.word	0x000dc06b
   dad4c:	000dc08e 	.word	0x000dc08e
   dad50:	000dc07a 	.word	0x000dc07a
   dad54:	000dc08d 	.word	0x000dc08d
   dad58:	2003e7c8 	.word	0x2003e7c8

000dad5c <_findenv_r>:
   dad5c:	e92d 4ff8 	stmdb	sp!, {r3, r4, r5, r6, r7, r8, r9, sl, fp, lr}
   dad60:	4607      	mov	r7, r0
   dad62:	468b      	mov	fp, r1
   dad64:	4690      	mov	r8, r2
   dad66:	f000 f8d9 	bl	daf1c <__env_lock>
   dad6a:	4b19      	ldr	r3, [pc, #100]	; (dadd0 <_findenv_r+0x74>)
   dad6c:	681d      	ldr	r5, [r3, #0]
   dad6e:	469a      	mov	sl, r3
   dad70:	b13d      	cbz	r5, dad82 <_findenv_r+0x26>
   dad72:	465c      	mov	r4, fp
   dad74:	4623      	mov	r3, r4
   dad76:	f813 2b01 	ldrb.w	r2, [r3], #1
   dad7a:	b142      	cbz	r2, dad8e <_findenv_r+0x32>
   dad7c:	2a3d      	cmp	r2, #61	; 0x3d
   dad7e:	461c      	mov	r4, r3
   dad80:	d1f8      	bne.n	dad74 <_findenv_r+0x18>
   dad82:	4638      	mov	r0, r7
   dad84:	f000 f8cb 	bl	daf1e <__env_unlock>
   dad88:	2000      	movs	r0, #0
   dad8a:	e8bd 8ff8 	ldmia.w	sp!, {r3, r4, r5, r6, r7, r8, r9, sl, fp, pc}
   dad8e:	ebcb 0404 	rsb	r4, fp, r4
   dad92:	46a9      	mov	r9, r5
   dad94:	f859 0b04 	ldr.w	r0, [r9], #4
   dad98:	2800      	cmp	r0, #0
   dad9a:	d0f2      	beq.n	dad82 <_findenv_r+0x26>
   dad9c:	4622      	mov	r2, r4
   dad9e:	4659      	mov	r1, fp
   dada0:	f7ff fc6b 	bl	da67a <strncmp>
   dada4:	b988      	cbnz	r0, dadca <_findenv_r+0x6e>
   dada6:	f859 3c04 	ldr.w	r3, [r9, #-4]
   dadaa:	191e      	adds	r6, r3, r4
   dadac:	5d1b      	ldrb	r3, [r3, r4]
   dadae:	2b3d      	cmp	r3, #61	; 0x3d
   dadb0:	d10b      	bne.n	dadca <_findenv_r+0x6e>
   dadb2:	f8da 3000 	ldr.w	r3, [sl]
   dadb6:	1aed      	subs	r5, r5, r3
   dadb8:	10ad      	asrs	r5, r5, #2
   dadba:	4638      	mov	r0, r7
   dadbc:	f8c8 5000 	str.w	r5, [r8]
   dadc0:	f000 f8ad 	bl	daf1e <__env_unlock>
   dadc4:	1c70      	adds	r0, r6, #1
   dadc6:	e8bd 8ff8 	ldmia.w	sp!, {r3, r4, r5, r6, r7, r8, r9, sl, fp, pc}
   dadca:	464d      	mov	r5, r9
   dadcc:	e7e1      	b.n	dad92 <_findenv_r+0x36>
   dadce:	bf00      	nop
   dadd0:	2003dc38 	.word	0x2003dc38

000dadd4 <_getenv_r>:
   dadd4:	b507      	push	{r0, r1, r2, lr}
   dadd6:	aa01      	add	r2, sp, #4
   dadd8:	f7ff ffc0 	bl	dad5c <_findenv_r>
   daddc:	b003      	add	sp, #12
   dadde:	f85d fb04 	ldr.w	pc, [sp], #4
	...

000dade4 <__gettzinfo>:
   dade4:	4800      	ldr	r0, [pc, #0]	; (dade8 <__gettzinfo+0x4>)
   dade6:	4770      	bx	lr
   dade8:	2003dbf8 	.word	0x2003dbf8

000dadec <gmtime_r>:
   dadec:	6802      	ldr	r2, [r0, #0]
   dadee:	4b47      	ldr	r3, [pc, #284]	; (daf0c <gmtime_r+0x120>)
   dadf0:	b5f0      	push	{r4, r5, r6, r7, lr}
   dadf2:	fb92 f4f3 	sdiv	r4, r2, r3
   dadf6:	fb03 2214 	mls	r2, r3, r4, r2
   dadfa:	2a00      	cmp	r2, #0
   dadfc:	bfbc      	itt	lt
   dadfe:	f502 32a8 	addlt.w	r2, r2, #86016	; 0x15000
   dae02:	f502 72c0 	addlt.w	r2, r2, #384	; 0x180
   dae06:	f44f 6061 	mov.w	r0, #3600	; 0xe10
   dae0a:	f504 242f 	add.w	r4, r4, #716800	; 0xaf000
   dae0e:	fb92 f3f0 	sdiv	r3, r2, r0
   dae12:	fb00 2213 	mls	r2, r0, r3, r2
   dae16:	f04f 003c 	mov.w	r0, #60	; 0x3c
   dae1a:	bfac      	ite	ge
   dae1c:	f604 246c 	addwge	r4, r4, #2668	; 0xa6c
   dae20:	f604 246b 	addwlt	r4, r4, #2667	; 0xa6b
   dae24:	608b      	str	r3, [r1, #8]
   dae26:	fb92 f3f0 	sdiv	r3, r2, r0
   dae2a:	fb00 2213 	mls	r2, r0, r3, r2
   dae2e:	604b      	str	r3, [r1, #4]
   dae30:	600a      	str	r2, [r1, #0]
   dae32:	2307      	movs	r3, #7
   dae34:	1ce2      	adds	r2, r4, #3
   dae36:	fb92 f3f3 	sdiv	r3, r2, r3
   dae3a:	ebc3 03c3 	rsb	r3, r3, r3, lsl #3
   dae3e:	1ad3      	subs	r3, r2, r3
   dae40:	618b      	str	r3, [r1, #24]
   dae42:	4b33      	ldr	r3, [pc, #204]	; (daf10 <gmtime_r+0x124>)
   dae44:	4d33      	ldr	r5, [pc, #204]	; (daf14 <gmtime_r+0x128>)
   dae46:	fb94 f5f5 	sdiv	r5, r4, r5
   dae4a:	fb03 4405 	mla	r4, r3, r5, r4
   dae4e:	f648 62ac 	movw	r2, #36524	; 0x8eac
   dae52:	fbb4 f2f2 	udiv	r2, r4, r2
   dae56:	4422      	add	r2, r4
   dae58:	f240 57b4 	movw	r7, #1460	; 0x5b4
   dae5c:	fbb4 f3f7 	udiv	r3, r4, r7
   dae60:	1ad2      	subs	r2, r2, r3
   dae62:	482d      	ldr	r0, [pc, #180]	; (daf18 <gmtime_r+0x12c>)
   dae64:	fbb4 f0f0 	udiv	r0, r4, r0
   dae68:	f648 6694 	movw	r6, #36500	; 0x8e94
   dae6c:	1a13      	subs	r3, r2, r0
   dae6e:	fbb3 f6f6 	udiv	r6, r3, r6
   dae72:	4434      	add	r4, r6
   dae74:	f240 126d 	movw	r2, #365	; 0x16d
   dae78:	fbb3 f0f2 	udiv	r0, r3, r2
   dae7c:	fbb3 f3f7 	udiv	r3, r3, r7
   dae80:	1ae3      	subs	r3, r4, r3
   dae82:	fb02 3310 	mls	r3, r2, r0, r3
   dae86:	2499      	movs	r4, #153	; 0x99
   dae88:	eb03 0283 	add.w	r2, r3, r3, lsl #2
   dae8c:	3202      	adds	r2, #2
   dae8e:	fbb2 f2f4 	udiv	r2, r2, r4
   dae92:	2a0a      	cmp	r2, #10
   dae94:	fb04 f402 	mul.w	r4, r4, r2
   dae98:	f104 0602 	add.w	r6, r4, #2
   dae9c:	f04f 0405 	mov.w	r4, #5
   daea0:	fbb6 f4f4 	udiv	r4, r6, r4
   daea4:	bf34      	ite	cc
   daea6:	2602      	movcc	r6, #2
   daea8:	f06f 0609 	mvncs.w	r6, #9
   daeac:	4416      	add	r6, r2
   daeae:	f44f 72c8 	mov.w	r2, #400	; 0x190
   daeb2:	fb02 0505 	mla	r5, r2, r5, r0
   daeb6:	1c5f      	adds	r7, r3, #1
   daeb8:	2e01      	cmp	r6, #1
   daeba:	bf98      	it	ls
   daebc:	3501      	addls	r5, #1
   daebe:	f5b3 7f99 	cmp.w	r3, #306	; 0x132
   daec2:	eba7 0704 	sub.w	r7, r7, r4
   daec6:	d302      	bcc.n	daece <gmtime_r+0xe2>
   daec8:	f5a3 7299 	sub.w	r2, r3, #306	; 0x132
   daecc:	e014      	b.n	daef8 <gmtime_r+0x10c>
   daece:	0782      	lsls	r2, r0, #30
   daed0:	d105      	bne.n	daede <gmtime_r+0xf2>
   daed2:	2464      	movs	r4, #100	; 0x64
   daed4:	fbb0 f2f4 	udiv	r2, r0, r4
   daed8:	fb04 0212 	mls	r2, r4, r2, r0
   daedc:	b94a      	cbnz	r2, daef2 <gmtime_r+0x106>
   daede:	f44f 72c8 	mov.w	r2, #400	; 0x190
   daee2:	fbb0 f4f2 	udiv	r4, r0, r2
   daee6:	fb02 0014 	mls	r0, r2, r4, r0
   daeea:	fab0 f280 	clz	r2, r0
   daeee:	0952      	lsrs	r2, r2, #5
   daef0:	e000      	b.n	daef4 <gmtime_r+0x108>
   daef2:	2201      	movs	r2, #1
   daef4:	333b      	adds	r3, #59	; 0x3b
   daef6:	441a      	add	r2, r3
   daef8:	f2a5 756c 	subw	r5, r5, #1900	; 0x76c
   daefc:	2300      	movs	r3, #0
   daefe:	61ca      	str	r2, [r1, #28]
   daf00:	614d      	str	r5, [r1, #20]
   daf02:	610e      	str	r6, [r1, #16]
   daf04:	60cf      	str	r7, [r1, #12]
   daf06:	620b      	str	r3, [r1, #32]
   daf08:	4608      	mov	r0, r1
   daf0a:	bdf0      	pop	{r4, r5, r6, r7, pc}
   daf0c:	00015180 	.word	0x00015180
   daf10:	fffdc54f 	.word	0xfffdc54f
   daf14:	00023ab1 	.word	0x00023ab1
   daf18:	00023ab0 	.word	0x00023ab0

000daf1c <__env_lock>:
   daf1c:	4770      	bx	lr

000daf1e <__env_unlock>:
   daf1e:	4770      	bx	lr

000daf20 <dynalib_user>:
   daf20:	401d 000d 4059 000d 4085 000d 4089 000d     .@..Y@...@...@..
   daf30:	0000 0000                                   ....

000daf34 <_ZTV16JsonParserStaticILj512ELj50EE>:
	...
   daf3c:	4171 000d 4185 000d                         qA...A..

000daf44 <_ZZN8BlynkApiI13BlynkProtocolI22BlynkTransportParticleEE8sendInfoEvE7profile>:
   daf44:	6c62 6b6e 6e69 0066 6576 0072 2e30 2e35     blnkinf.ver.0.5.
   daf54:	0034 2d68 6562 7461 3100 0030 7562 6666     4.h-beat.10.buff
   daf64:	692d 006e 3031 3432 6400 7665 5000 7261     -in.1024.dev.Par
   daf74:	6974 6c63 0065 7562 6c69 0064 754a 206c     ticle.build.Jul 
   daf84:	3731 3220 3130 2039 3331 303a 3a38 3934     17 2019 13:08:49
   daf94:	0000 6700 6f6c 6162 5f6c 7069 253d 0073     ...global_ip=%s.
   dafa4:	6925 2500 696c 2500 3230 0069 003a 004d     %i.%li.%02i.:.M.
   dafb4:	696d 756e 6574 0073 6573 6f63 646e 0073     minutes.seconds.
   dafc4:	5453 504f 4157 4354 0048 6170 7472 6369     STOPWATCH.partic
   dafd4:	656c 642f 7665 6369 2f65 7069 2500 2c73     le/device/ip.%s,
   dafe4:	7325 7400 6d65 5270 6365 6965 6576 0064     %s.tempReceived.
   daff4:	7563 7272 6e65 5374 6174 7574 0073 6570     currentStatus.pe
   db004:	6372 7069 7250 626f 7400 6d65 5270 6365     rcipProb.tempRec
   db014:	6965 6576 3d64 7325 202c 7563 7272 6e65     eived=%s, curren
   db024:	5374 6174 7574 3d73 7325 202c 7270 6365     tStatus=%s, prec
   db034:	7069 7469 7461 6f69 506e 6f72 6162 6962     ipitationProbabi
   db044:	696c 7974 253a 0073 616c 6974 7574 6564     lity:%s.latitude
   db054:	6c00 6e6f 6967 7574 6564 6c00 7461 253d     .longitude.lat=%
   db064:	2c73 6f6c 3d6e 7325 6900 006e 756f 0074     s,lon=%s.in.out.
   db074:	7770 006d 7764 6100 0077 6f63 706d 656c     pwm.dw.aw.comple
   db084:	6574 3800 3764 6263 3736 6538 3736 3461     te.8d7cb678e67a4
   db094:	6438 3934 3465 3334 6563 3435 6332 6662     8d49e443ce542cbf
   db0a4:	3132 0035 6f68 6b6f 722d 7365 6f70 736e     215.hook-respons
   db0b4:	2f65 6567 696f 0070 6f68 6b6f 722d 7365     e/geoip.hook-res
   db0c4:	6f70 736e 2f65 6574 706d 6552 6461 6e00     ponse/tempRead.n
   db0d4:	6d61 0065 756e 6562 7364 7600 0077 6954     ame.nubeds.vw.Ti
   db0e4:	656d 7327 5520 2150 2121 5400 6d69 2765     me's UP!!!.Time'
   db0f4:	2073 7055 2020 0020 4954 454d 0052 2046     s Up   .TIMER.F 
   db104:	2000 6152 6e69 203a 2500 6600 616c 6873     . Rain: .%.flash
   db114:	6300 7375 6f74 6c6d 6769 7468 4200 4f4e     .customlight.BNO
   db124:	3530 0035                                   055.

000db128 <_ZTV15Adafruit_BNO055>:
	...
   db130:	4101 000d 5cc9 000d 40c9 000d 6201 000d     .A...\...@...b..
   db140:	5f31 000d                                   1_..

000db144 <_ZTV12Adafruit_GFX>:
	...
   db154:	65fd 000d 879d 000d 40a5 000d 62fb 000d     .e.......@...b..
   db164:	641b 000d 6437 000d 63bb 000d 6451 000d     .d..7d...c..Qd..
   db174:	6489 000d 64a5 000d                         .d...d..

000db17c <_ZL4font>:
   db17c:	0000 0000 3e00 4f5b 3e5b 6b3e 6b4f 1c3e     .....>[O[>>kOk>.
   db18c:	7c3e 1c3e 3c18 3c7e 1c18 7d57 1c57 5e1c     >|>..<~<..W}W..^
   db19c:	5e7f 001c 3c18 0018 e7ff e7c3 00ff 2418     .^...<.........$
   db1ac:	0018 e7ff e7db 30ff 3a48 0e06 2926 2979     .......0H:..&)y)
   db1bc:	4026 057f 0705 7f40 2505 5a3f e73c 5a3c     &@....@..%?Z<.<Z
   db1cc:	3e7f 1c1c 0808 1c1c 7f3e 2214 227f 5f14     .>......>.."."._
   db1dc:	005f 5f5f 0906 017f 007f 8966 6a95 6060     _.__......f..j``
   db1ec:	6060 9460 ffa2 94a2 0408 047e 1008 7e20     ```.......~... ~
   db1fc:	1020 0808 1c2a 0808 2a1c 0808 101e 1010      ...*....*......
   db20c:	0c10 0c1e 0c1e 3830 383e 0630 3e0e 060e     ......08>80..>..
   db21c:	0000 0000 0000 5f00 0000 0700 0700 1400     ......._........
   db22c:	147f 147f 2a24 2a7f 2312 0813 6264 4936     ....$*.*.#..db6I
   db23c:	2056 0050 0708 0003 1c00 4122 0000 2241     V P......."A..A"
   db24c:	001c 1c2a 1c7f 082a 3e08 0808 8000 3070     ..*...*..>....p0
   db25c:	0800 0808 0808 0000 6060 2000 0810 0204     ........``. ....
   db26c:	513e 4549 003e 7f42 0040 4972 4949 2146     >QIE>.B.@.rIIIF!
   db27c:	4941 334d 1418 7f12 2710 4545 3945 4a3c     AIM3.....'EEE9<J
   db28c:	4949 4131 1121 0709 4936 4949 4636 4949     II1A!...6III6FII
   db29c:	1e29 0000 0014 0000 3440 0000 0800 2214     ).......@4....."
   db2ac:	1441 1414 1414 4100 1422 0208 5901 0609     A......A"....Y..
   db2bc:	413e 595d 7c4e 1112 7c12 497f 4949 3e36     >A]YN|...|.III6>
   db2cc:	4141 2241 417f 4141 7f3e 4949 4149 097f     AAA".AAA>.IIIA..
   db2dc:	0909 3e01 4141 7351 087f 0808 007f 7f41     ...>AAQs......A.
   db2ec:	0041 4020 3f41 7f01 1408 4122 407f 4040     A. @A?...."A.@@@
   db2fc:	7f40 1c02 7f02 047f 1008 3e7f 4141 3e41     @..........>AAA>
   db30c:	097f 0909 3e06 5141 5e21 097f 2919 2646     .....>AQ!^...)F&
   db31c:	4949 3249 0103 017f 3f03 4040 3f40 201f     III2.....?@@@?. 
   db32c:	2040 3f1f 3840 3f40 1463 1408 0363 7804     @ .?@8@?c...c..x
   db33c:	0304 5961 4d49 0043 417f 4141 0402 1008     ..aYIMC..AAA....
   db34c:	0020 4141 7f41 0204 0201 4004 4040 4040      .AAA......@@@@@
   db35c:	0300 0807 2000 5454 4078 287f 4444 3838     ..... TTx@.(DD88
   db36c:	4444 2844 4438 2844 387f 5454 1854 0800     DDD(8DD(.8TTT...
   db37c:	097e 1802 a4a4 789c 087f 0404 0078 7d44     ~......x....x.D}
   db38c:	0040 4020 3d40 7f00 2810 0044 4100 407f     @. @@=...(D..A.@
   db39c:	7c00 7804 7804 087c 0404 3878 4444 3844     .|.x.x|...x8DDD8
   db3ac:	18fc 2424 1818 2424 fc18 087c 0404 4808     ..$$..$$..|....H
   db3bc:	5454 2454 0404 443f 3c24 4040 7c20 201c     TTT$..?D$<@@ |. 
   db3cc:	2040 3c1c 3040 3c40 2844 2810 4c44 9090     @ .<@0@<D(.(DL..
   db3dc:	7c90 6444 4c54 0044 3608 0041 0000 0077     .|DdTLD..6A...w.
   db3ec:	0000 3641 0008 0102 0402 3c02 2326 3c26     ..A6.......<&#&<
   db3fc:	a11e 61a1 3a12 4040 7a20 5438 5554 2159     ...a.:@@ z8TTUY!
   db40c:	5555 4179 5421 7854 2141 5455 4078 5420     UUyA!TTxA!UTx@ T
   db41c:	7955 0c40 521e 1272 5539 5555 3959 5454     Uy@..Rr.9UUUY9TT
   db42c:	5954 5539 5454 0058 4500 417c 0200 7d45     TY9UTTX..E|A..E}
   db43c:	0042 4501 407c 29f0 2924 f0f0 2528 f028     B..E|@.)$)..(%(.
   db44c:	547c 4555 2000 5454 547c 0a7c 7f09 3249     |TUE. TT|T|...I2
   db45c:	4949 3249 4832 4848 3232 484a 3048 413a     III22HHH22JHH0:A
   db46c:	2141 3a7a 4042 7820 9d00 a0a0 397d 4444     A!z:B@ x....}9DD
   db47c:	3944 403d 4040 3c3d ff24 2424 7e48 4349     D9=@@@=<$.$$H~IC
   db48c:	2b66 fc2f 2b2f 09ff f629 c020 7e88 0309     f+/./+..). ..~..
   db49c:	5420 7954 0041 4400 417d 4830 4a48 3832      TTyA..D}A0HHJ28
   db4ac:	4040 7a22 7a00 0a0a 7d72 190d 7d31 2926     @@"z.z..r}..1}&)
   db4bc:	2f29 2628 2929 2629 4830 404d 3820 0808     )/(&)))&0HM@ 8..
   db4cc:	0808 0808 0808 2f38 c810 baac 102f 3428     ......8/..../.(4
   db4dc:	00fa 7b00 0000 1408 142a 2222 2a14 0814     ...{....*."".*..
   db4ec:	00aa 0055 aaaa aa55 aa55 0000 ff00 1000     ..U...U.U.......
   db4fc:	1010 00ff 1414 ff14 1000 ff10 ff00 1010     ................
   db50c:	10f0 14f0 1414 00fc 1414 00f7 00ff ff00     ................
   db51c:	ff00 1414 04f4 14fc 1714 1f10 1010 101f     ................
   db52c:	141f 1414 001f 1010 f010 0000 0000 101f     ................
   db53c:	1010 1f10 1010 1010 10f0 0000 ff00 1010     ................
   db54c:	1010 1010 1010 ff10 0010 0000 14ff 0000     ................
   db55c:	00ff 00ff 1f00 1710 0000 04fc 14f4 1714     ................
   db56c:	1710 1414 04f4 00f4 ff00 f700 1414 1414     ................
   db57c:	1414 f714 f700 1414 1714 1014 1f10 1f10     ................
   db58c:	1414 f414 1014 f010 f010 0000 101f 001f     ................
   db59c:	0000 141f 0000 fc00 0014 f000 f010 1010     ................
   db5ac:	10ff 14ff 1414 14ff 1010 1f10 0000 0000     ................
   db5bc:	10f0 ffff ffff f0ff f0f0 f0f0 ffff 00ff     ................
   db5cc:	0000 0000 ffff 0f0f 0f0f 380f 4444 4438     ...........8DD8D
   db5dc:	2a7c 3e2a 7e14 0202 0606 7e02 7e02 6302     |**>.~.....~.~.c
   db5ec:	4955 6341 4438 3c44 4004 207e 201e 0206     UIAc8DD<.@~ . ..
   db5fc:	027e 9902 e7a5 99a5 2a1c 2a49 4c1c 0172     ~........*I*.Lr.
   db60c:	4c72 4a30 4d4d 3030 7848 3048 62bc 465a     rL0JMM00HxH0.bZF
   db61c:	3e3d 4949 0049 017e 0101 2a7e 2a2a 2a2a     =>III.~...~*****
   db62c:	4444 445f 4044 4a51 4044 4440 514a 0040     DD_DD@QJD@@DJQ@.
   db63c:	ff00 0301 80e0 00ff 0800 6b08 086b 1236     ...........kk.6.
   db64c:	2436 0636 090f 060f 0000 1818 0000 1000     6$6.............
   db65c:	0010 4030 01ff 0001 011f 1e01 1900 171d     ..0@............
   db66c:	0012 3c3c 3c3c 0000 0000 0000               ..<<<<......

000db678 <_ZTV10JsonBuffer>:
	...
   db680:	6699 000d 66b5 000d 6c25 0075 3025 7834     .f...f..%lu.%04x
   db690:	5c00 2575 3430 0058 7274 6575 6600 6c61     .\u%04X.true.fal
   db6a0:	6573 2500 2a2e 0066 6625 2500 2a2e 666c     se.%.*f.%f.%.*lf
   db6b0:	2500 666c 0000 0000                         .%lf....

000db6b8 <_ZTV10JsonParser>:
	...
   db6c0:	66c9 000d 66ed 000d                         .f...f..

000db6c8 <_ZL23BlynkWriteHandlerVector>:
   db6c8:	4531 000d 4559 000d 458d 000d 45c1 000d     1E..YE...E...E..
   db6d8:	45d5 000d 6eff 000d 4625 000d 6eff 000d     .E...n..%F...n..
   db6e8:	6eff 000d 6eff 000d 6eff 000d 6eff 000d     .n...n...n...n..
   db6f8:	6eff 000d 6eff 000d 6eff 000d 6eff 000d     .n...n...n...n..
   db708:	6eff 000d 6eff 000d 6eff 000d 6eff 000d     .n...n...n...n..
   db718:	6eff 000d 6eff 000d 6eff 000d 6eff 000d     .n...n...n...n..
   db728:	6eff 000d 6eff 000d 6eff 000d 6eff 000d     .n...n...n...n..
   db738:	6eff 000d 6eff 000d 6eff 000d 6eff 000d     .n...n...n...n..
   db748:	6eff 000d 6eff 000d 6eff 000d 6eff 000d     .n...n...n...n..
   db758:	6eff 000d 6eff 000d 6eff 000d 6eff 000d     .n...n...n...n..
   db768:	6eff 000d 6eff 000d 6eff 000d 6eff 000d     .n...n...n...n..
   db778:	6eff 000d 6eff 000d 6eff 000d 6eff 000d     .n...n...n...n..
   db788:	6eff 000d 6eff 000d 6eff 000d 6eff 000d     .n...n...n...n..
   db798:	6eff 000d 6eff 000d 6eff 000d 6eff 000d     .n...n...n...n..
   db7a8:	6eff 000d 6eff 000d 6eff 000d 6eff 000d     .n...n...n...n..
   db7b8:	6eff 000d 6eff 000d 6eff 000d 6eff 000d     .n...n...n...n..
   db7c8:	6eff 000d 6eff 000d 6eff 000d 6eff 000d     .n...n...n...n..
   db7d8:	6eff 000d 6eff 000d 6eff 000d 6eff 000d     .n...n...n...n..
   db7e8:	6eff 000d 6eff 000d 6eff 000d 6eff 000d     .n...n...n...n..
   db7f8:	6eff 000d 6eff 000d 6eff 000d 6eff 000d     .n...n...n...n..
   db808:	6eff 000d 6eff 000d 6eff 000d 6eff 000d     .n...n...n...n..
   db818:	6eff 000d 6eff 000d 6eff 000d 6eff 000d     .n...n...n...n..
   db828:	6eff 000d 6eff 000d 6eff 000d 6eff 000d     .n...n...n...n..
   db838:	6eff 000d 6eff 000d 6eff 000d 6eff 000d     .n...n...n...n..
   db848:	6eff 000d 6eff 000d 6eff 000d 6eff 000d     .n...n...n...n..
   db858:	6eff 000d 6eff 000d 6eff 000d 6eff 000d     .n...n...n...n..
   db868:	6eff 000d 6eff 000d 6eff 000d 6eff 000d     .n...n...n...n..
   db878:	6eff 000d 6eff 000d 6eff 000d 6eff 000d     .n...n...n...n..
   db888:	6eff 000d 6eff 000d 6eff 000d 6eff 000d     .n...n...n...n..
   db898:	6eff 000d 6eff 000d 6eff 000d 6eff 000d     .n...n...n...n..
   db8a8:	6eff 000d 6eff 000d 6eff 000d 6eff 000d     .n...n...n...n..
   db8b8:	6eff 000d 6eff 000d 6eff 000d 6eff 000d     .n...n...n...n..

000db8c8 <_ZL22BlynkReadHandlerVector>:
   db8c8:	6efd 000d 6efd 000d 6efd 000d 6efd 000d     .n...n...n...n..
   db8d8:	6efd 000d 6efd 000d 6efd 000d 6efd 000d     .n...n...n...n..
   db8e8:	6efd 000d 6efd 000d 6efd 000d 6efd 000d     .n...n...n...n..
   db8f8:	6efd 000d 6efd 000d 6efd 000d 6efd 000d     .n...n...n...n..
   db908:	6efd 000d 6efd 000d 6efd 000d 6efd 000d     .n...n...n...n..
   db918:	6efd 000d 6efd 000d 6efd 000d 6efd 000d     .n...n...n...n..
   db928:	6efd 000d 6efd 000d 6efd 000d 6efd 000d     .n...n...n...n..
   db938:	6efd 000d 6efd 000d 6efd 000d 6efd 000d     .n...n...n...n..
   db948:	6efd 000d 6efd 000d 6efd 000d 6efd 000d     .n...n...n...n..
   db958:	6efd 000d 6efd 000d 6efd 000d 6efd 000d     .n...n...n...n..
   db968:	6efd 000d 6efd 000d 6efd 000d 6efd 000d     .n...n...n...n..
   db978:	6efd 000d 6efd 000d 6efd 000d 6efd 000d     .n...n...n...n..
   db988:	6efd 000d 6efd 000d 6efd 000d 6efd 000d     .n...n...n...n..
   db998:	6efd 000d 6efd 000d 6efd 000d 6efd 000d     .n...n...n...n..
   db9a8:	6efd 000d 6efd 000d 6efd 000d 6efd 000d     .n...n...n...n..
   db9b8:	6efd 000d 6efd 000d 6efd 000d 6efd 000d     .n...n...n...n..
   db9c8:	6efd 000d 6efd 000d 6efd 000d 6efd 000d     .n...n...n...n..
   db9d8:	6efd 000d 6efd 000d 6efd 000d 6efd 000d     .n...n...n...n..
   db9e8:	6efd 000d 6efd 000d 6efd 000d 6efd 000d     .n...n...n...n..
   db9f8:	6efd 000d 6efd 000d 6efd 000d 6efd 000d     .n...n...n...n..
   dba08:	6efd 000d 6efd 000d 6efd 000d 6efd 000d     .n...n...n...n..
   dba18:	6efd 000d 6efd 000d 6efd 000d 6efd 000d     .n...n...n...n..
   dba28:	6efd 000d 6efd 000d 6efd 000d 6efd 000d     .n...n...n...n..
   dba38:	6efd 000d 6efd 000d 6efd 000d 6efd 000d     .n...n...n...n..
   dba48:	6efd 000d 6efd 000d 6efd 000d 6efd 000d     .n...n...n...n..
   dba58:	6efd 000d 6efd 000d 6efd 000d 6efd 000d     .n...n...n...n..
   dba68:	6efd 000d 6efd 000d 6efd 000d 6efd 000d     .n...n...n...n..
   dba78:	6efd 000d 6efd 000d 6efd 000d 6efd 000d     .n...n...n...n..
   dba88:	6efd 000d 6efd 000d 6efd 000d 6efd 000d     .n...n...n...n..
   dba98:	6efd 000d 6efd 000d 6efd 000d 6efd 000d     .n...n...n...n..
   dbaa8:	6efd 000d 6efd 000d 6efd 000d 6efd 000d     .n...n...n...n..
   dbab8:	6efd 000d 6efd 000d 6efd 000d 6efd 000d     .n...n...n...n..

000dbac8 <_ZTV18Adafruit_NeoMatrix>:
	...
   dbad0:	4159 000d 5cd7 000d 65fd 000d 879d 000d     YA...\...e......
   dbae0:	6fa3 000d 62fb 000d 641b 000d 6437 000d     .o...b...d..7d..
   dbaf0:	63bb 000d 6451 000d 6f6d 000d 64a5 000d     .c..Qd..mo...d..

000dbb00 <_ZL6gamma5>:
   dbb00:	0100 0302 0705 0b09 110e 1814 221d 2e28     ............."(.
   dbb10:	3d36 4f46 6459 7c6f 9789 b6a6 d9c7 ffeb     6=FOYdo|........

000dbb20 <_ZL6gamma6>:
   dbb20:	0100 0302 0504 0806 0a09 0d0b 100e 1312     ................
   dbb30:	1715 1b19 201d 2522 2a27 302d 3733 3e3a     ..... "%'*-037:>
   dbb40:	4541 4d49 5652 5f5b 6964 746e 7f79 8b85     AEIMRV[_dinty...
   dbb50:	9791 a49d b2ab c0b9 cfc7 ded6 eee6 fff7     ................
   dbb60:	c000 4001 1000 4002 2000 4002               ...@...@. .@

000dbb6c <CSWTCH.70>:
   dbb6c:	012c 0000 0018 0000 01f4 0000 012c 0000     ,...........,...
   dbb7c:	0050 0000                                   P...

000dbb80 <_ZTVSt15_Sp_counted_ptrIPN8particle6detail10FutureImplIbNS1_13FutureContextEEELN9__gnu_cxx12_Lock_policyE0EE>:
	...
   dbb88:	7db1 000d 7db7 000d 7dcf 000d 7dc5 000d     .}...}...}...}..
   dbb98:	7db3 000d                                   .}..

000dbb9c <_ZTVN5spark13EthernetClassE>:
	...
   dbba4:	8343 000d 8339 000d 832f 000d 8325 000d     C...9.../...%...
   dbbb4:	8319 000d 830d 000d 8301 000d 82f9 000d     ................
   dbbc4:	82ef 000d 82e5 000d 86bd 000d               ............

000dbbd0 <_ZTV7TwoWire>:
	...
   dbbd8:	8361 000d 83ab 000d 8383 000d 8363 000d     a...........c...
   dbbe8:	838b 000d 8393 000d 839b 000d 83a3 000d     ................

000dbbf8 <_ZTV9IPAddress>:
	...
   dbc00:	842f 000d 841f 000d 8421 000d 6e6c 6600     /.......!...ln.f
   dbc10:	006e 6f63 6564 6400 7465 6961 006c 0a0d     n.code.detail...
   dbc20:	2500 3130 7530 0020 205d 2c00 0020 2928     .%010u .] ., .()
   dbc30:	203a 2000 005b 6f63 6564 3d20 0020 6564     : . [.code = .de
   dbc40:	6174 6c69 2073 203d 6200 7561 0064 6553     tails = .baud.Se
   dbc50:	6972 6c61 5300 7265 6169 316c 7400 7079     rial.Serial1.typ
   dbc60:	0065 6170 6172 006d 6d63 0064 6469 6800     e.param.cmd.id.h
   dbc70:	646e 7300 7274 006d 6966 746c 6c00 6c76     nd.strm.filt.lvl
   dbc80:	6100 6464 6148 646e 656c 0072 6572 6f6d     .addHandler.remo
   dbc90:	6576 6148 646e 656c 0072 6e65 6d75 6148     veHandler.enumHa
   dbca0:	646e 656c 7372 4a00 4f53 534e 7274 6165     ndlers.JSONStrea
   dbcb0:	4c6d 676f 6148 646e 656c 0072 7061 0070     mLogHandler.app.
   dbcc0:	6f6e 656e 7400 6172 6563 6900 666e 006f     none.trace.info.
   dbcd0:	6177 6e72 6500 7272 726f 7000 6e61 6369     warn.error.panic
   dbce0:	6100 6c6c 0000 0000                         .all....

000dbce8 <_ZTVN5spark9MeshClassE>:
	...
   dbcf0:	85bb 000d 85b1 000d 85a7 000d 859d 000d     ................
   dbd00:	8591 000d 8585 000d 8579 000d 8571 000d     ........y...q...
   dbd10:	8567 000d 855d 000d 86bd 000d               g...].......

000dbd1c <_ZTVN5spark12NetworkClassE>:
	...
   dbd24:	8655 000d 865f 000d 8669 000d 8673 000d     U..._...i...s...
   dbd34:	867d 000d 8689 000d 8695 000d 86a1 000d     }...............
   dbd44:	86a9 000d 86b3 000d 86bd 000d               ............

000dbd50 <_ZTV8SPIClass>:
	...
   dbd58:	8961 000d 8963 000d                         a...c...

000dbd60 <_ZTVSt19_Sp_counted_deleterIPN9TCPClient4DataENSt12__shared_ptrIS1_LN9__gnu_cxx12_Lock_policyE0EE8_DeleterISaIS1_EEES8_LS5_0EE>:
	...
   dbd68:	8ce1 000d 8ce7 000d 9207 000d 8cf5 000d     ................
   dbd78:	8ce3 000d                                   ....

000dbd7c <_ZTV9TCPClient>:
	...
   dbd84:	8eed 000d 8f0d 000d 8c59 000d 8c73 000d     ........Y...s...
   dbd94:	90ad 000d 8eb7 000d 8e89 000d 8c9d 000d     ................
   dbda4:	8f83 000d 8cf9 000d 8f21 000d 907d 000d     ........!...}...
   dbdb4:	8c9f 000d 8cd7 000d 8c85 000d 8de9 000d     ................
   dbdc4:	8e69 000d 6977 6972 676e 7200 6365 2076     i...wiring.recv 
   dbdd4:	7265 6f72 2072 203d 6425 2500 302b 6433     error = %d.%+03d
   dbde4:	253a 3230 0075 5925 252d 2d6d 6425 2554     :%02u.%Y-%m-%dT%
   dbdf4:	3a48 4d25 253a 2553 007a 7361 7463 6d69     H:%M:%S%z.asctim
   dbe04:	0065 0000                                   e...

000dbe08 <_ZTV11USARTSerial>:
	...
   dbe10:	9353 000d 93a3 000d 93b1 000d 879d 000d     S...............
   dbe20:	9367 000d 9389 000d 9375 000d 939d 000d     g.......u.......
   dbe30:	9355 000d 9359 000d                         U...Y...

000dbe38 <_ZTV9USBSerial>:
	...
   dbe40:	9459 000d 94a9 000d 94b7 000d 879d 000d     Y...............
   dbe50:	9495 000d 945b 000d 9471 000d 94a3 000d     ....[...q.......
   dbe60:	9487 000d 9455 000d                         ....U...

000dbe68 <_ZTVN5spark9WiFiClassE>:
	...
   dbe70:	95c3 000d 95b9 000d 95af 000d 9565 000d     ............e...
   dbe80:	95a3 000d 9597 000d 958b 000d 9583 000d     ................
   dbe90:	9579 000d 956f 000d 86bd 000d               y...o.......

000dbe9c <_ZSt7nothrow>:
	...

000dbe9d <_ctype_>:
   dbe9d:	2000 2020 2020 2020 2020 2828 2828 2028     .         ((((( 
   dbead:	2020 2020 2020 2020 2020 2020 2020 2020                     
   dbebd:	8820 1010 1010 1010 1010 1010 1010 1010      ...............
   dbecd:	0410 0404 0404 0404 0404 1004 1010 1010     ................
   dbedd:	1010 4141 4141 4141 0101 0101 0101 0101     ..AAAAAA........
   dbeed:	0101 0101 0101 0101 0101 0101 1010 1010     ................
   dbefd:	1010 4242 4242 4242 0202 0202 0202 0202     ..BBBBBB........
   dbf0d:	0202 0202 0202 0202 0202 0202 1010 1010     ................
   dbf1d:	0020 0000 0000 0000 0000 0000 0000 0000      ...............
	...

000dbfa0 <__sf_fake_stdin>:
	...

000dbfc0 <__sf_fake_stdout>:
	...

000dbfe0 <__sf_fake_stderr>:
	...
   dc000:	0043 0000                                   C...

000dc004 <__month_lengths>:
   dc004:	001f 0000 001c 0000 001f 0000 001e 0000     ................
   dc014:	001f 0000 001e 0000 001f 0000 001f 0000     ................
   dc024:	001e 0000 001f 0000 001e 0000 001f 0000     ................
   dc034:	001f 0000 001d 0000 001f 0000 001e 0000     ................
   dc044:	001f 0000 001e 0000 001f 0000 001f 0000     ................
   dc054:	001e 0000 001f 0000 001e 0000 001f 0000     ................
   dc064:	5a54 4700 544d 2500 3031 5e5b 2d30 2c39     TZ.GMT.%10[^0-9,
   dc074:	2d2b 255d 006e 254d 7568 6e25 252e 7568     +-]%n.M%hu%n.%hu
   dc084:	6e25 252e 7568 6e25 2f00 6825 2575 3a6e     %n.%hu%n./%hu%n:
   dc094:	6825 2575 3a6e 6825 2575 006e               %hu%n:%hu%n.

000dc0a0 <link_const_variable_data_end>:
   dc0a0:	000d5ced 	.word	0x000d5ced
   dc0a4:	000d62f7 	.word	0x000d62f7
   dc0a8:	000d667d 	.word	0x000d667d
   dc0ac:	000d6681 	.word	0x000d6681
   dc0b0:	000d6685 	.word	0x000d6685
   dc0b4:	000d6695 	.word	0x000d6695
   dc0b8:	000d6e2d 	.word	0x000d6e2d
   dc0bc:	000d6e31 	.word	0x000d6e31
   dc0c0:	000d6e35 	.word	0x000d6e35
   dc0c4:	000d6e39 	.word	0x000d6e39
   dc0c8:	000d6e5d 	.word	0x000d6e5d
   dc0cc:	000d6e61 	.word	0x000d6e61
   dc0d0:	000d6e65 	.word	0x000d6e65
   dc0d4:	000d6e69 	.word	0x000d6e69
   dc0d8:	000d6e6d 	.word	0x000d6e6d
   dc0dc:	000d6e71 	.word	0x000d6e71
   dc0e0:	000d6e75 	.word	0x000d6e75
   dc0e4:	000d6e79 	.word	0x000d6e79
   dc0e8:	000d6e7d 	.word	0x000d6e7d
   dc0ec:	000d6e81 	.word	0x000d6e81
   dc0f0:	000d6e85 	.word	0x000d6e85
   dc0f4:	000d6e89 	.word	0x000d6e89
   dc0f8:	000d6e8d 	.word	0x000d6e8d
   dc0fc:	000d6eed 	.word	0x000d6eed
   dc100:	000d6ef9 	.word	0x000d6ef9
   dc104:	000d6f2d 	.word	0x000d6f2d
   dc108:	000d6f31 	.word	0x000d6f31
   dc10c:	000d6f35 	.word	0x000d6f35
   dc110:	000d7199 	.word	0x000d7199
   dc114:	000d76a9 	.word	0x000d76a9
   dc118:	000d76f9 	.word	0x000d76f9
   dc11c:	000d7da1 	.word	0x000d7da1
   dc120:	000d834d 	.word	0x000d834d
   dc124:	000d854d 	.word	0x000d854d
   dc128:	000d8609 	.word	0x000d8609
   dc12c:	000d8789 	.word	0x000d8789
   dc130:	000d8945 	.word	0x000d8945
   dc134:	000d8c41 	.word	0x000d8c41
   dc138:	000d9311 	.word	0x000d9311
   dc13c:	000d95cd 	.word	0x000d95cd
   dc140:	000d9831 	.word	0x000d9831
   dc144:	000d98b9 	.word	0x000d98b9
   dc148:	000d997d 	.word	0x000d997d
   dc14c:	000d9a01 	.word	0x000d9a01
   dc150:	000d9a85 	.word	0x000d9a85

000dc154 <link_constructors_end>:
	...
